EXPORTS
	?StringFromArrayLC@MPXDbCommonUtil@@SAPAVHBufC16@@ABVCDesC16Array@@ABVTDesC16@@@Z @ 1 NONAME ; class HBufC16 * MPXDbCommonUtil::StringFromArrayLC(class CDesC16Array const &, class TDesC16 const &)
	?IsInitialized@CMPXDbManager@@QAEHXZ @ 2 NONAME ; int CMPXDbManager::IsInitialized(void)
	?AppendValueL@MPXDbCommonUtil@@SAXAAVCDesC16Array@@0ABVTDesC16@@1@Z @ 3 NONAME ; void MPXDbCommonUtil::AppendValueL(class CDesC16Array &, class CDesC16Array &, class TDesC16 const &, class TDesC16 const &)
	?ExecuteSumQueryL@CMPXDbTable@@IAEKABVTDesC16@@0K@Z @ 4 NONAME ; unsigned long CMPXDbTable::ExecuteSumQueryL(class TDesC16 const &, class TDesC16 const &, unsigned long)
	?DbDrive@CMPXDbManager@@QBEHH@Z @ 5 NONAME ; int CMPXDbManager::DbDrive(int) const
	?ExecuteSumQueryL@CMPXDbTable@@IAEHABVTDesC16@@0@Z @ 6 NONAME ; int CMPXDbTable::ExecuteSumQueryL(class TDesC16 const &, class TDesC16 const &)
	?DesToTTimeL@MPXDbCommonUtil@@SA?AVTTime@@ABVTDesC16@@@Z @ 7 NONAME ; class TTime MPXDbCommonUtil::DesToTTimeL(class TDesC16 const &)
	?CloseDatabaseL@CMPXDbManager@@QAEXH@Z @ 8 NONAME ; void CMPXDbManager::CloseDatabaseL(int)
	?AddSqlCriterionL@MPXDbCommonUtil@@SAHAAVCDesC16Array@@ABVTDesC16@@1@Z @ 9 NONAME ; int MPXDbCommonUtil::AddSqlCriterionL(class CDesC16Array &, class TDesC16 const &, class TDesC16 const &)
	?TTimeToDesLC@MPXDbCommonUtil@@SAPAVHBufC16@@ABVTTime@@@Z @ 10 NONAME ; class HBufC16 * MPXDbCommonUtil::TTimeToDesLC(class TTime const &)
	?ConstructL@CMPXDbManager@@IAEXABV?$TBuf@$0BAA@@@@Z @ 11 NONAME ; void CMPXDbManager::ConstructL(class TBuf<256> const &)
	?SetVisibleChange@CMPXDbActiveTask@@QAEXW4TChangeVisibility@1@@Z @ 12 NONAME ; void CMPXDbActiveTask::SetVisibleChange(enum CMPXDbActiveTask::TChangeVisibility)
	?ExecuteSelectQueryL@CMPXDbManager@@QAA?AVRSqlStatement@@HV?$TRefByValue@$$CBVTDesC16@@@@ZZ @ 13 NONAME ; class RSqlStatement CMPXDbManager::ExecuteSelectQueryL(int, class TRefByValue<class TDesC16 const >, ...)
	?ExecuteMediaQueryL@CMPXDbTable@@IAEXABV?$TArray@VTMPXAttribute@@@@AAVCMPXMedia@@ABVTDesC16@@@Z @ 14 NONAME ; void CMPXDbTable::ExecuteMediaQueryL(class TArray<class TMPXAttribute> const &, class CMPXMedia &, class TDesC16 const &)
	?StringFromArraysLC@MPXDbCommonUtil@@SAPAVHBufC16@@ABVCDesC16Array@@0ABVTDesC16@@1@Z @ 15 NONAME ; class HBufC16 * MPXDbCommonUtil::StringFromArraysLC(class CDesC16Array const &, class CDesC16Array const &, class TDesC16 const &, class TDesC16 const &)
	?CurrentDateDesLC@MPXDbCommonUtil@@SAPAVHBufC16@@XZ @ 16 NONAME ; class HBufC16 * MPXDbCommonUtil::CurrentDateDesLC(void)
	?ReadMenuArrayLC@CMPXResource@@QAEPAVCDesC16ArrayFlat@@HAAV?$RArray@H@@@Z @ 17 NONAME ; class CDesC16ArrayFlat * CMPXResource::ReadMenuArrayLC(int, class RArray<int> &)
	?NewL@CMPXResource@@SAPAV1@ABVTDesC16@@@Z @ 18 NONAME ; class CMPXResource * CMPXResource::NewL(class TDesC16 const &)
	?ExecuteMediaQueryL@CMPXDbTable@@IAEXABV?$TArray@VTMPXAttribute@@@@AAVCMPXMediaArray@@ABVTDesC16@@HH@Z @ 19 NONAME ; void CMPXDbTable::ExecuteMediaQueryL(class TArray<class TMPXAttribute> const &, class CMPXMediaArray &, class TDesC16 const &, int, int)
	?AppendMediaL@MPXDbCommonUtil@@SAXAAVCMPXMediaArray@@ABVTDesC16@@W4TMPXGeneralType@@W4TMPXGeneralCategory@@VTMPXItemId@@HI@Z @ 20 NONAME ; void MPXDbCommonUtil::AppendMediaL(class CMPXMediaArray &, class TDesC16 const &, enum TMPXGeneralType, enum TMPXGeneralCategory, class TMPXItemId, int, unsigned int)
	?EnsureRamSpaceL@CMPXDbManager@@QAEXXZ @ 21 NONAME ; void CMPXDbManager::EnsureRamSpaceL(void)
	?ExecuteSelectQueryL@CMPXDbManager@@QAAAAVRSqlStatement@@IHHV?$TRefByValue@$$CBVTDesC16@@@@ZZ @ 22 NONAME ; class RSqlStatement & CMPXDbManager::ExecuteSelectQueryL(unsigned int, int, int, class TRefByValue<class TDesC16 const >, ...)
	?CopyDBsToRamL@CMPXDbManager@@QAEXH@Z @ 23 NONAME ; void CMPXDbManager::CopyDBsToRamL(int)
	?AppendValueL@MPXDbCommonUtil@@SAXAAVCDesC16Array@@0ABVTDesC16@@K@Z @ 24 NONAME ; void MPXDbCommonUtil::AppendValueL(class CDesC16Array &, class CDesC16Array &, class TDesC16 const &, unsigned long)
	?RunL@CMPXDbActiveTask@@MAEXXZ @ 25 NONAME ; void CMPXDbActiveTask::RunL(void)
	?CreateFullPathL@MPXDbCommonUtil@@SAPAVHBufC16@@HABVTDesC16@@@Z @ 26 NONAME ; class HBufC16 * MPXDbCommonUtil::CreateFullPathL(int, class TDesC16 const &)
	?SqlCriterionLC@MPXDbCommonUtil@@SAPAVHBufC16@@ABVTDesC16@@HH@Z @ 27 NONAME ; class HBufC16 * MPXDbCommonUtil::SqlCriterionLC(class TDesC16 const &, int, int)
	?GetTask@CMPXDbActiveTask@@QAEKXZ @ 28 NONAME ; unsigned long CMPXDbActiveTask::GetTask(void)
	?RecreateAllDatabasesL@CMPXDbManager@@QAEXXZ @ 29 NONAME ; void CMPXDbManager::RecreateAllDatabasesL(void)
	?ReadDesCArrayL@CMPXResource@@QAEPAVCDesC16ArrayFlat@@H@Z @ 30 NONAME ; class CDesC16ArrayFlat * CMPXResource::ReadDesCArrayL(int)
	??1CMPXDbActiveTask@@UAE@XZ @ 31 NONAME ; CMPXDbActiveTask::~CMPXDbActiveTask(void)
	?FillInSupportedUIDsL@MPXDbCommonUtil@@SAXABV?$TArray@VTMPXAttribute@@@@AAV?$RArray@H@@@Z @ 32 NONAME ; void MPXDbCommonUtil::FillInSupportedUIDsL(class TArray<class TMPXAttribute> const &, class RArray<int> &)
	?SqlCriterionLC@MPXDbCommonUtil@@SAPAVHBufC16@@ABVTDesC16@@0@Z @ 33 NONAME ; class HBufC16 * MPXDbCommonUtil::SqlCriterionLC(class TDesC16 const &, class TDesC16 const &)
	?SqlCriterion64LC@MPXDbCommonUtil@@SAPAVHBufC16@@ABVTDesC16@@_J1@Z @ 34 NONAME ; class HBufC16 * MPXDbCommonUtil::SqlCriterion64LC(class TDesC16 const &, long long, long long)
	?ExecuteSelectQueryL@CMPXDbManager@@QAAAAVRSqlStatement@@IABVTDesC16@@HV?$TRefByValue@$$CBVTDesC16@@@@ZZ @ 35 NONAME ; class RSqlStatement & CMPXDbManager::ExecuteSelectQueryL(unsigned int, class TDesC16 const &, int, class TRefByValue<class TDesC16 const >, ...)
	?UpdateMediaL@CMPXDbTable@@MAEXAAVRSqlStatement@@ABV?$TArray@VTMPXAttribute@@@@AAVCMPXMedia@@@Z @ 36 NONAME ; void CMPXDbTable::UpdateMediaL(class RSqlStatement &, class TArray<class TMPXAttribute> const &, class CMPXMedia &)
	?CreateTablesL@CMPXDbManager@@IAEXAAVRSqlDatabase@@@Z @ 37 NONAME ; void CMPXDbManager::CreateTablesL(class RSqlDatabase &)
	??1CMPXDbManager@@UAE@XZ @ 38 NONAME ; CMPXDbManager::~CMPXDbManager(void)
	?ExecuteQueryL@CMPXDbManager@@QAAXHV?$TRefByValue@$$CBVTDesC16@@@@ZZ @ 39 NONAME ; void CMPXDbManager::ExecuteQueryL(int, class TRefByValue<class TDesC16 const >, ...)
	?CommitL@CMPXDbManager@@QAEXXZ @ 40 NONAME ; void CMPXDbManager::CommitL(void)
	?ExecuteMediaQueryL@CMPXDbTable@@IAEXABV?$TArray@VTMPXAttribute@@@@AAVCMPXMediaArray@@ABVTDesC16@@2@Z @ 41 NONAME ; void CMPXDbTable::ExecuteMediaQueryL(class TArray<class TMPXAttribute> const &, class CMPXMediaArray &, class TDesC16 const &, class TDesC16 const &)
	??1CMPXDbTable@@MAE@XZ @ 42 NONAME ; CMPXDbTable::~CMPXDbTable(void)
	?ProcessSingleQuotesLC@MPXDbCommonUtil@@SAPAVHBufC16@@ABVTDesC16@@@Z @ 43 NONAME ; class HBufC16 * MPXDbCommonUtil::ProcessSingleQuotesLC(class TDesC16 const &)
	?GetDRMTypeL@MPXDbCommonUtil@@SA?AW4TMCDrmType@@ABVTDesC16@@@Z @ 44 NONAME ; enum TMCDrmType MPXDbCommonUtil::GetDRMTypeL(class TDesC16 const &)
	?ExecuteMediaQueryL@CMPXDbTable@@IAEXABV?$TArray@VTMPXAttribute@@@@AAVCMPXMediaArray@@ABVTDesC16@@H@Z @ 45 NONAME ; void CMPXDbTable::ExecuteMediaQueryL(class TArray<class TMPXAttribute> const &, class CMPXMediaArray &, class TDesC16 const &, int)
	?ExecuteMediaQueryL@CMPXDbTable@@IAEXABV?$TArray@VTMPXAttribute@@@@AAVCMPXMediaArray@@ABVTDesC16@@@Z @ 46 NONAME ; void CMPXDbTable::ExecuteMediaQueryL(class TArray<class TMPXAttribute> const &, class CMPXMediaArray &, class TDesC16 const &)
	?InitDatabasesL@CMPXDbManager@@QAEXV?$RArray@H@@@Z @ 47 NONAME ; void CMPXDbManager::InitDatabasesL(class RArray<int>)
	?GetChangeMessages@CMPXDbActiveTask@@QAEAAVCMPXMediaArray@@XZ @ 48 NONAME ; class CMPXMediaArray & CMPXDbActiveTask::GetChangeMessages(void)
	?ExecuteSelectQueryL@CMPXDbManager@@QAA?AVRSqlStatement@@V?$TRefByValue@$$CBVTDesC16@@@@ZZ @ 49 NONAME ; class RSqlStatement CMPXDbManager::ExecuteSelectQueryL(class TRefByValue<class TDesC16 const >, ...)
	?ReadHBufCL@CMPXResource@@QAEPAVHBufC16@@H@Z @ 50 NONAME ; class HBufC16 * CMPXResource::ReadHBufCL(int)
	?GetCommand@CMPXDbActiveTask@@QAEAAVCMPXMedia@@XZ @ 51 NONAME ; class CMPXMedia & CMPXDbActiveTask::GetCommand(void)
	?GetMimeTypeForUriL@MPXDbCommonUtil@@SA?AVTDataType@@ABVTDesC16@@@Z @ 52 NONAME ; class TDataType MPXDbCommonUtil::GetMimeTypeForUriL(class TDesC16 const &)
	?ExecuteIntQueryL@CMPXDbTable@@IAEKABVTDesC16@@0K@Z @ 53 NONAME ; unsigned long CMPXDbTable::ExecuteIntQueryL(class TDesC16 const &, class TDesC16 const &, unsigned long)
	?OpenDatabaseL@CMPXDbManager@@QAEXH@Z @ 54 NONAME ; void CMPXDbManager::OpenDatabaseL(int)
	?ExecuteMediaQueryOnDriveL@CMPXDbTable@@IAEXHABV?$TArray@VTMPXAttribute@@@@AAVCMPXMediaArray@@ABVTDesC16@@@Z @ 55 NONAME ; void CMPXDbTable::ExecuteMediaQueryOnDriveL(int, class TArray<class TMPXAttribute> const &, class CMPXMediaArray &, class TDesC16 const &)
	?ExecuteMediaQueryL@CMPXDbTable@@IAEXABV?$TArray@VTMPXAttribute@@@@AAVCMPXMediaArray@@ABVTDesC16@@2HHI@Z @ 56 NONAME ; void CMPXDbTable::ExecuteMediaQueryL(class TArray<class TMPXAttribute> const &, class CMPXMediaArray &, class TDesC16 const &, class TDesC16 const &, int, int, unsigned int)
	?ExecuteMediaQueryL@CMPXDbTable@@IAEXABV?$TArray@VTMPXAttribute@@@@AAVCMPXMediaArray@@ABVTDesC16@@22@Z @ 57 NONAME ; void CMPXDbTable::ExecuteMediaQueryL(class TArray<class TMPXAttribute> const &, class CMPXMediaArray &, class TDesC16 const &, class TDesC16 const &, class TDesC16 const &)
	?NewLC@CMPXResource@@SAPAV1@ABVTDesC16@@@Z @ 58 NONAME ; class CMPXResource * CMPXResource::NewLC(class TDesC16 const &)
	?RegisterTableL@CMPXDbManager@@QAEXAAVMMPXTable@@@Z @ 59 NONAME ; void CMPXDbManager::RegisterTableL(class MMPXTable &)
	?PrintDatabaseL@CMPXDbManager@@QAEXXZ @ 60 NONAME ; void CMPXDbManager::PrintDatabaseL(void)
	?ExecuteMediaQueryL@CMPXDbTable@@IAEXABV?$TArray@VTMPXAttribute@@@@AAVCMPXMediaArray@@ABVTDesC16@@2H@Z @ 61 NONAME ; void CMPXDbTable::ExecuteMediaQueryL(class TArray<class TMPXAttribute> const &, class CMPXMediaArray &, class TDesC16 const &, class TDesC16 const &, int)
	?RollbackL@CMPXDbManager@@QAEXXZ @ 62 NONAME ; void CMPXDbManager::RollbackL(void)
	?BeginL@CMPXDbManager@@QAEXXZ @ 63 NONAME ; void CMPXDbManager::BeginL(void)
	??0CMPXDbManager@@IAE@AAVRFs@@@Z @ 64 NONAME ; CMPXDbManager::CMPXDbManager(class RFs &)
	?RecreateDatabaseL@CMPXDbManager@@QAEXH@Z @ 65 NONAME ; void CMPXDbManager::RecreateDatabaseL(int)
	?ExecuteIntQueryL@CMPXDbTable@@IAEKABVTDesC16@@K@Z @ 66 NONAME ; unsigned long CMPXDbTable::ExecuteIntQueryL(class TDesC16 const &, unsigned long)
	?RegenerateAllDatabasesL@CMPXDbManager@@QAEXXZ @ 67 NONAME ; void CMPXDbManager::RegenerateAllDatabasesL(void)
	?NewL@CMPXDbActiveTask@@SAPAV1@AAVMMPXDbActiveTaskObserver@@@Z @ 68 NONAME ; class CMPXDbActiveTask * CMPXDbActiveTask::NewL(class MMPXDbActiveTaskObserver &)
	?ExecuteSumQueryL@CMPXDbTable@@IAEHABVTDesC16@@0K0K@Z @ 69 NONAME ; int CMPXDbTable::ExecuteSumQueryL(class TDesC16 const &, class TDesC16 const &, unsigned long, class TDesC16 const &, unsigned long)
	?ReadDesCArrayLC@CMPXResource@@QAEPAVCDesC16ArrayFlat@@H@Z @ 70 NONAME ; class CDesC16ArrayFlat * CMPXResource::ReadDesCArrayLC(int)
	?ExecuteIntQueryL@CMPXDbTable@@IAEKHABVTDesC16@@@Z @ 71 NONAME ; unsigned long CMPXDbTable::ExecuteIntQueryL(int, class TDesC16 const &)
	?AttributeExists@MPXDbCommonUtil@@SAHABV?$TArray@VTMPXAttribute@@@@ABVTMPXAttribute@@@Z @ 72 NONAME ; int MPXDbCommonUtil::AttributeExists(class TArray<class TMPXAttribute> const &, class TMPXAttribute const &)
	?ExecuteMediaQueryL@CMPXDbTable@@IAEXABV?$TArray@VTMPXAttribute@@@@AAVCMPXMediaArray@@ABVTDesC16@@HHI@Z @ 73 NONAME ; void CMPXDbTable::ExecuteMediaQueryL(class TArray<class TMPXAttribute> const &, class CMPXMediaArray &, class TDesC16 const &, int, int, unsigned int)
	?OpenAllDatabasesL@CMPXDbManager@@QAEXXZ @ 74 NONAME ; void CMPXDbManager::OpenAllDatabasesL(void)
	?Release@CMPXResource@@QAEXXZ @ 75 NONAME ; void CMPXResource::Release(void)
	?CopyDBsFromRamL@CMPXDbManager@@QAEXXZ @ 76 NONAME ; void CMPXDbManager::CopyDBsFromRamL(void)
	?ExecuteIntQueryL@CMPXDbTable@@IAEKABVTDesC16@@@Z @ 77 NONAME ; unsigned long CMPXDbTable::ExecuteIntQueryL(class TDesC16 const &)
	?GetVisibleChange@CMPXDbActiveTask@@QAE?AW4TChangeVisibility@1@XZ @ 78 NONAME ; enum CMPXDbActiveTask::TChangeVisibility CMPXDbActiveTask::GetVisibleChange(void)
	?SqlCriterion64LC@MPXDbCommonUtil@@SAPAVHBufC16@@ABVTDesC16@@_J@Z @ 79 NONAME ; class HBufC16 * MPXDbCommonUtil::SqlCriterion64LC(class TDesC16 const &, long long)
	?GetStep@CMPXDbActiveTask@@QAEHXZ @ 80 NONAME ; int CMPXDbActiveTask::GetStep(void)
	?ExecuteIntQueryL@CMPXDbTable@@IAEKABVTDesC16@@0@Z @ 81 NONAME ; unsigned long CMPXDbTable::ExecuteIntQueryL(class TDesC16 const &, class TDesC16 const &)
	?GetVolIdMatchDriveIdL@MPXDbCommonUtil@@SAIAAVRFs@@H@Z @ 82 NONAME ; unsigned int MPXDbCommonUtil::GetVolIdMatchDriveIdL(class RFs &, int)
	?FindItemChangedMessageL@MPXDbCommonUtil@@SAHABVCMPXMediaArray@@ABVCMPXMedia@@@Z @ 83 NONAME ; int MPXDbCommonUtil::FindItemChangedMessageL(class CMPXMediaArray const &, class CMPXMedia const &)
	?IsOpen@CMPXDbManager@@QBEHH@Z @ 84 NONAME ; int CMPXDbManager::IsOpen(int) const
	?PrependMediaL@MPXDbCommonUtil@@SAXAAVCMPXMediaArray@@ABVTDesC16@@W4TMPXGeneralType@@W4TMPXGeneralCategory@@VTMPXItemId@@HIH@Z @ 85 NONAME ; void MPXDbCommonUtil::PrependMediaL(class CMPXMediaArray &, class TDesC16 const &, enum TMPXGeneralType, enum TMPXGeneralCategory, class TMPXItemId, int, unsigned int, int)
	?GetDriveL@MPXDbCommonUtil@@SAHABVTDesC16@@AAVTDriveUnit@@@Z @ 86 NONAME ; int MPXDbCommonUtil::GetDriveL(class TDesC16 const &, class TDriveUnit &)
	?ExecuteMediaQueryL@CMPXDbTable@@IAEXABV?$TArray@VTMPXAttribute@@@@AAVCMPXMediaArray@@HABVTDesC16@@@Z @ 87 NONAME ; void CMPXDbTable::ExecuteMediaQueryL(class TArray<class TMPXAttribute> const &, class CMPXMediaArray &, int, class TDesC16 const &)
	?AddItemChangedMessageL@MPXDbCommonUtil@@SAXAAVCMPXMediaArray@@VTMPXItemId@@W4TMPXChangeEventType@@W4TMPXGeneralCategory@@I1@Z @ 88 NONAME ; void MPXDbCommonUtil::AddItemChangedMessageL(class CMPXMediaArray &, class TMPXItemId, enum TMPXChangeEventType, enum TMPXGeneralCategory, unsigned int, class TMPXItemId)
	?SqlCriterionLC@MPXDbCommonUtil@@SAPAVHBufC16@@ABVTDesC16@@0H0H@Z @ 89 NONAME ; class HBufC16 * MPXDbCommonUtil::SqlCriterionLC(class TDesC16 const &, class TDesC16 const &, int, class TDesC16 const &, int)
	?RunError@CMPXDbActiveTask@@MAEHH@Z @ 90 NONAME ; int CMPXDbActiveTask::RunError(int)
	??0CMPXDbTable@@IAE@AAVCMPXDbManager@@@Z @ 91 NONAME ; CMPXDbTable::CMPXDbTable(class CMPXDbManager &)
	?DoCheckTable@CMPXDbTable@@IAEHAAVRSqlDatabase@@ABVTDesC16@@@Z @ 92 NONAME ; int CMPXDbTable::DoCheckTable(class RSqlDatabase &, class TDesC16 const &)
	?StartL@CMPXDbActiveTask@@QAEXKABVCMPXMedia@@@Z @ 93 NONAME ; void CMPXDbActiveTask::StartL(unsigned long, class CMPXMedia const &)
	?DoCancel@CMPXDbActiveTask@@MAEXXZ @ 94 NONAME ; void CMPXDbActiveTask::DoCancel(void)
	?ExecuteIntQueryL@CMPXDbTable@@IAEKABVTDesC16@@KK@Z @ 95 NONAME ; unsigned long CMPXDbTable::ExecuteIntQueryL(class TDesC16 const &, unsigned long, unsigned long)
	?Fs@CMPXDbManager@@QAEAAVRFs@@XZ @ 96 NONAME ; class RFs & CMPXDbManager::Fs(void)
	?GenerateUniqueIdL@MPXDbCommonUtil@@SAKAAVRFs@@W4TMPXGeneralCategory@@ABVTDesC16@@H@Z @ 97 NONAME ; unsigned long MPXDbCommonUtil::GenerateUniqueIdL(class RFs &, enum TMPXGeneralCategory, class TDesC16 const &, int)
	?DeleteFile@MPXDbCommonUtil@@SAHAAVRFs@@ABVTDesC16@@@Z @ 98 NONAME ; int MPXDbCommonUtil::DeleteFile(class RFs &, class TDesC16 const &)
	?ExecuteSumQueryL@CMPXDbTable@@IAEHABVTDesC16@@00@Z @ 99 NONAME ; int CMPXDbTable::ExecuteSumQueryL(class TDesC16 const &, class TDesC16 const &, class TDesC16 const &)
	?ExecuteSelectQueryOnAllDrivesL@CMPXDbManager@@QAA?AVRSqlStatement@@HV?$TRefByValue@$$CBVTDesC16@@@@ZZ @ 100 NONAME ; class RSqlStatement CMPXDbManager::ExecuteSelectQueryOnAllDrivesL(int, class TRefByValue<class TDesC16 const >, ...)
	?ReadMenuArrayL@CMPXResource@@QAEPAVCDesC16ArrayFlat@@HAAV?$RArray@H@@@Z @ 101 NONAME ; class CDesC16ArrayFlat * CMPXResource::ReadMenuArrayL(int, class RArray<int> &)
	?SqlCriterionLC@MPXDbCommonUtil@@SAPAVHBufC16@@ABVTDesC16@@H@Z @ 102 NONAME ; class HBufC16 * MPXDbCommonUtil::SqlCriterionLC(class TDesC16 const &, int)
	?GetDriveIdMatchVolIdL@MPXDbCommonUtil@@SAHAAVRFs@@I@Z @ 103 NONAME ; int MPXDbCommonUtil::GetDriveIdMatchVolIdL(class RFs &, unsigned int)
	?BaseConstructL@CMPXDbTable@@IAEXXZ @ 104 NONAME ; void CMPXDbTable::BaseConstructL(void)
	?SetHBuf@MPXDbCommonUtil@@SAHAAPAVHBufC16@@PBVTDesC16@@H@Z @ 105 NONAME ; int MPXDbCommonUtil::SetHBuf(class HBufC16 * &, class TDesC16 const *, int)
	?FindAndReplaceSingleQuote@MPXDbCommonUtil@@SAXABVTDesC16@@AAVTDes16@@@Z @ 106 NONAME ; void MPXDbCommonUtil::FindAndReplaceSingleQuote(class TDesC16 const &, class TDes16 &)
	?SqlCriterionLC@MPXDbCommonUtil@@SAPAVHBufC16@@ABVTDesC16@@00@Z @ 107 NONAME ; class HBufC16 * MPXDbCommonUtil::SqlCriterionLC(class TDesC16 const &, class TDesC16 const &, class TDesC16 const &)
	?ExecuteMediaQueryL@CMPXDbTable@@IAEXABV?$TArray@VTMPXAttribute@@@@AAVCMPXMedia@@ABVTDesC16@@H@Z @ 108 NONAME ; void CMPXDbTable::ExecuteMediaQueryL(class TArray<class TMPXAttribute> const &, class CMPXMedia &, class TDesC16 const &, int)
	?CurrentTimeDesLC@MPXDbCommonUtil@@SAPAVHBufC16@@XZ @ 109 NONAME ; class HBufC16 * MPXDbCommonUtil::CurrentTimeDesLC(void)
	?AddSqlCriterionL@MPXDbCommonUtil@@SAHAAVCDesC16Array@@ABVTDesC16@@H@Z @ 110 NONAME ; int MPXDbCommonUtil::AddSqlCriterionL(class CDesC16Array &, class TDesC16 const &, int)
	?ExecuteSumQueryL@CMPXDbTable@@IAEHABVTDesC16@@KKK@Z @ 111 NONAME ; int CMPXDbTable::ExecuteSumQueryL(class TDesC16 const &, unsigned long, unsigned long, unsigned long)
	?InTransaction@CMPXDbManager@@QAEHXZ @ 112 NONAME ; int CMPXDbManager::InTransaction(void)
	?DatabaseCount@CMPXDbManager@@QBEHXZ @ 113 NONAME ; int CMPXDbManager::DatabaseCount(void) const
	?ExecuteMediaQueryL@CMPXDbTable@@IAEXHABV?$TArray@VTMPXAttribute@@@@AAVCMPXMediaArray@@ABVTDesC16@@H@Z @ 114 NONAME ; void CMPXDbTable::ExecuteMediaQueryL(int, class TArray<class TMPXAttribute> const &, class CMPXMediaArray &, class TDesC16 const &, int)
	?ExecuteSumExQueryL@CMPXDbTable@@IAEHABVTDesC16@@KH@Z @ 115 NONAME ; int CMPXDbTable::ExecuteSumExQueryL(class TDesC16 const &, unsigned long, int)
	?CheckDiskSpaceL@CMPXDbManager@@QAEXH@Z @ 116 NONAME ; void CMPXDbManager::CheckDiskSpaceL(int)
	?ProcessPatternCharsLC@MPXDbCommonUtil@@SAPAVHBufC16@@ABVTDesC16@@@Z @ 117 NONAME ; class HBufC16 * MPXDbCommonUtil::ProcessPatternCharsLC(class TDesC16 const &)
	?GetColumnTextL@MPXDbCommonUtil@@SA?AVTPtrC16@@AAVRSqlStatement@@H@Z @ 118 NONAME ; class TPtrC16 MPXDbCommonUtil::GetColumnTextL(class RSqlStatement &, int)
	?ExecuteSumQueryL@CMPXDbTable@@IAEHABVTDesC16@@K@Z @ 119 NONAME ; int CMPXDbTable::ExecuteSumQueryL(class TDesC16 const &, unsigned long)
	?CloseAllDatabases@CMPXDbManager@@QAEXXZ @ 120 NONAME ; void CMPXDbManager::CloseAllDatabases(void)
	?ExecuteMediaQueryL@CMPXDbTable@@IAEXABV?$TArray@VTMPXAttribute@@@@AAVCMPXMediaArray@@ABVTDesC16@@2H2H@Z @ 121 NONAME ; void CMPXDbTable::ExecuteMediaQueryL(class TArray<class TMPXAttribute> const &, class CMPXMediaArray &, class TDesC16 const &, class TDesC16 const &, int, class TDesC16 const &, int)
	?FillItemChangedMessageL@MPXDbCommonUtil@@SAXAAVCMPXMedia@@VTMPXItemId@@W4TMPXChangeEventType@@W4TMPXGeneralCategory@@I1@Z @ 122 NONAME ; void MPXDbCommonUtil::FillItemChangedMessageL(class CMPXMedia &, class TMPXItemId, enum TMPXChangeEventType, enum TMPXGeneralCategory, unsigned int, class TMPXItemId)
	?Version@CMPXDbManager@@QBE?AVTVersion@@XZ @ 123 NONAME ; class TVersion CMPXDbManager::Version(void) const
	?IsRemoteDrive@CMPXDbManager@@QAEHW4TDriveNumber@@@Z @ 124 NONAME ; int CMPXDbManager::IsRemoteDrive(enum TDriveNumber)
	?ExecuteSumQueryL@CMPXDbTable@@IAEHABVTDesC16@@@Z @ 125 NONAME ; int CMPXDbTable::ExecuteSumQueryL(class TDesC16 const &)
	?ExecuteSumQueryL@CMPXDbTable@@IAEHABVTDesC16@@KK@Z @ 126 NONAME ; int CMPXDbTable::ExecuteSumQueryL(class TDesC16 const &, unsigned long, unsigned long)
	?AddItemAlbumChangedMessageL@MPXDbCommonUtil@@SAXAAVCMPXMediaArray@@VTMPXItemId@@W4TMPXChangeEventType@@W4TMPXGeneralCategory@@IH1@Z @ 127 NONAME ; void MPXDbCommonUtil::AddItemAlbumChangedMessageL(class CMPXMediaArray &, class TMPXItemId, enum TMPXChangeEventType, enum TMPXGeneralCategory, unsigned int, int, class TMPXItemId)

