EXPORTS
	?absoluteMaxSmsCharactersL@UniEditorGenUtils@@AAEHXZ @ 1 NONAME ; int UniEditorGenUtils::absoluteMaxSmsCharactersL(void)
	??0UniEditorGenUtils@@QAE@XZ @ 2 NONAME ; UniEditorGenUtils::UniEditorGenUtils(void)
	??0CMuiuOperationWait@@IAE@H@Z @ 3 NONAME ; CMuiuOperationWait::CMuiuOperationWait(int)
	?IsValidDomain@UniEditorGenUtils@@AAEHABVTDesC16@@@Z @ 4 NONAME ; int UniEditorGenUtils::IsValidDomain(class TDesC16 const &)
	?MaxSmsRecipientsL@UniEditorGenUtils@@QAEHXZ @ 5 NONAME ; int UniEditorGenUtils::MaxSmsRecipientsL(void)
	?Start@CMuiuOperationWait@@QAEXXZ @ 6 NONAME ; void CMuiuOperationWait::Start(void)
	?getSmsCharacterLimits@UniEditorGenUtils@@AAEXAAH0_N@Z @ 7 NONAME ; void UniEditorGenUtils::getSmsCharacterLimits(int &, int &, bool)
	?MaxSmsMsgSizeL@UniEditorGenUtils@@QAEH_N@Z @ 8 NONAME ; int UniEditorGenUtils::MaxSmsMsgSizeL(bool)
	?DoCancel@CMuiuOperationWait@@MAEXXZ @ 9 NONAME ; void CMuiuOperationWait::DoCancel(void)
	?MaxMmsMsgSizeL@UniEditorGenUtils@@QAEHXZ @ 10 NONAME ; int UniEditorGenUtils::MaxMmsMsgSizeL(void)
	??_ECMuiuOperationWait@@UAE@I@Z @ 11 NONAME ; CMuiuOperationWait::~CMuiuOperationWait(unsigned int)
	??_EUniEditorGenUtils@@UAE@I@Z @ 12 NONAME ; UniEditorGenUtils::~UniEditorGenUtils(unsigned int)
	?ReplaceCharacters@UniEditorGenUtils@@QAEXAAVTDes16@@ABVTDesC16@@VTChar@@@Z @ 13 NONAME ; void UniEditorGenUtils::ReplaceCharacters(class TDes16 &, class TDesC16 const &, class TChar)
	?NumberToBase@UniEditorGenUtils@@QAE?AVTChar@@V2@@Z @ 14 NONAME ; class TChar UniEditorGenUtils::NumberToBase(class TChar)
	?IsValidEmailAddress@UniEditorGenUtils@@QAEHABVTDesC16@@@Z @ 15 NONAME ; int UniEditorGenUtils::IsValidEmailAddress(class TDesC16 const &)
	?ConvertDigitsTo@UniEditorGenUtils@@QAEXAAVTDes16@@W4TDigitType@@@Z @ 16 NONAME ; void UniEditorGenUtils::ConvertDigitsTo(class TDes16 &, enum TDigitType)
	?NewLC@CMuiuOperationWait@@SAPAV1@H@Z @ 17 NONAME ; class CMuiuOperationWait * CMuiuOperationWait::NewLC(int)
	?RunL@CMuiuOperationWait@@MAEXXZ @ 18 NONAME ; void CMuiuOperationWait::RunL(void)
	?getFileInfoL@UniEditorGenUtils@@QAEXVQString@@AAHAAV2@AAW4TMsgMediaType@@@Z @ 19 NONAME ; void UniEditorGenUtils::getFileInfoL(class QString, int &, class QString &, enum TMsgMediaType &)
	?MatchPhoneNumberL@UniEditorGenUtils@@QAEHAAVTDesC16@@0@Z @ 20 NONAME ; int UniEditorGenUtils::MatchPhoneNumberL(class TDesC16 &, class TDesC16 &)
	??1UniEditorGenUtils@@UAE@XZ @ 21 NONAME ; UniEditorGenUtils::~UniEditorGenUtils(void)
	?MaxMmsRecipientsL@UniEditorGenUtils@@QAEHXZ @ 22 NONAME ; int UniEditorGenUtils::MaxMmsRecipientsL(void)
	??1CMuiuOperationWait@@UAE@XZ @ 23 NONAME ; CMuiuOperationWait::~CMuiuOperationWait(void)
	?VerifyEmailAddressesL@UniEditorGenUtils@@QAEHV?$QList@PAVConvergedMessageAddress@@@@@Z @ 24 NONAME ; int UniEditorGenUtils::VerifyEmailAddressesL(class QList<class ConvergedMessageAddress *>)
	?WriteEmailOverSmsSettingsL@UniEditorGenUtils@@QAEHABVTDes16@@0ABH@Z @ 25 NONAME ; int UniEditorGenUtils::WriteEmailOverSmsSettingsL(class TDes16 const &, class TDes16 const &, int const &)
	?ReadEmailOverSmsSettingsL@UniEditorGenUtils@@QAEHAAVTDes16@@0AAH@Z @ 26 NONAME ; int UniEditorGenUtils::ReadEmailOverSmsSettingsL(class TDes16 &, class TDes16 &, int &)
	?absoluteMaxSmsPartsL@UniEditorGenUtils@@AAEHXZ @ 27 NONAME ; int UniEditorGenUtils::absoluteMaxSmsPartsL(void)
	?UTF8Size@UniEditorGenUtils@@QAEHVQString@@@Z @ 28 NONAME ; int UniEditorGenUtils::UTF8Size(class QString)
	?IsPhoneOfflineL@UniEditorGenUtils@@QAEHXZ @ 29 NONAME ; int UniEditorGenUtils::IsPhoneOfflineL(void)
	?AcceptEmailAddressesL@UniEditorGenUtils@@QAEHXZ @ 30 NONAME ; int UniEditorGenUtils::AcceptEmailAddressesL(void)

