EXPORTS
	_ZN17CImagePrintEngine13RestartEngineEv @ 1 NONAME
	_ZN17CImagePrintEngine14SetImageArrayLEP16CDesC16ArrayFlat @ 2 NONAME
	_ZN17CImagePrintEngine16InterfaceFactoryEv @ 3 NONAME
	_ZN17CImagePrintEngine4NewLEP16CDesC16ArrayFlat @ 4 NONAME
	_ZN17CImagePrintEngine5NewLCEP16CDesC16ArrayFlat @ 5 NONAME
	_ZN17CImagePrintEngine9FileArrayEv @ 6 NONAME
	_ZTI10CIFFactory @ 7 NONAME ; #<TI>#
	_ZTI11CImagePrint @ 8 NONAME ; #<TI>#
	_ZTI12CPreviewInfo @ 9 NONAME ; #<TI>#
	_ZTI12CRealFactory @ 10 NONAME ; #<TI>#
	_ZTI13CTemplateData @ 11 NONAME ; #<TI>#
	_ZTI14CPrintSettings @ 12 NONAME ; #<TI>#
	_ZTI15CListCapability @ 13 NONAME ; #<TI>#
	_ZTI15CTIntCapability @ 14 NONAME ; #<TI>#
	_ZTI16CFloatCapability @ 15 NONAME ; #<TI>#
	_ZTI16CPrintJobManager @ 16 NONAME ; #<TI>#
	_ZTI16CSettingsManager @ 17 NONAME ; #<TI>#
	_ZTI17CDiscoveryManager @ 18 NONAME ; #<TI>#
	_ZTI17CImagePrintEngine @ 19 NONAME ; #<TI>#
	_ZTI17CTemplateSettings @ 20 NONAME ; #<TI>#
	_ZTI18CPrintEventCatcher @ 21 NONAME ; #<TI>#
	_ZTI22CIdlePrintEventCatcher @ 22 NONAME ; #<TI>#
	_ZTV10CIFFactory @ 23 NONAME ; #<VT>#
	_ZTV11CImagePrint @ 24 NONAME ; #<VT>#
	_ZTV12CPreviewInfo @ 25 NONAME ; #<VT>#
	_ZTV12CRealFactory @ 26 NONAME ; #<VT>#
	_ZTV13CTemplateData @ 27 NONAME ; #<VT>#
	_ZTV14CPrintSettings @ 28 NONAME ; #<VT>#
	_ZTV15CListCapability @ 29 NONAME ; #<VT>#
	_ZTV15CTIntCapability @ 30 NONAME ; #<VT>#
	_ZTV16CFloatCapability @ 31 NONAME ; #<VT>#
	_ZTV16CPrintJobManager @ 32 NONAME ; #<VT>#
	_ZTV16CSettingsManager @ 33 NONAME ; #<VT>#
	_ZTV17CDiscoveryManager @ 34 NONAME ; #<VT>#
	_ZTV17CImagePrintEngine @ 35 NONAME ; #<VT>#
	_ZTV17CTemplateSettings @ 36 NONAME ; #<VT>#
	_ZTV18CPrintEventCatcher @ 37 NONAME ; #<VT>#
	_ZTV22CIdlePrintEventCatcher @ 38 NONAME ; #<VT>#

