EXPORTS
	_ZN13UnifiedViewer11isForwardOkEv @ 1 NONAME
	_ZN13UnifiedViewer11qt_metacallEN11QMetaObject4CallEiPPv @ 2 NONAME
	_ZN13UnifiedViewer11qt_metacastEPKc @ 3 NONAME
	_ZN13UnifiedViewer11resizeEventEP25QGraphicsSceneResizeEvent @ 4 NONAME
	_ZN13UnifiedViewer11sendMessageERK7QStringS2_ @ 5 NONAME
	_ZN13UnifiedViewer12clearContentEv @ 6 NONAME
	_ZN13UnifiedViewer12launchEditorEN11MsgBaseView18UniEditorOperationE @ 7 NONAME
	_ZN13UnifiedViewer13createToolBarEv @ 8 NONAME
	_ZN13UnifiedViewer14handleKeyEventEi @ 9 NONAME
	_ZN13UnifiedViewer15handleFwdActionEv @ 10 NONAME
	_ZN13UnifiedViewer15populateContentEibix @ 11 NONAME
	_ZN13UnifiedViewer16staticMetaObjectE @ 12 NONAME DATA 16
	_ZN13UnifiedViewer17handleReplyActionEv @ 13 NONAME
	_ZN13UnifiedViewer17onDialogDeleteMsgEi @ 14 NONAME
	_ZN13UnifiedViewer18handleDeleteActionEv @ 15 NONAME
	_ZN13UnifiedViewer19getStaticMetaObjectEv @ 16 NONAME
	_ZN13UnifiedViewer20handleReplyAllActionEv @ 17 NONAME
	_ZN13UnifiedViewer4callERK7QString @ 18 NONAME
	_ZN13UnifiedViewerC1EiP13QGraphicsItem @ 19 NONAME
	_ZN13UnifiedViewerC2EiP13QGraphicsItem @ 20 NONAME
	_ZN13UnifiedViewerD0Ev @ 21 NONAME
	_ZN13UnifiedViewerD1Ev @ 22 NONAME
	_ZN13UnifiedViewerD2Ev @ 23 NONAME
	_ZNK13UnifiedViewer10metaObjectEv @ 24 NONAME
	_ZTI13UnifiedViewer @ 25 NONAME
	_ZTV13UnifiedViewer @ 26 NONAME
	_ZThn16_N13UnifiedViewerD0Ev @ 27 NONAME
	_ZThn16_N13UnifiedViewerD1Ev @ 28 NONAME
	_ZThn8_N13UnifiedViewerD0Ev @ 29 NONAME
	_ZThn8_N13UnifiedViewerD1Ev @ 30 NONAME

