EXPORTS
	_ZN18CUniImageProcessor11ScaleImageLEP10CFbsBitmapR5RFileRK5TSizeRK6TDesC8i @ 1 NONAME
	_ZN18CUniImageProcessor11ScaleImageLEP10CFbsBitmapS1_i @ 2 NONAME
	_ZN18CUniImageProcessor11ScaleImageLER5RFileRP10CFbsBitmapS4_R5TSizei @ 3 NONAME
	_ZN18CUniImageProcessor13ProcessImageLER5RFileS1_R5TSizeRK6TDesC8ii @ 4 NONAME
	_ZN18CUniImageProcessor5ResetEv @ 5 NONAME
	_ZN18CUniImageProcessorC1EP26MUniImageProcessorCallback @ 6 NONAME
	_ZN18CUniImageProcessorC2EP26MUniImageProcessorCallback @ 7 NONAME
	_ZN20MsgUnifiedEditorView10addSubjectEv @ 8 NONAME
	_ZN20MsgUnifiedEditorView10addToolBarEv @ 9 NONAME
	_ZN20MsgUnifiedEditorView10fetchAudioEv @ 10 NONAME
	_ZN20MsgUnifiedEditorView10hideChromeEb @ 11 NONAME
	_ZN20MsgUnifiedEditorView11fetchImagesEv @ 12 NONAME
	_ZN20MsgUnifiedEditorView11packMessageER16ConvergedMessageb @ 13 NONAME
	_ZN20MsgUnifiedEditorView11qt_metacallEN11QMetaObject4CallEiPPv @ 14 NONAME
	_ZN20MsgUnifiedEditorView11qt_metacastEPKc @ 15 NONAME
	_ZN20MsgUnifiedEditorView11resizeEventEP25QGraphicsSceneResizeEvent @ 16 NONAME
	_ZN20MsgUnifiedEditorView12createVCardsERK8QVariantR11QStringList @ 17 NONAME
	_ZN20MsgUnifiedEditorView13addAttachmentERK7QString @ 18 NONAME
	_ZN20MsgUnifiedEditorView13deleteMessageEv @ 19 NONAME
	_ZN20MsgUnifiedEditorView13fetchContactsEv @ 20 NONAME
	_ZN20MsgUnifiedEditorView13imagesFetchedERK8QVariant @ 21 NONAME
	_ZN20MsgUnifiedEditorView14addAttachmentsE11QStringList @ 22 NONAME
	_ZN20MsgUnifiedEditorView14changePriorityEv @ 23 NONAME
	_ZN20MsgUnifiedEditorView14handleKeyEventEi @ 24 NONAME
	_ZN20MsgUnifiedEditorView14vkbAboutToOpenEv @ 25 NONAME
	_ZN20MsgUnifiedEditorView15contactsFetchedERK8QVariant @ 26 NONAME
	_ZN20MsgUnifiedEditorView15formatAddressesER5QListIP23ConvergedMessageAddressE @ 27 NONAME
	_ZN20MsgUnifiedEditorView15onAudioSelectedER7QString @ 28 NONAME
	_ZN20MsgUnifiedEditorView15populateContentERK5QListI8QVariantE @ 29 NONAME
	_ZN20MsgUnifiedEditorView15vkbAboutToCloseEv @ 30 NONAME
	_ZN20MsgUnifiedEditorView16createTempFolderEv @ 31 NONAME
	_ZN20MsgUnifiedEditorView16enableSendButtonEb @ 32 NONAME
	_ZN20MsgUnifiedEditorView16generateFileNameER7QString @ 33 NONAME
	_ZN20MsgUnifiedEditorView16onContentChangedEv @ 34 NONAME
	_ZN20MsgUnifiedEditorView16removeTempFolderEv @ 35 NONAME
	_ZN20MsgUnifiedEditorView16staticMetaObjectE @ 36 NONAME DATA 16
	_ZN20MsgUnifiedEditorView17isReplyPathBrokenEv @ 37 NONAME
	_ZN20MsgUnifiedEditorView17onDialogDeleteMsgEP8HbAction @ 38 NONAME
	_ZN20MsgUnifiedEditorView17openDraftsMessageERK5QListI8QVariantE @ 39 NONAME
	_ZN20MsgUnifiedEditorView19getStaticMetaObjectEv @ 40 NONAME
	_ZN20MsgUnifiedEditorView19onDialogMmsSettingsEP8HbAction @ 41 NONAME
	_ZN20MsgUnifiedEditorView19onDialogSmsSettingsEP8HbAction @ 42 NONAME
	_ZN20MsgUnifiedEditorView19saveContentToDraftsEv @ 43 NONAME
	_ZN20MsgUnifiedEditorView19serviceRequestErrorEiRK7QString @ 44 NONAME
	_ZN20MsgUnifiedEditorView20activateInputBlockerEv @ 45 NONAME
	_ZN20MsgUnifiedEditorView21doDelayedConstructionEv @ 46 NONAME
	_ZN20MsgUnifiedEditorView21fetchMessageFromStoreER18ConvergedMessageIdN16ConvergedMessage11MessageTypeEi @ 47 NONAME
	_ZN20MsgUnifiedEditorView22deactivateInputBlockerEv @ 48 NONAME
	_ZN20MsgUnifiedEditorView22setAttachOptionEnabledENS_16TBE_AttachOptionEb @ 49 NONAME
	_ZN20MsgUnifiedEditorView23handleViewExtnActivatedEP16HbListWidgetItem @ 50 NONAME
	_ZN20MsgUnifiedEditorView25populateContentIntoEditorERK16ConvergedMessageb @ 51 NONAME
	_ZN20MsgUnifiedEditorView25removeAttachmentContainerEv @ 52 NONAME
	_ZN20MsgUnifiedEditorView25updateOtherRecipientCountEb @ 53 NONAME
	_ZN20MsgUnifiedEditorView4sendEv @ 54 NONAME
	_ZN20MsgUnifiedEditorView7addMenuEv @ 55 NONAME
	_ZN20MsgUnifiedEditorView8addCcBccEv @ 56 NONAME
	_ZN20MsgUnifiedEditorView8initViewEv @ 57 NONAME
	_ZN20MsgUnifiedEditorView8setFocusEP26MsgUnifiedEditorBaseWidget @ 58 NONAME
	_ZN20MsgUnifiedEditorView9vkbClosedEv @ 59 NONAME
	_ZN20MsgUnifiedEditorView9vkbOpenedEv @ 60 NONAME
	_ZN20MsgUnifiedEditorViewC1EP13QGraphicsItem @ 61 NONAME
	_ZN20MsgUnifiedEditorViewC2EP13QGraphicsItem @ 62 NONAME
	_ZN20MsgUnifiedEditorViewD0Ev @ 63 NONAME
	_ZN20MsgUnifiedEditorViewD1Ev @ 64 NONAME
	_ZN20MsgUnifiedEditorViewD2Ev @ 65 NONAME
	_ZNK20MsgUnifiedEditorView10metaObjectEv @ 66 NONAME
	_ZTI20MsgUnifiedEditorView @ 67 NONAME
	_ZTV20MsgUnifiedEditorView @ 68 NONAME
	_ZThn16_N20MsgUnifiedEditorViewD0Ev @ 69 NONAME
	_ZThn16_N20MsgUnifiedEditorViewD1Ev @ 70 NONAME
	_ZThn8_N20MsgUnifiedEditorViewD0Ev @ 71 NONAME
	_ZThn8_N20MsgUnifiedEditorViewD1Ev @ 72 NONAME

