EXPORTS
	_ZN13BubbleManager10endChangesEv @ 1 NONAME
	_ZN13BubbleManager10selectViewEv @ 2 NONAME
	_ZN13BubbleManager11addToLayoutEP15QGraphicsWidget @ 3 NONAME
	_ZN13BubbleManager11polishEventEv @ 4 NONAME
	_ZN13BubbleManager11qt_metacallEN11QMetaObject4CallEiPPv @ 5 NONAME
	_ZN13BubbleManager11qt_metacastEPKc @ 6 NONAME
	_ZN13BubbleManager11setCallFlagEi6QFlagsIN15BubbleManagerIF13PhoneCallFlagEEb @ 7 NONAME
	_ZN13BubbleManager11setCallTimeEiRK7QString @ 8 NONAME
	_ZN13BubbleManager11setViewDataEP15QGraphicsWidget @ 9 NONAME
	_ZN13BubbleManager12clearActionsEi @ 10 NONAME
	_ZN13BubbleManager12setCallFlagsEii @ 11 NONAME
	_ZN13BubbleManager12showExpandedEi @ 12 NONAME
	_ZN13BubbleManager12startChangesEv @ 13 NONAME
	_ZN13BubbleManager13setNumberTypeEiN15BubbleManagerIF15PhoneNumberTypeE @ 14 NONAME
	_ZN13BubbleManager13setPhoneMutedEb @ 15 NONAME
	_ZN13BubbleManager14connectSignalsEP15QGraphicsWidget @ 16 NONAME
	_ZN13BubbleManager14updateCallTimeEiRK7QString @ 17 NONAME
	_ZN13BubbleManager15setExpandActionEiP8HbAction @ 18 NONAME
	_ZN13BubbleManager15setSecondaryCliEiRK7QStringN2Qt13TextElideModeE @ 19 NONAME
	_ZN13BubbleManager16createCallHeaderEv @ 20 NONAME
	_ZN13BubbleManager16createConferenceEii @ 21 NONAME
	_ZN13BubbleManager16findActiveHeaderEiRP12BubbleHeader @ 22 NONAME
	_ZN13BubbleManager16removeCallHeaderEi @ 23 NONAME
	_ZN13BubbleManager16removeConferenceEv @ 24 NONAME
	_ZN13BubbleManager16removeFromLayoutEP15QGraphicsWidget @ 25 NONAME
	_ZN13BubbleManager16staticMetaObjectE @ 26 NONAME DATA 16
	_ZN13BubbleManager18addRowToConferenceEi @ 27 NONAME
	_ZN13BubbleManager18setCallObjectImageEiRK7QString @ 28 NONAME
	_ZN13BubbleManager19getStaticMetaObjectEv @ 29 NONAME
	_ZN13BubbleManager21setParticipantListCliEiN15BubbleManagerIF18ParticipantListCliE @ 30 NONAME
	_ZN13BubbleManager22setCallObjectFromThemeEi @ 31 NONAME
	_ZN13BubbleManager23handleOrientationChangeEN2Qt11OrientationE @ 32 NONAME
	_ZN13BubbleManager23removeRowFromConferenceEi @ 33 NONAME
	_ZN13BubbleManager24addParticipantListActionEP8HbAction @ 34 NONAME
	_ZN13BubbleManager24setSelectionInConferenceEi @ 35 NONAME
	_ZN13BubbleManager26setBubbleSelectionDisabledEb @ 36 NONAME
	_ZN13BubbleManager26setSelectionIdInConferenceEi @ 37 NONAME
	_ZN13BubbleManager27clearParticipantListActionsEv @ 38 NONAME
	_ZN13BubbleManager30moveHighlightOneUpInConferenceEv @ 39 NONAME
	_ZN13BubbleManager31setExpandedConferenceCallHeaderEb @ 40 NONAME
	_ZN13BubbleManager32moveHighlightOneDownInConferenceEv @ 41 NONAME
	_ZN13BubbleManager6setCliEiRK7QStringN2Qt13TextElideModeE @ 42 NONAME
	_ZN13BubbleManager8setLabelEiRK7QStringN2Qt13TextElideModeE @ 43 NONAME
	_ZN13BubbleManager8setStateEiN15BubbleManagerIF14PhoneCallStateE @ 44 NONAME
	_ZN13BubbleManager9addActionEiP8HbAction @ 45 NONAME
	_ZN13BubbleManager9updateCLIEiRK7QStringN2Qt13TextElideModeE @ 46 NONAME
	_ZN13BubbleManagerC1EP13QGraphicsItem @ 47 NONAME
	_ZN13BubbleManagerC2EP13QGraphicsItem @ 48 NONAME
	_ZN13BubbleManagerD0Ev @ 49 NONAME
	_ZN13BubbleManagerD1Ev @ 50 NONAME
	_ZN13BubbleManagerD2Ev @ 51 NONAME
	_ZNK13BubbleManager10metaObjectEv @ 52 NONAME
	_ZNK13BubbleManager14expandedBubbleEv @ 53 NONAME
	_ZNK13BubbleManager16shownHeaderCountEv @ 54 NONAME
	_ZNK13BubbleManager18conferenceRowCountEv @ 55 NONAME
	_ZNK13BubbleManager20isConferenceExpandedEv @ 56 NONAME
	_ZNK13BubbleManager21selectionInConferenceEv @ 57 NONAME
	_ZNK13BubbleManager22findNextDrawableHeaderERi @ 58 NONAME
	_ZNK13BubbleManager23graphicsWidgetForActionEP8HbAction @ 59 NONAME
	_ZNK13BubbleManager23selectionIdInConferenceEv @ 60 NONAME
	_ZTI13BubbleManager @ 61 NONAME
	_ZTV13BubbleManager @ 62 NONAME
	_ZThn16_N13BubbleManagerD0Ev @ 63 NONAME
	_ZThn16_N13BubbleManagerD1Ev @ 64 NONAME
	_ZThn28_N13BubbleManager10endChangesEv @ 65 NONAME
	_ZThn28_N13BubbleManager11setCallFlagEi6QFlagsIN15BubbleManagerIF13PhoneCallFlagEEb @ 66 NONAME
	_ZThn28_N13BubbleManager11setCallTimeEiRK7QString @ 67 NONAME
	_ZThn28_N13BubbleManager12clearActionsEi @ 68 NONAME
	_ZThn28_N13BubbleManager12setCallFlagsEii @ 69 NONAME
	_ZThn28_N13BubbleManager12startChangesEv @ 70 NONAME
	_ZThn28_N13BubbleManager13setNumberTypeEiN15BubbleManagerIF15PhoneNumberTypeE @ 71 NONAME
	_ZThn28_N13BubbleManager13setPhoneMutedEb @ 72 NONAME
	_ZThn28_N13BubbleManager14updateCallTimeEiRK7QString @ 73 NONAME
	_ZThn28_N13BubbleManager15setExpandActionEiP8HbAction @ 74 NONAME
	_ZThn28_N13BubbleManager15setSecondaryCliEiRK7QStringN2Qt13TextElideModeE @ 75 NONAME
	_ZThn28_N13BubbleManager16createCallHeaderEv @ 76 NONAME
	_ZThn28_N13BubbleManager16createConferenceEii @ 77 NONAME
	_ZThn28_N13BubbleManager16removeCallHeaderEi @ 78 NONAME
	_ZThn28_N13BubbleManager16removeConferenceEv @ 79 NONAME
	_ZThn28_N13BubbleManager18addRowToConferenceEi @ 80 NONAME
	_ZThn28_N13BubbleManager18setCallObjectImageEiRK7QString @ 81 NONAME
	_ZThn28_N13BubbleManager21setParticipantListCliEiN15BubbleManagerIF18ParticipantListCliE @ 82 NONAME
	_ZThn28_N13BubbleManager22setCallObjectFromThemeEi @ 83 NONAME
	_ZThn28_N13BubbleManager23removeRowFromConferenceEi @ 84 NONAME
	_ZThn28_N13BubbleManager24addParticipantListActionEP8HbAction @ 85 NONAME
	_ZThn28_N13BubbleManager24setSelectionInConferenceEi @ 86 NONAME
	_ZThn28_N13BubbleManager26setBubbleSelectionDisabledEb @ 87 NONAME
	_ZThn28_N13BubbleManager26setSelectionIdInConferenceEi @ 88 NONAME
	_ZThn28_N13BubbleManager27clearParticipantListActionsEv @ 89 NONAME
	_ZThn28_N13BubbleManager30moveHighlightOneUpInConferenceEv @ 90 NONAME
	_ZThn28_N13BubbleManager31setExpandedConferenceCallHeaderEb @ 91 NONAME
	_ZThn28_N13BubbleManager32moveHighlightOneDownInConferenceEv @ 92 NONAME
	_ZThn28_N13BubbleManager6setCliEiRK7QStringN2Qt13TextElideModeE @ 93 NONAME
	_ZThn28_N13BubbleManager8setLabelEiRK7QStringN2Qt13TextElideModeE @ 94 NONAME
	_ZThn28_N13BubbleManager8setStateEiN15BubbleManagerIF14PhoneCallStateE @ 95 NONAME
	_ZThn28_N13BubbleManager9addActionEiP8HbAction @ 96 NONAME
	_ZThn28_N13BubbleManager9updateCLIEiRK7QStringN2Qt13TextElideModeE @ 97 NONAME
	_ZThn28_NK13BubbleManager14expandedBubbleEv @ 98 NONAME
	_ZThn28_NK13BubbleManager16shownHeaderCountEv @ 99 NONAME
	_ZThn28_NK13BubbleManager18conferenceRowCountEv @ 100 NONAME
	_ZThn28_NK13BubbleManager20isConferenceExpandedEv @ 101 NONAME
	_ZThn28_NK13BubbleManager21selectionInConferenceEv @ 102 NONAME
	_ZThn28_NK13BubbleManager23graphicsWidgetForActionEP8HbAction @ 103 NONAME
	_ZThn28_NK13BubbleManager23selectionIdInConferenceEv @ 104 NONAME
	_ZThn8_N13BubbleManagerD0Ev @ 105 NONAME
	_ZThn8_N13BubbleManagerD1Ev @ 106 NONAME
	_ZN13BubbleManager21releaseImageIfNotUsedERK7QString @ 107 NONAME
	_ZN13BubbleManager21releaseNonCachedViewsEv @ 108 NONAME

