EXPORTS
	?MarkSessionStart@CIRReportGenerator@@QAEXXZ @ 1  NONAME ; void CIRReportGenerator::MarkSessionStart(void)
	?BrowseUrl@CIRReportGenerator@@QAEXABVTDesC16@@H@Z @ 2  NONAME ; void CIRReportGenerator::BrowseUrl(class TDesC16 const &, int)
	?LogServerResult@CIRReportGenerator@@QAEXABVTDesC16@@W4TResponse@@@Z @ 3  NONAME ; void CIRReportGenerator::LogServerResult(class TDesC16 const &, enum TResponse)
	?UpdateNmsChannelID@CIRReportGenerator@@QAEXH@Z @ 4  NONAME ; void CIRReportGenerator::UpdateNmsChannelID(int)
	?LogSongRecog@CIRReportGenerator@@QAEXXZ @ 5  NONAME ; void CIRReportGenerator::LogSongRecog(void)
	?UpdateConnectionType@CIRReportGenerator@@QAEXABVTDesC16@@@Z @ 6  NONAME ; void CIRReportGenerator::UpdateConnectionType(class TDesC16 const &)
	?UpdateNmsType@CIRReportGenerator@@QAEXABVTDesC16@@@Z @ 7  NONAME ; void CIRReportGenerator::UpdateNmsType(class TDesC16 const &)
	?UpdateNmsCurrentNetwork@CIRReportGenerator@@QAEXH@Z @ 8  NONAME ; void CIRReportGenerator::UpdateNmsCurrentNetwork(int)
	?UpdateHomeOperator@CIRReportGenerator@@QAEXH@Z @ 9  NONAME ; void CIRReportGenerator::UpdateHomeOperator(int)
	?UpdateConnectedFrom@CIRReportGenerator@@QAEXW4TConnectedFrom@@@Z @ 10  NONAME ; void CIRReportGenerator::UpdateConnectedFrom(enum TConnectedFrom)
	?ReponseFromISDSObtained@CIRReportGenerator@@QAEXXZ @ 11  NONAME ; void CIRReportGenerator::ReponseFromISDSObtained(void)
	?WriteNmsLogtoXmlL@CIRReportGenerator@@QAEXXZ @ 12  NONAME ; void CIRReportGenerator::WriteNmsLogtoXmlL(void)
	?UpdateCurrentBrowseNetwork@CIRReportGenerator@@QAEXH@Z @ 13  NONAME ; void CIRReportGenerator::UpdateCurrentBrowseNetwork(int)
	?LogBrowse@CIRReportGenerator@@QAEXABVTDesC8@@H@Z @ 14  NONAME ; void CIRReportGenerator::LogBrowse(class TDesC8 const &, int)
	?NmsLogStartedL@CIRReportGenerator@@QAEXXZ @ 15  NONAME ; void CIRReportGenerator::NmsLogStartedL(void)
	?UpdateCurrentNetwork@CIRReportGenerator@@QAEXH@Z @ 16  NONAME ; void CIRReportGenerator::UpdateCurrentNetwork(int)
	?UpdateChannelID@CIRReportGenerator@@QAEXH@Z @ 17  NONAME ; void CIRReportGenerator::UpdateChannelID(int)
	?SetDbStatusObserser@CIRReportGenerator@@QAEXPAVMIRLogDbStatusObserver@@@Z @ 18  NONAME ; void CIRReportGenerator::SetDbStatusObserser(class MIRLogDbStatusObserver *)
	?OpenL@CIRReportGenerator@@SAPAV1@XZ @ 19  NONAME ; class CIRReportGenerator * CIRReportGenerator::OpenL(void)
	?SessionStartedL@CIRReportGenerator@@QAEXXZ @ 20  NONAME ; void CIRReportGenerator::SessionStartedL(void)
	?SessionEndL@CIRReportGenerator@@QAEXXZ @ 21  NONAME ; void CIRReportGenerator::SessionEndL(void)
	?UpdateTerminatedBy@CIRReportGenerator@@QAEXW4TTerminationStatus@@@Z @ 22  NONAME ; void CIRReportGenerator::UpdateTerminatedBy(enum TTerminationStatus)
	?UpdateNmsHomeOperator@CIRReportGenerator@@QAEXH@Z @ 23  NONAME ; void CIRReportGenerator::UpdateNmsHomeOperator(int)
	?HandleStopEvents@CIRReportGenerator@@QAEXH@Z @ 24  NONAME ; void CIRReportGenerator::HandleStopEvents(int)
	?ReportSent@CIRReportGenerator@@QAEXXZ @ 25  NONAME ; void CIRReportGenerator::ReportSent(void)
