EXPORTS
	_ZN21GlxCommandHandlerSendC1Ev @ 1 NONAME
	_ZN21GlxCommandHandlerSendC2Ev @ 2 NONAME
	_ZN21GlxCommandHandlerSendD0Ev @ 3 NONAME
	_ZN21GlxCommandHandlerSendD1Ev @ 4 NONAME
	_ZN21GlxCommandHandlerSendD2Ev @ 5 NONAME
	_ZN23GlxCommandHandlerDeleteC1Ev @ 6 NONAME
	_ZN23GlxCommandHandlerDeleteC2Ev @ 7 NONAME
	_ZN23GlxCommandHandlerDeleteD0Ev @ 8 NONAME
	_ZN23GlxCommandHandlerDeleteD1Ev @ 9 NONAME
	_ZN23GlxCommandHandlerDeleteD2Ev @ 10 NONAME
	_ZN23GlxCommandHandlerRenameC1Ev @ 11 NONAME
	_ZN23GlxCommandHandlerRenameC2Ev @ 12 NONAME
	_ZN23GlxCommandHandlerRenameD0Ev @ 13 NONAME
	_ZN23GlxCommandHandlerRenameD1Ev @ 14 NONAME
	_ZN23GlxCommandHandlerRenameD2Ev @ 15 NONAME
	_ZN23GlxCommandHandlerRotate12RotateImageLE4TBufILi256EE @ 16 NONAME
	_ZN23GlxCommandHandlerRotate17DestroyExifWriterEv @ 17 NONAME
	_ZN23GlxCommandHandlerRotate17DoExecuteCommandLEiR13MGlxMediaListRi @ 18 NONAME
	_ZN23GlxCommandHandlerRotate20SetImageOrientationLEt @ 19 NONAME
	_ZN23GlxCommandHandlerRotate21InitializeExifWriterLE4TBufILi256EE @ 20 NONAME
	_ZN23GlxCommandHandlerRotate21ReadImageOrientationLEv @ 21 NONAME
	_ZN23GlxCommandHandlerRotate26CalculateFinalOrientationLEt @ 22 NONAME
	_ZN23GlxCommandHandlerRotateC1Ev @ 23 NONAME
	_ZN23GlxCommandHandlerRotateC2Ev @ 24 NONAME
	_ZN23GlxCommandHandlerRotateD0Ev @ 25 NONAME
	_ZN23GlxCommandHandlerRotateD1Ev @ 26 NONAME
	_ZN23GlxCommandHandlerRotateD2Ev @ 27 NONAME
	_ZN24GlxCommandHandlerCommentC1Ev @ 28 NONAME
	_ZN24GlxCommandHandlerCommentC2Ev @ 29 NONAME
	_ZN24GlxCommandHandlerCommentD0Ev @ 30 NONAME
	_ZN24GlxCommandHandlerCommentD1Ev @ 31 NONAME
	_ZN24GlxCommandHandlerCommentD2Ev @ 32 NONAME
	_ZN25GlxCommandHandlerNewMedia11HandleErrorEi @ 33 NONAME
	_ZN25GlxCommandHandlerNewMedia11qt_metacallEN11QMetaObject4CallEiPPv @ 34 NONAME
	_ZN25GlxCommandHandlerNewMedia11qt_metacastEPKc @ 35 NONAME
	_ZN25GlxCommandHandlerNewMedia12HandleErrorLEi @ 36 NONAME
	_ZN25GlxCommandHandlerNewMedia16HandleItemAddedLEiiP13MGlxMediaList @ 37 NONAME
	_ZN25GlxCommandHandlerNewMedia16staticMetaObjectE @ 38 NONAME DATA 16
	_ZN25GlxCommandHandlerNewMedia19getStaticMetaObjectEv @ 39 NONAME
	_ZN25GlxCommandHandlerNewMedia24DoHandleCommandCompleteLEPvP9CMPXMediaiP13MGlxMediaList @ 40 NONAME
	_ZN25GlxCommandHandlerNewMedia9ExecuteLDER11TGlxMediaIdR7QString @ 41 NONAME
	_ZN25GlxCommandHandlerNewMediaC1Ev @ 42 NONAME
	_ZN25GlxCommandHandlerNewMediaC2Ev @ 43 NONAME
	_ZN25GlxCommandHandlerNewMediaD0Ev @ 44 NONAME
	_ZN25GlxCommandHandlerNewMediaD1Ev @ 45 NONAME
	_ZN25GlxCommandHandlerNewMediaD2Ev @ 46 NONAME
	_ZN26GlxCommandHandlerEditImage10storeItemsERK11QModelIndexii @ 47 NONAME
	_ZN26GlxCommandHandlerEditImage11handleErrorEiRK7QString @ 48 NONAME
	_ZN26GlxCommandHandlerEditImage11qt_metacallEN11QMetaObject4CallEiPPv @ 49 NONAME
	_ZN26GlxCommandHandlerEditImage11qt_metacastEPKc @ 50 NONAME
	_ZN26GlxCommandHandlerEditImage14executeCommandEii5QListI11QModelIndexE @ 51 NONAME
	_ZN26GlxCommandHandlerEditImage15clearMediaModelEv @ 52 NONAME
	_ZN26GlxCommandHandlerEditImage16staticMetaObjectE @ 53 NONAME DATA 16
	_ZN26GlxCommandHandlerEditImage19getStaticMetaObjectEv @ 54 NONAME
	_ZN26GlxCommandHandlerEditImage8handleOkERK8QVariant @ 55 NONAME
	_ZN26GlxCommandHandlerEditImageC1Ev @ 56 NONAME
	_ZN26GlxCommandHandlerEditImageC2Ev @ 57 NONAME
	_ZN26GlxCommandHandlerEditImageD0Ev @ 58 NONAME
	_ZN26GlxCommandHandlerEditImageD1Ev @ 59 NONAME
	_ZN26GlxCommandHandlerEditImageD2Ev @ 60 NONAME
	_ZN27GlxCommandHandlerRemoveFromC1Ev @ 61 NONAME
	_ZN27GlxCommandHandlerRemoveFromC2Ev @ 62 NONAME
	_ZN27GlxCommandHandlerRemoveFromD0Ev @ 63 NONAME
	_ZN27GlxCommandHandlerRemoveFromD1Ev @ 64 NONAME
	_ZN27GlxCommandHandlerRemoveFromD2Ev @ 65 NONAME
	_ZN31GlxCommandHandlerAddToContainerC1Ev @ 66 NONAME
	_ZN31GlxCommandHandlerAddToContainerC2Ev @ 67 NONAME
	_ZN31GlxCommandHandlerAddToContainerD0Ev @ 68 NONAME
	_ZN31GlxCommandHandlerAddToContainerD1Ev @ 69 NONAME
	_ZN31GlxCommandHandlerAddToContainerD2Ev @ 70 NONAME
	_ZNK21GlxCommandHandlerSend18doHandleUserActionEP13GlxMediaModel5QListI11QModelIndexE @ 71 NONAME
	_ZNK23GlxCommandHandlerDelete13ProgressTextLEv @ 72 NONAME
	_ZNK23GlxCommandHandlerDelete14CreateCommandLEiR13MGlxMediaListRi @ 73 NONAME
	_ZNK23GlxCommandHandlerDelete15CompletionTextLEv @ 74 NONAME
	_ZNK23GlxCommandHandlerDelete17ConfirmationTextLEb @ 75 NONAME
	_ZNK23GlxCommandHandlerRename12HandleErrorLEi @ 76 NONAME
	_ZNK23GlxCommandHandlerRename14CreateCommandLEiR13MGlxMediaListRi @ 77 NONAME
	_ZNK23GlxCommandHandlerRename15CompletionTextLEv @ 78 NONAME
	_ZNK23GlxCommandHandlerRename7GetNameER13MGlxMediaList @ 79 NONAME
	_ZNK23GlxCommandHandlerRotate14CreateCommandLEiR13MGlxMediaListRi @ 80 NONAME
	_ZNK24GlxCommandHandlerComment14CreateCommandLEiR13MGlxMediaListRi @ 81 NONAME
	_ZNK24GlxCommandHandlerComment15CompletionTextLEv @ 82 NONAME
	_ZNK24GlxCommandHandlerComment7GetNameER13MGlxMediaList @ 83 NONAME
	_ZNK25GlxCommandHandlerNewMedia10metaObjectEv @ 84 NONAME
	_ZNK25GlxCommandHandlerNewMedia13ProgressTextLEv @ 85 NONAME
	_ZNK25GlxCommandHandlerNewMedia14CreateCommandLEiR13MGlxMediaListRi @ 86 NONAME
	_ZNK25GlxCommandHandlerNewMedia15CompletionTextLEv @ 87 NONAME
	_ZNK25GlxCommandHandlerNewMedia26GenerateNewMediaItemTitleLE7QStringR13MGlxMediaList @ 88 NONAME
	_ZNK26GlxCommandHandlerEditImage10metaObjectEv @ 89 NONAME
	_ZNK26GlxCommandHandlerEditImage18doHandleUserActionEP13GlxMediaModel5QListI11QModelIndexE @ 90 NONAME
	_ZNK27GlxCommandHandlerRemoveFrom13ProgressTextLEv @ 91 NONAME
	_ZNK27GlxCommandHandlerRemoveFrom14CreateCommandLEiR13MGlxMediaListRi @ 92 NONAME
	_ZNK27GlxCommandHandlerRemoveFrom15CompletionTextLEv @ 93 NONAME
	_ZNK31GlxCommandHandlerAddToContainer13ProgressTextLEv @ 94 NONAME
	_ZNK31GlxCommandHandlerAddToContainer14CreateCommandLEiR13MGlxMediaListRi @ 95 NONAME
	_ZNK31GlxCommandHandlerAddToContainer14createNewMediaEv @ 96 NONAME
	_ZNK31GlxCommandHandlerAddToContainer15CompletionTextLEv @ 97 NONAME
	_ZTI21GlxCommandHandlerSend @ 98 NONAME
	_ZTI23GlxCommandHandlerDelete @ 99 NONAME
	_ZTI23GlxCommandHandlerRename @ 100 NONAME
	_ZTI23GlxCommandHandlerRotate @ 101 NONAME
	_ZTI24GlxCommandHandlerComment @ 102 NONAME
	_ZTI25GlxCommandHandlerNewMedia @ 103 NONAME
	_ZTI26GlxCommandHandlerEditImage @ 104 NONAME
	_ZTI27GlxCommandHandlerRemoveFrom @ 105 NONAME
	_ZTI31GlxCommandHandlerAddToContainer @ 106 NONAME
	_ZTV21GlxCommandHandlerSend @ 107 NONAME
	_ZTV23GlxCommandHandlerDelete @ 108 NONAME
	_ZTV23GlxCommandHandlerRename @ 109 NONAME
	_ZTV23GlxCommandHandlerRotate @ 110 NONAME
	_ZTV24GlxCommandHandlerComment @ 111 NONAME
	_ZTV25GlxCommandHandlerNewMedia @ 112 NONAME
	_ZTV26GlxCommandHandlerEditImage @ 113 NONAME
	_ZTV27GlxCommandHandlerRemoveFrom @ 114 NONAME
	_ZTV31GlxCommandHandlerAddToContainer @ 115 NONAME
	_ZThn8_N25GlxCommandHandlerNewMedia11HandleErrorEi @ 116 NONAME
	_ZThn8_N25GlxCommandHandlerNewMedia16HandleItemAddedLEiiP13MGlxMediaList @ 117 NONAME

