EXPORTS
	_ZN14CObexClientMtm10ConstructLEv @ 1 NONAME
	_ZN14CObexClientMtm11SetSubjectLERK7TDesC16 @ 2 NONAME
	_ZN14CObexClientMtm12LoadMessageLEv @ 3 NONAME
	_ZN14CObexClientMtm12SaveMessageLEv @ 4 NONAME
	_ZN14CObexClientMtm12SetPasswordLERK7TDesC16 @ 5 NONAME
	_ZN14CObexClientMtm13AddAddresseeLERK7TDesC16 @ 6 NONAME
	_ZN14CObexClientMtm13AddAddresseeLERK7TDesC16S2_ @ 7 NONAME
	_ZN14CObexClientMtm13GetPasswordLCEv @ 8 NONAME
	_ZN14CObexClientMtm14CommitChangesLEv @ 9 NONAME
	_ZN14CObexClientMtm14CreateMessageLEl @ 10 NONAME
	_ZN14CObexClientMtm15QueryCapabilityE4TUidRi @ 11 NONAME
	_ZN14CObexClientMtm15RemoveAddresseeEi @ 12 NONAME
	_ZN14CObexClientMtm15ValidateMessageEj @ 13 NONAME
	_ZN14CObexClientMtm18GetAttachmentSizeLEv @ 14 NONAME
	_ZN14CObexClientMtm19InvokeSyncFunctionLEiRK18CMsvEntrySelectionR5TDes8 @ 15 NONAME
	_ZN14CObexClientMtm20ContextEntrySwitchedEv @ 16 NONAME
	_ZN14CObexClientMtm20ExternaliseFileNameLERK7TDesC16 @ 17 NONAME
	_ZN14CObexClientMtm25StartFileNameExternaliseLERK18CMsvEntrySelection @ 18 NONAME
	_ZN14CObexClientMtm26CommitFileNameExternaliseLEv @ 19 NONAME
	_ZN14CObexClientMtm30ExternaliseFileNameAndHeadersLERK7TDesC16RK15CObexHeaderList @ 20 NONAME
	_ZN14CObexClientMtm4FindERK7TDesC16j @ 21 NONAME
	_ZN14CObexClientMtm6ReplyLEljR14TRequestStatus @ 22 NONAME
	_ZN14CObexClientMtm8ForwardLEljR14TRequestStatus @ 23 NONAME
	_ZTV14CObexClientMtm @ 24 NONAME ; #<VT>#
	_ZN14CObexClientMtmC2ER17CRegisteredMtmDllR11CMsvSession4TUid @ 25 NONAME
	_ZN14CObexClientMtmD0Ev @ 26 NONAME
	_ZN14CObexClientMtmD1Ev @ 27 NONAME
	_ZN14CObexClientMtmD2Ev @ 28 NONAME
	_ZNK14CObexClientMtm8SubjectLEv @ 29 NONAME
	_ZTI14CObexClientMtm @ 30 NONAME ; #<TI>#
	_ZN14CObexClientMtm24CreateMessageAttachmentLEl @ 31 NONAME
