EXPORTS
	_ZN15CIMGPPrintUtils13CheckMIMETypeERK6TDesC8RK4TBufILi256EE @ 1 NONAME
	_ZN15CIMGPPrintUtils14StartPrintingLEP16CDesC16ArrayFlat @ 2 NONAME
	_ZN15CIMGPPrintUtils4NewLEP12MAiwObserver @ 3 NONAME
	_ZN20CIMGPPrintDlgManager14StartPrintingLEv @ 4 NONAME
	_ZN20CIMGPPrintDlgManager4NewLEiP9MPrintJobjijP15CIMGPPrintUtilsP17MPrintingObserver @ 5 NONAME
	_ZN21CUIProtocolController21ChangeDefaultPrinterLEi @ 6 NONAME
	_ZN21CUIProtocolController21SearchDefaultPrinterLEv @ 7 NONAME
	_ZN21CUIProtocolController4NewLEP17MProtocolObserverR10CIFFactory @ 8 NONAME
	_ZTI15CIMGPPrintUtils @ 9 NONAME ; #<TI>#
	_ZTI17CCustomNoteDialog @ 10 NONAME ; #<TI>#
	_ZTI20CDiscoveryDlgManager @ 11 NONAME ; #<TI>#
	_ZTI20CIMGPPrintDlgManager @ 12 NONAME ; #<TI>#
	_ZTI21CIMGPPrintProgressDlg @ 13 NONAME ; #<TI>#
	_ZTI21CUIProtocolController @ 14 NONAME ; #<TI>#
	_ZTV15CIMGPPrintUtils @ 15 NONAME ; #<VT>#
	_ZTV17CCustomNoteDialog @ 16 NONAME ; #<VT>#
	_ZTV20CDiscoveryDlgManager @ 17 NONAME ; #<VT>#
	_ZTV20CIMGPPrintDlgManager @ 18 NONAME ; #<VT>#
	_ZTV21CIMGPPrintProgressDlg @ 19 NONAME ; #<VT>#
	_ZTV21CUIProtocolController @ 20 NONAME ; #<VT>#
	_ZN15CIMGPPrintUtils16GetDataFilePathLER4TBufILi256EE @ 21 NONAME

