EXPORTS
	_Z24ImplementationGroupProxyRi @ 1 NONAME
	_ZN22CNSmlContactsDataStore10ConstructLERK7TDesC16 @ 2 NONAME
	_ZN22CNSmlContactsDataStore10ConstructLEv @ 3 NONAME
	_ZN22CNSmlContactsDataStore10GetDataModEv @ 4 NONAME
	_ZN22CNSmlContactsDataStore10LdoMergeLCERiRK6TDesC8 @ 5 NONAME
	_ZN22CNSmlContactsDataStore11DoCloseItemEv @ 6 NONAME
	_ZN22CNSmlContactsDataStore11DoMoveItemLEiiR14TRequestStatus @ 7 NONAME
	_ZN22CNSmlContactsDataStore11DoOpenItemLEiRiS0_S0_R5TDes8S2_R14TRequestStatus @ 8 NONAME
	_ZN22CNSmlContactsDataStore11DoReadItemLER5TDes8 @ 9 NONAME
	_ZN22CNSmlContactsDataStore11LdoAddItemLERiRK6TDesC8iR5TTime @ 10 NONAME
	_ZN22CNSmlContactsDataStore12DoWriteItemLERK6TDesC8 @ 11 NONAME
	_ZN22CNSmlContactsDataStore12LdoAddItemsLER6RArrayIiERP8CBufBaseiR5TTime @ 12 NONAME
	_ZN22CNSmlContactsDataStore13DoBeginBatchLEv @ 13 NONAME
	_ZN22CNSmlContactsDataStore13DoCancelBatchEv @ 14 NONAME
	_ZN22CNSmlContactsDataStore13DoCommitItemLER14TRequestStatus @ 15 NONAME
	_ZN22CNSmlContactsDataStore13DoCreateItemLERiiiRK6TDesC8S3_R14TRequestStatus @ 16 NONAME
	_ZN22CNSmlContactsDataStore13DoDeleteItemLEiR14TRequestStatus @ 17 NONAME
	_ZN22CNSmlContactsDataStore13LdoFetchItemLERiR8CBufBase @ 18 NONAME
	_ZN22CNSmlContactsDataStore14AddBufferListLERiii @ 19 NONAME
	_ZN22CNSmlContactsDataStore14DoCommitBatchLER6RArrayIiER14TRequestStatus @ 20 NONAME
	_ZN22CNSmlContactsDataStore14DoListStoresLCEv @ 21 NONAME
	_ZN22CNSmlContactsDataStore14DoReplaceItemLEiiiiR14TRequestStatus @ 22 NONAME
	_ZN22CNSmlContactsDataStore14ExecuteBufferLER6RArrayIiE @ 23 NONAME
	_ZN22CNSmlContactsDataStore14LdoUpdateItemLEiRK6TDesC8iR5TTime @ 24 NONAME
	_ZN22CNSmlContactsDataStore15DoCancelRequestEv @ 25 NONAME
	_ZN22CNSmlContactsDataStore16DoExecuteBufferLER6RArrayIiE @ 26 NONAME
	_ZN22CNSmlContactsDataStore17DoDeleteAllItemsLER14TRequestStatus @ 27 NONAME
	_ZN22CNSmlContactsDataStore17DoSoftDeleteItemLEiR14TRequestStatus @ 28 NONAME
	_ZN22CNSmlContactsDataStore18DoResetChangeInfoLER14TRequestStatus @ 29 NONAME
	_ZN22CNSmlContactsDataStore18SetOwnStoreFormatLEv @ 30 NONAME
	_ZN22CNSmlContactsDataStore19DoBeginTransactionLEv @ 31 NONAME
	_ZN22CNSmlContactsDataStore19DoCommitChangeInfoLER14TRequestStatus @ 32 NONAME
	_ZN22CNSmlContactsDataStore19DoCommitChangeInfoLER14TRequestStatusRK18MSmlDataItemUidSet @ 33 NONAME
	_ZN22CNSmlContactsDataStore19DoRevertTransactionER14TRequestStatus @ 34 NONAME
	_ZN22CNSmlContactsDataStore20DoCommitTransactionLER14TRequestStatus @ 35 NONAME
	_ZN22CNSmlContactsDataStore23CNSmlContactsBufferItemD0Ev @ 36 NONAME
	_ZN22CNSmlContactsDataStore23CNSmlContactsBufferItemD1Ev @ 37 NONAME
	_ZN22CNSmlContactsDataStore23CNSmlContactsBufferItemD2Ev @ 38 NONAME
	_ZN22CNSmlContactsDataStore23DoSetRemoteStoreFormatLERK19CSmlDataStoreFormat @ 39 NONAME
	_ZN22CNSmlContactsDataStore24DoSetRemoteMaxObjectSizeEi @ 40 NONAME
	_ZN22CNSmlContactsDataStore24DriveBelowCriticalLevelLEi @ 41 NONAME
	_ZN22CNSmlContactsDataStore4NewLEv @ 42 NONAME
	_ZN22CNSmlContactsDataStore7DoOpenLERK7TDesC16R20MSmlSyncRelationshipR14TRequestStatus @ 43 NONAME
	_ZN22CNSmlContactsDataStoreC1Ev @ 44 NONAME
	_ZN22CNSmlContactsDataStoreC2Ev @ 45 NONAME
	_ZN22CNSmlContactsDataStoreD0Ev @ 46 NONAME
	_ZN22CNSmlContactsDataStoreD1Ev @ 47 NONAME
	_ZN22CNSmlContactsDataStoreD2Ev @ 48 NONAME
	_ZN25CNSmlContactsDataProvider10ConstructLEv @ 49 NONAME
	_ZN25CNSmlContactsDataProvider14DoListStoresLCEv @ 50 NONAME
	_ZN25CNSmlContactsDataProvider14DoStoreFormatLEv @ 51 NONAME
	_ZN25CNSmlContactsDataProvider15DoDefaultStoreLEv @ 52 NONAME
	_ZN25CNSmlContactsDataProvider18DoOnFrameworkEventE18TSmlFrameworkEventii @ 53 NONAME
	_ZN25CNSmlContactsDataProvider20DoNewStoreInstanceLCEv @ 54 NONAME
	_ZN25CNSmlContactsDataProvider21DoCheckServerFiltersLER13RPointerArrayI13CSyncMLFilterER23TSyncMLFilterChangeInfo @ 55 NONAME
	_ZN25CNSmlContactsDataProvider25DoSupportedServerFiltersLEv @ 56 NONAME
	_ZN25CNSmlContactsDataProvider27DoGenerateFieldFilterQueryLERK13RPointerArrayI13CSyncMLFilterER6TDes16RS0_I16CSmlDataPropertyER7TDesC16 @ 57 NONAME
	_ZN25CNSmlContactsDataProvider29DoGenerateRecordFilterQueryLCERK13RPointerArrayI13CSyncMLFilterE22TSyncMLFilterMatchTypeR6TDes16R17TSyncMLFilterTypeR7TDesC16 @ 58 NONAME
	_ZN25CNSmlContactsDataProvider30DoCheckSupportedServerFiltersLERK19CSmlDataStoreFormatR13RPointerArrayI13CSyncMLFilterER23TSyncMLFilterChangeInfo @ 59 NONAME
	_ZN25CNSmlContactsDataProvider4NewLEv @ 60 NONAME
	_ZN25CNSmlContactsDataProvider5NewLCEv @ 61 NONAME
	_ZN25CNSmlContactsDataProviderC1Ev @ 62 NONAME
	_ZN25CNSmlContactsDataProviderC2Ev @ 63 NONAME
	_ZN25CNSmlContactsDataProviderD0Ev @ 64 NONAME
	_ZN25CNSmlContactsDataProviderD1Ev @ 65 NONAME
	_ZN25CNSmlContactsDataProviderD2Ev @ 66 NONAME
	_ZNK22CNSmlContactsDataStore11DoStoreNameEv @ 67 NONAME
	_ZNK22CNSmlContactsDataStore12DoAddedItemsEv @ 68 NONAME
	_ZNK22CNSmlContactsDataStore12DoMovedItemsEv @ 69 NONAME
	_ZNK22CNSmlContactsDataStore14DoDeletedItemsEv @ 70 NONAME
	_ZNK22CNSmlContactsDataStore14StripPropertyLERP6HBufC8RK6TDesC8 @ 71 NONAME
	_ZNK22CNSmlContactsDataStore14StripPropertyLERP8CBufBaseRK6TDesC8 @ 72 NONAME
	_ZNK22CNSmlContactsDataStore15DoMaxObjectSizeEv @ 73 NONAME
	_ZNK22CNSmlContactsDataStore15DoModifiedItemsEv @ 74 NONAME
	_ZNK22CNSmlContactsDataStore16DoHasSyncHistoryEv @ 75 NONAME
	_ZNK22CNSmlContactsDataStore17DefaultStoreNameLEv @ 76 NONAME
	_ZNK22CNSmlContactsDataStore18DoSoftDeletedItemsEv @ 77 NONAME
	_ZNK22CNSmlContactsDataStore27GetStoreFormatResourceFileLEv @ 78 NONAME
	_ZNK25CNSmlContactsDataProvider17CreateDataStoreLCEv @ 79 NONAME
	_ZNK25CNSmlContactsDataProvider19DoSupportsOperationE4TUid @ 80 NONAME
	_ZNK25CNSmlContactsDataProvider27GetStoreFormatResourceFileLEv @ 81 NONAME
	_ZTI22CNSmlContactsDataStore @ 82 NONAME
	_ZTI25CNSmlContactsDataProvider @ 83 NONAME
	_ZTIN22CNSmlContactsDataStore23CNSmlContactsBufferItemE @ 84 NONAME
	_ZTV22CNSmlContactsDataStore @ 85 NONAME
	_ZTV25CNSmlContactsDataProvider @ 86 NONAME
	_ZTVN22CNSmlContactsDataStore23CNSmlContactsBufferItemE @ 87 NONAME
	_ZN22CNSmlContactsDataStore15ExportContactsLERK4TUidR8CBufBase @ 88 NONAME
	_ZN22CNSmlContactsDataStore15ImportContactsLERK6TDesC8 @ 89 NONAME

