EXPORTS
	?CancelL@CBasePlugin@@UAEXH@Z @ 1 NONAME ; void CBasePlugin::CancelL(int)
	?NewL@CBaseMrAttendee@@SAPAV1@XZ @ 2 NONAME ; class CBaseMrAttendee * CBaseMrAttendee::NewL(void)
	?FindFetchRequestL@CBasePlugin@@IAEHIIIIAAUTOngoingFetchInfo@1@@Z @ 3 NONAME ; int CBasePlugin::FindFetchRequestL(unsigned int, unsigned int, unsigned int, unsigned int, struct CBasePlugin::TOngoingFetchInfo &)
	?WizardDataAvailableL@CBasePlugin@@UAEHXZ @ 4 NONAME ; int CBasePlugin::WizardDataAvailableL(void)
	?ReportRequestStatusL@CBasePlugin@@MAEXIIIIH@Z @ 5 NONAME ; void CBasePlugin::ReportRequestStatusL(unsigned int, unsigned int, unsigned int, unsigned int, int)
	?Load2LC@CResourceLoader@@QAEPAVHBufC16@@HH@Z @ 6 NONAME ; class HBufC16 * CResourceLoader::Load2LC(int, int)
	?DoCancel@CDelayedOp@@EAEXXZ @ 7 NONAME ; void CDelayedOp::DoCancel(void)
	??1CBaseMrRecurrenceRule@@UAE@XZ @ 8 NONAME ; CBaseMrRecurrenceRule::~CBaseMrRecurrenceRule(void)
	?GoOnlineL@CBasePlugin@@UAEXABVTFSMailMsgId@@@Z @ 9 NONAME ; void CBasePlugin::GoOnlineL(class TFSMailMsgId const &)
	??1CDelayedOp@@UAE@XZ @ 10 NONAME ; CDelayedOp::~CDelayedOp(void)
	?SetStartTimeInUtcL@CBaseMrInfoObject@@UAEXVTTime@@@Z @ 11 NONAME ; void CBaseMrInfoObject::SetStartTimeInUtcL(class TTime)
	?NewL@CBaseMrAttendee@@SAPAV1@ABVMMROrganizer@@@Z @ 12 NONAME ; class CBaseMrAttendee * CBaseMrAttendee::NewL(class MMROrganizer const &)
	?CancelSearch@CBasePlugin@@UAEXABVTFSMailMsgId@@@Z @ 13 NONAME ; void CBasePlugin::CancelSearch(class TFSMailMsgId const &)
	?RecurrentInterval@CBaseMrRecurrenceRule@@UBEHXZ @ 14 NONAME ; int CBaseMrRecurrenceRule::RecurrentInterval(void) const
	?CalendarFileName@CBasePlugin@@MBEABVTDesC16@@XZ @ 15 NONAME ; class TDesC16 const & CBasePlugin::CalendarFileName(void) const
	?AddRecurrenceExceptionL@CBaseMrInfoObject@@UAEXPAVMMRInfoObject@@@Z @ 16 NONAME ; void CBaseMrInfoObject::AddRecurrenceExceptionL(class MMRInfoObject *)
	?SetRecurrentDaysofMonthL@CBaseMrRecurrenceRule@@UAEXAAV?$RArray@UTRecurrentDaysofMonth@MRRecurrenceRule@@@@@Z @ 17 NONAME ; void CBaseMrRecurrenceRule::SetRecurrentDaysofMonthL(class RArray<struct MRRecurrenceRule::TRecurrentDaysofMonth> &)
	?SetCredentialsL@CBasePlugin@@UAEXABVTFSMailMsgId@@ABVTDesC16@@1@Z @ 18 NONAME ; void CBasePlugin::SetCredentialsL(class TFSMailMsgId const &, class TDesC16 const &, class TDesC16 const &)
	?SetAlarmInUtcL@CBaseMrInfoObject@@UAEXVTTime@@@Z @ 19 NONAME ; void CBaseMrInfoObject::SetAlarmInUtcL(class TTime)
	?NewL@CBaseMrAttendee@@SAPAV1@ABVMMRAttendee@@@Z @ 20 NONAME ; class CBaseMrAttendee * CBaseMrAttendee::NewL(class MMRAttendee const &)
	?TranslateMsgStoreDayOfWeek@CBasePlugin@@IAEXKAAVTDayOfWeekFtor@@@Z @ 21 NONAME ; void CBasePlugin::TranslateMsgStoreDayOfWeek(unsigned long, class TDayOfWeekFtor &)
	?GetStandardFolderIdL@CBasePlugin@@UAE?AVTFSMailMsgId@@ABV2@W4TFSFolderType@@@Z @ 22 NONAME ; class TFSMailMsgId CBasePlugin::GetStandardFolderIdL(class TFSMailMsgId const &, enum TFSFolderType)
	?DeleteFetchRequest@CBasePlugin@@IAEXAAUTOngoingFetchInfo@1@@Z @ 23 NONAME ; void CBasePlugin::DeleteFetchRequest(struct CBasePlugin::TOngoingFetchInfo &)
	?CommonName@CBaseMrAttendee@@UBEABVTDesC16@@XZ @ 24 NONAME ; class TDesC16 const & CBaseMrAttendee::CommonName(void) const
	?RecurrentDaysofMonth@CBaseMrRecurrenceRule@@UBEABV?$RArray@UTRecurrentDaysofMonth@MRRecurrenceRule@@@@XZ @ 25 NONAME ; class RArray<struct MRRecurrenceRule::TRecurrentDaysofMonth> const & CBaseMrRecurrenceRule::RecurrentDaysofMonth(void) const
	?MRSequenceNumberL@CBaseMrInfoObject@@UBEHXZ @ 26 NONAME ; int CBaseMrInfoObject::MRSequenceNumberL(void) const
	?MRRecurrenceId@CBaseMrInfoObject@@UBE?AVTTime@@XZ @ 27 NONAME ; class TTime CBaseMrInfoObject::MRRecurrenceId(void) const
	?SubjectL@CBaseMrInfoObject@@UBEABVTDesC16@@XZ @ 28 NONAME ; class TDesC16 const & CBaseMrInfoObject::SubjectL(void) const
	?GetMessageByUidL@CBasePlugin@@UAEPAVCFSMailMessage@@ABVTFSMailMsgId@@00W4TFSMailDetails@@@Z @ 29 NONAME ; class CFSMailMessage * CBasePlugin::GetMessageByUidL(class TFSMailMsgId const &, class TFSMailMsgId const &, class TFSMailMsgId const &, enum TFSMailDetails)
	?InvalidateCacheIfNecessary@CBasePlugin@@IAEXIII@Z @ 30 NONAME ; void CBasePlugin::InvalidateCacheIfNecessary(unsigned int, unsigned int, unsigned int)
	?TranslateEmailFwRecipientsL@CBasePlugin@@IAEXAAVCMsgStoreMessagePart@@ABVTDesC8@@AAV?$RPointerArray@VCFSMailAddress@@@@@Z @ 31 NONAME ; void CBasePlugin::TranslateEmailFwRecipientsL(class CMsgStoreMessagePart &, class TDesC8 const &, class RPointerArray<class CFSMailAddress> &)
	?SetRecurrenceRuleL@CBaseMrInfoObject@@UAEXABVMRRecurrenceRule@@@Z @ 32 NONAME ; void CBaseMrInfoObject::SetRecurrenceRuleL(class MRRecurrenceRule const &)
	?Load2L@CResourceLoader@@QAEPAVHBufC16@@H@Z @ 33 NONAME ; class HBufC16 * CResourceLoader::Load2L(int)
	?RemoveAllPropertiesL@CBasePlugin@@KAXAAVCMsgStorePropertyContainer@@ABVTDesC8@@@Z @ 34 NONAME ; void CBasePlugin::RemoveAllPropertiesL(class CMsgStorePropertyContainer &, class TDesC8 const &)
	?DoCancelSearchL@CBasePlugin@@IAEXABVTFSMailMsgId@@@Z @ 35 NONAME ; void CBasePlugin::DoCancelSearchL(class TFSMailMsgId const &)
	?GetMessagesL@CBasePlugin@@UAEXABVTFSMailMsgId@@0ABV?$RArray@VTFSMailMsgId@@@@AAV?$RPointerArray@VCFSMailMessage@@@@W4TFSMailDetails@@@Z @ 36 NONAME ; void CBasePlugin::GetMessagesL(class TFSMailMsgId const &, class TFSMailMsgId const &, class RArray<class TFSMailMsgId> const &, class RPointerArray<class CFSMailMessage> &, enum TFSMailDetails)
	?GetPlugin@CDelayedOp@@IAEAAVCBasePlugin@@XZ @ 37 NONAME ; class CBasePlugin & CDelayedOp::GetPlugin(void)
	?LoadLC@CResourceLoader@@QAEPAVHBufC16@@H@Z @ 38 NONAME ; class HBufC16 * CResourceLoader::LoadLC(int)
	?HandleRemovePartContentL@CBasePlugin@@MAEXAAVCMsgStoreMessage@@AAVCMsgStoreMessagePart@@@Z @ 39 NONAME ; void CBasePlugin::HandleRemovePartContentL(class CMsgStoreMessage &, class CMsgStoreMessagePart &)
	?SetMRRecurrenceIdL@CBaseMrInfoObject@@UAEXVTTime@@@Z @ 40 NONAME ; void CBaseMrInfoObject::SetMRRecurrenceIdL(class TTime)
	?CreateReplyMessageL@CBasePlugin@@UAEPAVCFSMailMessage@@ABVTFSMailMsgId@@0HABVTDesC16@@@Z @ 41 NONAME ; class CFSMailMessage * CBasePlugin::CreateReplyMessageL(class TFSMailMsgId const &, class TFSMailMsgId const &, int, class TDesC16 const &)
	?UnsubscribeMailboxEventsL@CBasePlugin@@IAEXABVTFSMailMsgId@@AAVMFSMailEventObserver@@@Z @ 42 NONAME ; void CBasePlugin::UnsubscribeMailboxEventsL(class TFSMailMsgId const &, class MFSMailEventObserver &)
	?CreateForwardMessageL@CBasePlugin@@UAEPAVCFSMailMessage@@ABVTFSMailMsgId@@0ABVTDesC16@@@Z @ 43 NONAME ; class CFSMailMessage * CBasePlugin::CreateForwardMessageL(class TFSMailMsgId const &, class TFSMailMsgId const &, class TDesC16 const &)
	?UnregisterRequestObserver@CBasePlugin@@UAEXH@Z @ 44 NONAME ; void CBasePlugin::UnregisterRequestObserver(int)
	?DeleteFolderByUidL@CBasePlugin@@UAEXABVTFSMailMsgId@@0@Z @ 45 NONAME ; void CBasePlugin::DeleteFolderByUidL(class TFSMailMsgId const &, class TFSMailMsgId const &)
	?NewL@CBaseMrInfoObject@@SAPAV1@AAVMMRInfoObject@@@Z @ 46 NONAME ; class CBaseMrInfoObject * CBaseMrInfoObject::NewL(class MMRInfoObject &)
	?GoOfflineL@CBasePlugin@@UAEXABVTFSMailMsgId@@@Z @ 47 NONAME ; void CBasePlugin::GoOfflineL(class TFSMailMsgId const &)
	?ResponseRequested@CBaseMrAttendee@@UBEHXZ @ 48 NONAME ; int CBaseMrAttendee::ResponseRequested(void) const
	?GetAccountForMsgBoxL@CBasePlugin@@IAEPAVCMsgStoreAccount@@ABVTFSMailMsgId@@@Z @ 49 NONAME ; class CMsgStoreAccount * CBasePlugin::GetAccountForMsgBoxL(class TFSMailMsgId const &)
	?DeleteDelayedOpsManager@CBasePlugin@@QAEXXZ @ 50 NONAME ; void CBasePlugin::DeleteDelayedOpsManager(void)
	?SearchL@CBasePlugin@@UAEXABVTFSMailMsgId@@ABV?$RArray@VTFSMailMsgId@@@@ABV?$RPointerArray@VTDesC16@@@@ABVTFSMailSortCriteria@@AAVMFSMailBoxSearchObserver@@@Z @ 51 NONAME ; void CBasePlugin::SearchL(class TFSMailMsgId const &, class RArray<class TFSMailMsgId> const &, class RPointerArray<class TDesC16> const &, class TFSMailSortCriteria const &, class MFSMailBoxSearchObserver &)
	?StoreMessageL@CBasePlugin@@UAEXABVTFSMailMsgId@@AAVCFSMailMessage@@@Z @ 52 NONAME ; void CBasePlugin::StoreMessageL(class TFSMailMsgId const &, class CFSMailMessage &)
	?Fs@CResourceLoader@@QAEAAVRFs@@XZ @ 53 NONAME ; class RFs & CResourceLoader::Fs(void)
	?ModificationNotifyL@CBasePlugin@@IAEXIW4TMsgStoreOperation@@W4TMsgStoreContainerType@@KIII@Z @ 54 NONAME ; void CBasePlugin::ModificationNotifyL(unsigned int, enum TMsgStoreOperation, enum TMsgStoreContainerType, unsigned long, unsigned int, unsigned int, unsigned int)
	?SetResponseRequestedL@CBaseMrAttendee@@UAEXH@Z @ 55 NONAME ; void CBaseMrAttendee::SetResponseRequestedL(int)
	?GetMailboxInfoL@CBasePlugin@@IAEAAVCMailboxInfo@@I@Z @ 56 NONAME ; class CMailboxInfo & CBasePlugin::GetMailboxInfoL(unsigned int)
	?SetCreationTimeInUtcL@CBaseMrInfoObject@@UAEXVTTime@@@Z @ 57 NONAME ; void CBaseMrInfoObject::SetCreationTimeInUtcL(class TTime)
	?FetchMessagePartsL@CBasePlugin@@UAEXABVTFSMailMsgId@@00ABV?$RArray@VTFSMailMsgId@@@@AAVMFSMailRequestObserver@@HI@Z @ 58 NONAME ; void CBasePlugin::FetchMessagePartsL(class TFSMailMsgId const &, class TFSMailMsgId const &, class TFSMailMsgId const &, class RArray<class TFSMailMsgId> const &, class MFSMailRequestObserver &, int, unsigned int)
	?GetBodyPartL@CBasePlugin@@IAEPAVCMsgStoreMessagePart@@AAVCMsgStoreMessage@@ABVTDesC16@@@Z @ 59 NONAME ; class CMsgStoreMessagePart * CBasePlugin::GetBodyPartL(class CMsgStoreMessage &, class TDesC16 const &)
	?AddAttendeeL@CBaseMrInfoObject@@UAEXPAVMMRAttendee@@@Z @ 60 NONAME ; void CBaseMrInfoObject::AddAttendeeL(class MMRAttendee *)
	?EndTimeInUtcL@CBaseMrInfoObject@@UBE?AVTTime@@XZ @ 61 NONAME ; class TTime CBaseMrInfoObject::EndTimeInUtcL(void) const
	?SendMessageL@CBasePlugin@@QAEXAAVCMsgStoreMailBox@@AAVCMsgStoreMessage@@ABVTTime@@@Z @ 62 NONAME ; void CBasePlugin::SendMessageL(class CMsgStoreMailBox &, class CMsgStoreMessage &, class TTime const &)
	??_ECDelayedOp@@UAE@I@Z @ 63 NONAME ; CDelayedOp::~CDelayedOp(unsigned int)
	?SetAttendeeRoleL@CBaseMrAttendee@@UAEXW4TAttendeeRole@MMRAttendee@@@Z @ 64 NONAME ; void CBaseMrAttendee::SetAttendeeRoleL(enum MMRAttendee::TAttendeeRole)
	?RefreshMailboxCacheL@CBasePlugin@@IAEAAVCMailboxInfo@@I@Z @ 65 NONAME ; class CMailboxInfo & CBasePlugin::RefreshMailboxCacheL(unsigned int)
	?SetRecurrenceStartTimeL@CBaseMrRecurrenceRule@@UAEXVTTime@@@Z @ 66 NONAME ; void CBaseMrRecurrenceRule::SetRecurrenceStartTimeL(class TTime)
	?RecurrentCount@CBaseMrRecurrenceRule@@UBEIXZ @ 67 NONAME ; unsigned int CBaseMrRecurrenceRule::RecurrentCount(void) const
	?TranslateEmailFwDayOfWeek@CBasePlugin@@IAEXW4TMRRecurrentDay@MRRecurrenceRule@@AAK@Z @ 68 NONAME ; void CBasePlugin::TranslateEmailFwDayOfWeek(enum MRRecurrenceRule::TMRRecurrentDay, unsigned long &)
	?CopyMessagePartFileL@CBasePlugin@@UAEXABVTFSMailMsgId@@000ABVTDesC16@@@Z @ 69 NONAME ; void CBasePlugin::CopyMessagePartFileL(class TFSMailMsgId const &, class TFSMailMsgId const &, class TFSMailMsgId const &, class TFSMailMsgId const &, class TDesC16 const &)
	?MRResponse@CBaseMrInfoObject@@UBE?AW4TResponse@MMRInfoObject@@XZ @ 70 NONAME ; enum MMRInfoObject::TResponse CBaseMrInfoObject::MRResponse(void) const
	?GetCachedMsgL@CBasePlugin@@IAEPAVCMsgStoreMessage@@II@Z @ 71 NONAME ; class CMsgStoreMessage * CBasePlugin::GetCachedMsgL(unsigned int, unsigned int)
	?SetMethod@CBaseMrInfoObject@@QAEXW4TMRMethod@MMRInfoObject@@@Z @ 72 NONAME ; void CBaseMrInfoObject::SetMethod(enum MMRInfoObject::TMRMethod)
	??1CBasePlugin@@UAE@XZ @ 73 NONAME ; CBasePlugin::~CBasePlugin(void)
	?SetSubjectL@CBaseMrInfoObject@@UAEXABVTDesC16@@@Z @ 74 NONAME ; void CBaseMrInfoObject::SetSubjectL(class TDesC16 const &)
	?StoreMessagesL@CBasePlugin@@UAEXABVTFSMailMsgId@@AAV?$RPointerArray@VCFSMailMessage@@@@AAVMFSMailRequestObserver@@H@Z @ 75 NONAME ; void CBasePlugin::StoreMessagesL(class TFSMailMsgId const &, class RPointerArray<class CFSMailMessage> &, class MFSMailRequestObserver &, int)
	?StartOp@CDelayedOp@@QAEXXZ @ 76 NONAME ; void CDelayedOp::StartOp(void)
	?MailboxHasCapabilityL@CBasePlugin@@UAEHW4TFSMailBoxCapabilities@@VTFSMailMsgId@@@Z @ 77 NONAME ; int CBasePlugin::MailboxHasCapabilityL(enum TFSMailBoxCapabilities, class TFSMailMsgId)
	?StoreMessagePartsL@CBasePlugin@@UAEXAAV?$RPointerArray@VCFSMailMessagePart@@@@AAVMFSMailRequestObserver@@H@Z @ 78 NONAME ; void CBasePlugin::StoreMessagePartsL(class RPointerArray<class CFSMailMessagePart> &, class MFSMailRequestObserver &, int)
	?AccountEventNotifyL@CBasePlugin@@IAEXW4TMsgStoreAccountEvent@@JABVTDesC16@@1I@Z @ 79 NONAME ; void CBasePlugin::AccountEventNotifyL(enum TMsgStoreAccountEvent, long, class TDesC16 const &, class TDesC16 const &, unsigned int)
	?SupportedFields@CBaseMrInfoObject@@UBEHAAV?$RArray@W4TESMRInfoField@MMRInfoObject@@@@@Z @ 80 NONAME ; int CBaseMrInfoObject::SupportedFields(class RArray<enum MMRInfoObject::TESMRInfoField> &) const
	?StatusL@CBasePlugin@@UAE?AVTFSProgress@@H@Z @ 81 NONAME ; class TFSProgress CBasePlugin::StatusL(int)
	?SetRecurrentMonthsL@CBaseMrRecurrenceRule@@UAEXAAV?$RArray@W4TMRRecurrenceMonth@MRRecurrenceRule@@@@@Z @ 82 NONAME ; void CBaseMrRecurrenceRule::SetRecurrentMonthsL(class RArray<enum MRRecurrenceRule::TMRRecurrenceMonth> &)
	?SetContentL@CBasePlugin@@UAEXABVTDesC16@@ABVTFSMailMsgId@@111@Z @ 83 NONAME ; void CBasePlugin::SetContentL(class TDesC16 const &, class TFSMailMsgId const &, class TFSMailMsgId const &, class TFSMailMsgId const &, class TFSMailMsgId const &)
	?GetMailBoxAddressL@CBasePlugin@@MAEPAVHBufC16@@VTFSMailMsgId@@@Z @ 84 NONAME ; class HBufC16 * CBasePlugin::GetMailBoxAddressL(class TFSMailMsgId)
	?TranslateEmailFwAttendeeL@CBasePlugin@@IAEXAAVMMROrganizer@@AAVRMsgStoreAddress@@@Z @ 85 NONAME ; void CBasePlugin::TranslateEmailFwAttendeeL(class MMROrganizer &, class RMsgStoreAddress &)
	?GetMailBoxStatus@CBasePlugin@@UAE?AW4TFSMailBoxStatus@@ABVTFSMailMsgId@@@Z @ 86 NONAME ; enum TFSMailBoxStatus CBasePlugin::GetMailBoxStatus(class TFSMailMsgId const &)
	??1CBaseMrAttendee@@UAE@XZ @ 87 NONAME ; CBaseMrAttendee::~CBaseMrAttendee(void)
	?NewChildPartFromFileL@CBasePlugin@@UAEXABVTFSMailMsgId@@000ABVTDesC16@@1AAVMFSMailRequestObserver@@H@Z @ 88 NONAME ; void CBasePlugin::NewChildPartFromFileL(class TFSMailMsgId const &, class TFSMailMsgId const &, class TFSMailMsgId const &, class TFSMailMsgId const &, class TDesC16 const &, class TDesC16 const &, class MFSMailRequestObserver &, int)
	?BlockCopyMoveFromFoldersL@CBasePlugin@@MAEXVTFSMailMsgId@@W4TFSFolderType@@AAVCFSMailFolder@@@Z @ 89 NONAME ; void CBasePlugin::BlockCopyMoveFromFoldersL(class TFSMailMsgId, enum TFSFolderType, class CFSMailFolder &)
	?RecurrentMonthDays@CBaseMrRecurrenceRule@@UBEABV?$RArray@H@@XZ @ 90 NONAME ; class RArray<int> const & CBaseMrRecurrenceRule::RecurrentMonthDays(void) const
	??1CBaseMrInfoProcessor@@UAE@XZ @ 91 NONAME ; CBaseMrInfoProcessor::~CBaseMrInfoProcessor(void)
	?NewL@CBaseMrRecurrenceRule@@SAPAV1@ABVMRRecurrenceRule@@@Z @ 92 NONAME ; class CBaseMrRecurrenceRule * CBaseMrRecurrenceRule::NewL(class MRRecurrenceRule const &)
	?ChildPartsL@CBasePlugin@@UAEXABVTFSMailMsgId@@000AAV?$RPointerArray@VCFSMailMessagePart@@@@@Z @ 93 NONAME ; void CBasePlugin::ChildPartsL(class TFSMailMsgId const &, class TFSMailMsgId const &, class TFSMailMsgId const &, class TFSMailMsgId const &, class RPointerArray<class CFSMailMessagePart> &)
	?SetPartContentFromFileL@CBasePlugin@@UAEXABVTFSMailMsgId@@000ABVTDesC16@@@Z @ 94 NONAME ; void CBasePlugin::SetPartContentFromFileL(class TFSMailMsgId const &, class TFSMailMsgId const &, class TFSMailMsgId const &, class TFSMailMsgId const &, class TDesC16 const &)
	?ResetBodyCache@CBasePlugin@@IAEXXZ @ 95 NONAME ; void CBasePlugin::ResetBodyCache(void)
	?Type@CBaseMrRecurrenceRule@@UBE?AW4TMRRecurrenceType@MRRecurrenceRule@@XZ @ 96 NONAME ; enum MRRecurrenceRule::TMRRecurrenceType CBaseMrRecurrenceRule::Type(void) const
	?ListFoldersL@CBasePlugin@@UAEXABVTFSMailMsgId@@0AAV?$RPointerArray@VCFSMailFolder@@@@@Z @ 97 NONAME ; void CBasePlugin::ListFoldersL(class TFSMailMsgId const &, class TFSMailMsgId const &, class RPointerArray<class CFSMailFolder> &)
	?SetContext@CDelayedOp@@QAEXAAVCBasePlugin@@AAVMDelayedOpsManager@@@Z @ 98 NONAME ; void CDelayedOp::SetContext(class CBasePlugin &, class MDelayedOpsManager &)
	??_ECBasePlugin@@UAE@I@Z @ 99 NONAME ; CBasePlugin::~CBasePlugin(unsigned int)
	?ReplyToMeetingRequestL@CBaseMrInfoProcessor@@UAEXABVTFSMailMsgId@@0AAVMMRInfoObject@@AAW4TMRInfoResponseMode@MMRInfoProcessor@@ABVTDesC16@@@Z @ 100 NONAME ; void CBaseMrInfoProcessor::ReplyToMeetingRequestL(class TFSMailMsgId const &, class TFSMailMsgId const &, class MMRInfoObject &, enum MMRInfoProcessor::TMRInfoResponseMode &, class TDesC16 const &)
	?GetFolderByUidL@CBasePlugin@@UAEPAVCFSMailFolder@@ABVTFSMailMsgId@@0@Z @ 101 NONAME ; class CFSMailFolder * CBasePlugin::GetFolderByUidL(class TFSMailMsgId const &, class TFSMailMsgId const &)
	?RecurrenceRuleL@CBaseMrInfoObject@@UBEABVMRRecurrenceRule@@XZ @ 102 NONAME ; class MRRecurrenceRule const & CBaseMrInfoObject::RecurrenceRuleL(void) const
	?AuthenticateL@CBasePlugin@@UAEXAAVMFSMailRequestObserver@@H@Z @ 103 NONAME ; void CBasePlugin::AuthenticateL(class MFSMailRequestObserver &, int)
	?DeleteMessagesByUidL@CBasePlugin@@UAEXABVTFSMailMsgId@@0ABV?$RArray@VTFSMailMsgId@@@@@Z @ 104 NONAME ; void CBasePlugin::DeleteMessagesByUidL(class TFSMailMsgId const &, class TFSMailMsgId const &, class RArray<class TFSMailMsgId> const &)
	?UnsubscribeMailboxEvents@CBasePlugin@@UAEXABVTFSMailMsgId@@AAVMFSMailEventObserver@@@Z @ 105 NONAME ; void CBasePlugin::UnsubscribeMailboxEvents(class TFSMailMsgId const &, class MFSMailEventObserver &)
	?SetEndTimeInUtcL@CBaseMrInfoObject@@UAEXVTTime@@@Z @ 106 NONAME ; void CBaseMrInfoObject::SetEndTimeInUtcL(class TTime)
	?SetRecurrenceTypeL@CBaseMrRecurrenceRule@@UAEXW4TMRRecurrenceType@MRRecurrenceRule@@@Z @ 107 NONAME ; void CBaseMrRecurrenceRule::SetRecurrenceTypeL(enum MRRecurrenceRule::TMRRecurrenceType)
	?TranslateEmailFwMessageL@CBasePlugin@@MAEXAAVCFSMailMessagePart@@AAVCMsgStoreMessagePart@@H@Z @ 108 NONAME ; void CBasePlugin::TranslateEmailFwMessageL(class CFSMailMessagePart &, class CMsgStoreMessagePart &, int)
  ?GetPluginId@CBasePlugin@@MBEIXZ @ 109 NONAME ; unsigned int CBasePlugin::GetPluginId(void) const
	?CreateForwardReplyMessageL@CBasePlugin@@IAEPAVCFSMailMessage@@ABVTFSMailMsgId@@0HABVTDesC16@@HH@Z @ 110 NONAME ; class CFSMailMessage * CBasePlugin::CreateForwardReplyMessageL(class TFSMailMsgId const &, class TFSMailMsgId const &, int, class TDesC16 const &, int, int)
	?SetCommonNameL@CBaseMrAttendee@@UAEXABVTDesC16@@@Z @ 111 NONAME ; void CBaseMrAttendee::SetCommonNameL(class TDesC16 const &)
	?CreateMessageToSendL@CBasePlugin@@UAEPAVCFSMailMessage@@ABVTFSMailMsgId@@@Z @ 112 NONAME ; class CFSMailMessage * CBasePlugin::CreateMessageToSendL(class TFSMailMsgId const &)
	?MessagePartL@CBasePlugin@@UAEPAVCFSMailMessagePart@@ABVTFSMailMsgId@@000@Z @ 113 NONAME ; class CFSMailMessagePart * CBasePlugin::MessagePartL(class TFSMailMsgId const &, class TFSMailMsgId const &, class TFSMailMsgId const &, class TFSMailMsgId const &)
	?Load2LC@CResourceLoader@@QAEPAVHBufC16@@HABVTDesC16@@@Z @ 114 NONAME ; class HBufC16 * CResourceLoader::Load2LC(int, class TDesC16 const &)
	?RefreshNowL@CBasePlugin@@UAEXABVTFSMailMsgId@@AAVMFSMailRequestObserver@@HH@Z @ 115 NONAME ; void CBasePlugin::RefreshNowL(class TFSMailMsgId const &, class MFSMailRequestObserver &, int, int)
	?ResetCache@CBasePlugin@@IAEXXZ @ 116 NONAME ; void CBasePlugin::ResetCache(void)
	?MRMethodL@CBaseMrInfoObject@@UBE?AW4TMRMethod@MMRInfoObject@@XZ @ 117 NONAME ; enum MMRInfoObject::TMRMethod CBaseMrInfoObject::MRMethodL(void) const
	?RunL@CDelayedOp@@EAEXXZ @ 118 NONAME ; void CDelayedOp::RunL(void)
	?RemoveChildPartL@CBasePlugin@@UAEXABVTFSMailMsgId@@0000@Z @ 119 NONAME ; void CBasePlugin::RemoveChildPartL(class TFSMailMsgId const &, class TFSMailMsgId const &, class TFSMailMsgId const &, class TFSMailMsgId const &, class TFSMailMsgId const &)
	?RecurrenceExceptionsL@CBaseMrInfoObject@@UBEABV?$RPointerArray@VMMRInfoObject@@@@XZ @ 120 NONAME ; class RPointerArray<class MMRInfoObject> const & CBaseMrInfoObject::RecurrenceExceptionsL(void) const
	?SetRecurrentMonthDaysL@CBaseMrRecurrenceRule@@UAEXAAV?$RArray@H@@@Z @ 121 NONAME ; void CBaseMrRecurrenceRule::SetRecurrentMonthDaysL(class RArray<int> &)
	?SetPriorityL@CBaseMrInfoObject@@UAEXI@Z @ 122 NONAME ; void CBaseMrInfoObject::SetPriorityL(unsigned int)
	?AttendeesL@CBaseMrInfoObject@@UAEAAV?$RPointerArray@VMMRAttendee@@@@XZ @ 123 NONAME ; class RPointerArray<class MMRAttendee> & CBaseMrInfoObject::AttendeesL(void)
	?Load2L@CResourceLoader@@QAEPAVHBufC16@@HH@Z @ 124 NONAME ; class HBufC16 * CResourceLoader::Load2L(int, int)
	?NewL@CBasePlugin@@SAPAV1@XZ @ 125 NONAME ; class CBasePlugin * CBasePlugin::NewL(void)
	?FetchEmailAddressL@CBasePlugin@@IAEPAVCFSMailAddress@@AAVCMsgStorePropertyContainer@@I@Z @ 126 NONAME ; class CFSMailAddress * CBasePlugin::FetchEmailAddressL(class CMsgStorePropertyContainer &, unsigned int)
	?NewL@CBaseMrInfoProcessor@@SAPAV1@AAVCBasePlugin@@@Z @ 127 NONAME ; class CBaseMrInfoProcessor * CBaseMrInfoProcessor::NewL(class CBasePlugin &)
	?CopyMessageAsChildPartL@CBasePlugin@@UAEPAVCFSMailMessagePart@@ABVTFSMailMsgId@@0000ABVCFSMailMessage@@@Z @ 128 NONAME ; class CFSMailMessagePart * CBasePlugin::CopyMessageAsChildPartL(class TFSMailMsgId const &, class TFSMailMsgId const &, class TFSMailMsgId const &, class TFSMailMsgId const &, class TFSMailMsgId const &, class CFSMailMessage const &)
	?NotifyGlobalEventL@CBasePlugin@@IAEXW4TFSMailEvent@@VTFSMailMsgId@@PAX22@Z @ 129 NONAME ; void CBasePlugin::NotifyGlobalEventL(enum TFSMailEvent, class TFSMailMsgId, void *, void *, void *)
	?GetCachedBodyChildrenL@CBasePlugin@@IAEAAV?$RPointerArray@VCMsgStoreMessagePart@@@@XZ @ 130 NONAME ; class RPointerArray<class CMsgStoreMessagePart> & CBasePlugin::GetCachedBodyChildrenL(void)
	?StartTimeInUtcL@CBaseMrInfoObject@@UBE?AVTTime@@XZ @ 131 NONAME ; class TTime CBaseMrInfoObject::StartTimeInUtcL(void) const
	?ListMailBoxesL@CBasePlugin@@UAEXAAV?$RArray@VTFSMailMsgId@@@@@Z @ 132 NONAME ; void CBasePlugin::ListMailBoxesL(class RArray<class TFSMailMsgId> &)
	?SetRecurrenceUntilL@CBaseMrRecurrenceRule@@UAEXVTTime@@@Z @ 133 NONAME ; void CBaseMrRecurrenceRule::SetRecurrenceUntilL(class TTime)
	?GetBrandingIdL@CBasePlugin@@UAEAAVTDesC16@@ABVTFSMailMsgId@@@Z @ 134 NONAME ; class TDesC16 & CBasePlugin::GetBrandingIdL(class TFSMailMsgId const &)
	?FetchMessagesL@CBasePlugin@@UAEXABVTFSMailMsgId@@0ABV?$RArray@VTFSMailMsgId@@@@W4TFSMailDetails@@AAVMFSMailRequestObserver@@H@Z @ 135 NONAME ; void CBasePlugin::FetchMessagesL(class TFSMailMsgId const &, class TFSMailMsgId const &, class RArray<class TFSMailMsgId> const &, enum TFSMailDetails, class MFSMailRequestObserver &, int)
	?RemovePartContentL@CBasePlugin@@UAEXABVTFSMailMsgId@@00ABV?$RArray@VTFSMailMsgId@@@@@Z @ 136 NONAME ; void CBasePlugin::RemovePartContentL(class TFSMailMsgId const &, class TFSMailMsgId const &, class TFSMailMsgId const &, class RArray<class TFSMailMsgId> const &)
	?ClearSearchResultCache@CBasePlugin@@UAEXABVTFSMailMsgId@@@Z @ 137 NONAME ; void CBasePlugin::ClearSearchResultCache(class TFSMailMsgId const &)
	?Address@CBaseMrAttendee@@UBEABVTDesC16@@XZ @ 138 NONAME ; class TDesC16 const & CBaseMrAttendee::Address(void) const
	?NotifyEventL@CBasePlugin@@IAEXIIIW4TFSMailEvent@@I@Z @ 139 NONAME ; void CBasePlugin::NotifyEventL(unsigned int, unsigned int, unsigned int, enum TFSMailEvent, unsigned int)
	?GetMailBoxByUidL@CBasePlugin@@UAEPAVCFSMailBox@@ABVTFSMailMsgId@@@Z @ 140 NONAME ; class CFSMailBox * CBasePlugin::GetMailBoxByUidL(class TFSMailMsgId const &)
	?SetDescriptionL@CBaseMrInfoObject@@UAEXABVTDesC16@@@Z @ 141 NONAME ; void CBaseMrInfoObject::SetDescriptionL(class TDesC16 const &)
	?AccountEventNotify@CBasePlugin@@UAEXW4TMsgStoreAccountEvent@@JABVTDesC16@@1I@Z @ 142 NONAME ; void CBasePlugin::AccountEventNotify(enum TMsgStoreAccountEvent, long, class TDesC16 const &, class TDesC16 const &, unsigned int)
	?SetUidL@CBaseMrInfoObject@@QAEXPAVHBufC16@@@Z @ 143 NONAME ; void CBaseMrInfoObject::SetUidL(class HBufC16 *)
	?RemoveObserver@CBasePlugin@@UAEXAAVMFSMailEventObserver@@@Z @ 144 NONAME ; void CBasePlugin::RemoveObserver(class MFSMailEventObserver &)
	?SetRecurrentCountL@CBaseMrRecurrenceRule@@UAEXH@Z @ 145 NONAME ; void CBaseMrRecurrenceRule::SetRecurrentCountL(int)
	?HandleMailboxDeleteL@CBasePlugin@@MAEXABVTFSMailMsgId@@@Z @ 146 NONAME ; void CBasePlugin::HandleMailboxDeleteL(class TFSMailMsgId const &)
	?RecurrentMonths@CBaseMrRecurrenceRule@@UBEABV?$RArray@W4TMRRecurrenceMonth@MRRecurrenceRule@@@@XZ @ 147 NONAME ; class RArray<enum MRRecurrenceRule::TMRRecurrenceMonth> const & CBaseMrRecurrenceRule::RecurrentMonths(void) const
	?AttendeeStatus@CBaseMrAttendee@@UBE?AW4TAttendeeStatus@MMRAttendee@@XZ @ 148 NONAME ; enum MMRAttendee::TAttendeeStatus CBaseMrAttendee::AttendeeStatus(void) const
	?NewL@CResourceLoader@@SAPAV1@ABVTDesC16@@@Z @ 149 NONAME ; class CResourceLoader * CResourceLoader::NewL(class TDesC16 const &)
	?SetRecurrentInterval@CBaseMrRecurrenceRule@@UAEXH@Z @ 150 NONAME ; void CBaseMrRecurrenceRule::SetRecurrentInterval(int)
	?GetDelayedOpsManager@CBasePlugin@@QAEAAVMDelayedOpsManager@@XZ @ 151 NONAME ; class MDelayedOpsManager & CBasePlugin::GetDelayedOpsManager(void)
	?GetContentToBufferL@CBasePlugin@@UAEXABVTFSMailMsgId@@000AAVTDes16@@I@Z @ 152 NONAME ; void CBasePlugin::GetContentToBufferL(class TFSMailMsgId const &, class TFSMailMsgId const &, class TFSMailMsgId const &, class TFSMailMsgId const &, class TDes16 &, unsigned int)
	?SetUidL@CBaseMrInfoObject@@QAEXABVTDesC16@@@Z @ 153 NONAME ; void CBaseMrInfoObject::SetUidL(class TDesC16 const &)
	??1CResourceLoader@@UAE@XZ @ 154 NONAME ; CResourceLoader::~CResourceLoader(void)
	?CreateFolderL@CBasePlugin@@UAEPAVCFSMailFolder@@ABVTFSMailMsgId@@0ABVTDesC16@@H@Z @ 155 NONAME ; class CFSMailFolder * CBasePlugin::CreateFolderL(class TFSMailMsgId const &, class TFSMailMsgId const &, class TDesC16 const &, int)
	?UidL@CBaseMrInfoObject@@UBEABVTDesC16@@XZ @ 156 NONAME ; class TDesC16 const & CBaseMrInfoObject::UidL(void) const
	?DoClearSearchResultCacheL@CBasePlugin@@IAEXABVTFSMailMsgId@@@Z @ 157 NONAME ; void CBasePlugin::DoClearSearchResultCacheL(class TFSMailMsgId const &)
	?AddAttachmentsL@CBaseMrInfoObject@@UAEXPAVMMRAttachment@@@Z @ 158 NONAME ; void CBaseMrInfoObject::AddAttachmentsL(class MMRAttachment *)
	?MoveMessagesL@CBasePlugin@@UAEXABVTFSMailMsgId@@ABV?$RArray@VTFSMailMsgId@@@@00@Z @ 159 NONAME ; void CBasePlugin::MoveMessagesL(class TFSMailMsgId const &, class RArray<class TFSMailMsgId> const &, class TFSMailMsgId const &, class TFSMailMsgId const &)
	?SubscribeMailboxEventsL@CBasePlugin@@UAEXABVTFSMailMsgId@@AAVMFSMailEventObserver@@@Z @ 160 NONAME ; void CBasePlugin::SubscribeMailboxEventsL(class TFSMailMsgId const &, class MFSMailEventObserver &)
	?SetMRSequenceNumber@CBaseMrInfoObject@@QAEXH@Z @ 161 NONAME ; void CBaseMrInfoObject::SetMRSequenceNumber(int)
	?DescriptionL@CBaseMrInfoObject@@UBEABVTDesC16@@XZ @ 162 NONAME ; class TDesC16 const & CBaseMrInfoObject::DescriptionL(void) const
	?ListFoldersL@CBasePlugin@@UAEXABVTFSMailMsgId@@AAV?$RPointerArray@VCFSMailFolder@@@@@Z @ 163 NONAME ; void CBasePlugin::ListFoldersL(class TFSMailMsgId const &, class RPointerArray<class CFSMailFolder> &)
	?SetRecurrentWeekDaysL@CBaseMrRecurrenceRule@@UAEXAAV?$RArray@W4TMRRecurrentDay@MRRecurrenceRule@@@@@Z @ 164 NONAME ; void CBaseMrRecurrenceRule::SetRecurrentWeekDaysL(class RArray<enum MRRecurrenceRule::TMRRecurrentDay> &)
	?RemoveChildPartL@CBasePlugin@@UAEXABVTFSMailMsgId@@0000AAVMFSMailRequestObserver@@H@Z @ 165 NONAME ; void CBasePlugin::RemoveChildPartL(class TFSMailMsgId const &, class TFSMailMsgId const &, class TFSMailMsgId const &, class TFSMailMsgId const &, class TFSMailMsgId const &, class MFSMailRequestObserver &, int)
	?CopyMessagesL@CBasePlugin@@UAEXABVTFSMailMsgId@@ABV?$RArray@VTFSMailMsgId@@@@AAV3@00@Z @ 166 NONAME ; void CBasePlugin::CopyMessagesL(class TFSMailMsgId const &, class RArray<class TFSMailMsgId> const &, class RArray<class TFSMailMsgId> &, class TFSMailMsgId const &, class TFSMailMsgId const &)
	?AlarmInUtcL@CBaseMrInfoObject@@UBE?AVTTime@@XZ @ 167 NONAME ; class TTime CBaseMrInfoObject::AlarmInUtcL(void) const
	?SendMessageL@CBasePlugin@@UAEXAAVCFSMailMessage@@@Z @ 168 NONAME ; void CBasePlugin::SendMessageL(class CFSMailMessage &)
	??0CBasePlugin@@IAE@XZ @ 169 NONAME ; CBasePlugin::CBasePlugin(void)
	?SetAddressL@CBaseMrAttendee@@UAEXABVTDesC16@@@Z @ 170 NONAME ; void CBaseMrAttendee::SetAddressL(class TDesC16 const &)
	?RecurrentUntil@CBaseMrRecurrenceRule@@UBE?AVTTime@@XZ @ 171 NONAME ; class TTime CBaseMrRecurrenceRule::RecurrentUntil(void) const
	?SetMRResponseL@CBaseMrInfoObject@@UAEXW4TResponse@MMRInfoObject@@@Z @ 172 NONAME ; void CBaseMrInfoObject::SetMRResponseL(enum MMRInfoObject::TResponse)
	?NewL@CBaseMrInfoObject@@SAPAV1@XZ @ 173 NONAME ; class CBaseMrInfoObject * CBaseMrInfoObject::NewL(void)
	?DoListFoldersL@CBasePlugin@@IAEXVTFSMailMsgId@@IHAAV?$RPointerArray@VCFSMailFolder@@@@@Z @ 174 NONAME ; void CBasePlugin::DoListFoldersL(class TFSMailMsgId, unsigned int, int, class RPointerArray<class CFSMailFolder> &)
	?MROrganizerL@CBaseMrInfoObject@@UAEAAVMMROrganizer@@XZ @ 175 NONAME ; class MMROrganizer & CBaseMrInfoObject::MROrganizerL(void)
	?NotifyMailboxEventL@CBasePlugin@@MAEXW4TFSMailEvent@@VTFSMailMsgId@@PAX22@Z @ 176 NONAME ; void CBasePlugin::NotifyMailboxEventL(enum TFSMailEvent, class TFSMailMsgId, void *, void *, void *)
	??0CDelayedOp@@IAE@XZ @ 177 NONAME ; CDelayedOp::CDelayedOp(void)
	?GetReplyToAddressL@CBasePlugin@@MAEPAVHBufC16@@VTFSMailMsgId@@@Z @ 178 NONAME ; class HBufC16 * CBasePlugin::GetReplyToAddressL(class TFSMailMsgId)
	?LocationL@CBaseMrInfoObject@@UBEABVTDesC16@@XZ @ 179 NONAME ; class TDesC16 const & CBaseMrInfoObject::LocationL(void) const
	?DeleteFetchRequestForPart@CBasePlugin@@IAEHAAUTOngoingFetchInfo@1@@Z @ 180 NONAME ; int CBasePlugin::DeleteFetchRequestForPart(struct CBasePlugin::TOngoingFetchInfo &)
	?Load2LC@CResourceLoader@@QAEPAVHBufC16@@H@Z @ 181 NONAME ; class HBufC16 * CResourceLoader::Load2LC(int)
	?NewChildPartL@CBasePlugin@@UAEPAVCFSMailMessagePart@@ABVTFSMailMsgId@@0000ABVTDesC16@@@Z @ 182 NONAME ; class CFSMailMessagePart * CBasePlugin::NewChildPartL(class TFSMailMsgId const &, class TFSMailMsgId const &, class TFSMailMsgId const &, class TFSMailMsgId const &, class TFSMailMsgId const &, class TDesC16 const &)
	?NewL@CBaseMrRecurrenceRule@@SAPAV1@XZ @ 183 NONAME ; class CBaseMrRecurrenceRule * CBaseMrRecurrenceRule::NewL(void)
	?SetAttendeeStatusL@CBaseMrAttendee@@UAEXAAW4TAttendeeStatus@MMRAttendee@@@Z @ 184 NONAME ; void CBaseMrAttendee::SetAttendeeStatusL(enum MMRAttendee::TAttendeeStatus &)
	?DeleteMailBoxByUidL@CBasePlugin@@UAEXABVTFSMailMsgId@@AAVMFSMailRequestObserver@@H@Z @ 185 NONAME ; void CBasePlugin::DeleteMailBoxByUidL(class TFSMailMsgId const &, class MFSMailRequestObserver &, int)
	?TranslateMsgStoreMrL@CBasePlugin@@MAEXABVTFSMailMsgId@@AAVCMsgStorePropertyContainer@@1AAVCFSMailMessagePart@@@Z @ 186 NONAME ; void CBasePlugin::TranslateMsgStoreMrL(class TFSMailMsgId const &, class CMsgStorePropertyContainer &, class CMsgStorePropertyContainer &, class CFSMailMessagePart &)
	?SystemEventNotifyL@CBasePlugin@@IAEXW4TMsgStoreSystemEvent@@@Z @ 187 NONAME ; void CBasePlugin::SystemEventNotifyL(enum TMsgStoreSystemEvent)
	??1CBaseMrInfoObject@@UAE@XZ @ 188 NONAME ; CBaseMrInfoObject::~CBaseMrInfoObject(void)
	?StoreMessagePartL@CBasePlugin@@UAEXABVTFSMailMsgId@@00AAVCFSMailMessagePart@@@Z @ 189 NONAME ; void CBasePlugin::StoreMessagePartL(class TFSMailMsgId const &, class TFSMailMsgId const &, class TFSMailMsgId const &, class CFSMailMessagePart &)
	?CreateMessageToSendL@CBasePlugin@@UAEXABVTFSMailMsgId@@AAVMFSMailRequestObserver@@H@Z @ 190 NONAME ; void CBasePlugin::CreateMessageToSendL(class TFSMailMsgId const &, class MFSMailRequestObserver &, int)
	?AttachmentsL@CBaseMrInfoObject@@UBEABV?$RPointerArray@VMMRAttachment@@@@XZ @ 191 NONAME ; class RPointerArray<class MMRAttachment> const & CBaseMrInfoObject::AttachmentsL(void) const
	?RecurrenceStartTime@CBaseMrRecurrenceRule@@UBE?AVTTime@@XZ @ 192 NONAME ; class TTime CBaseMrRecurrenceRule::RecurrenceStartTime(void) const
	?GetMessagePartFileL@CBasePlugin@@UAEHABVTFSMailMsgId@@000AAVRFile@@H@Z @ 193 NONAME ; int CBasePlugin::GetMessagePartFileL(class TFSMailMsgId const &, class TFSMailMsgId const &, class TFSMailMsgId const &, class TFSMailMsgId const &, class RFile &, int)
	?CreationTimeInUtcL@CBaseMrInfoObject@@UBE?AVTTime@@XZ @ 194 NONAME ; class TTime CBaseMrInfoObject::CreationTimeInUtcL(void) const
	?GetLastSyncStatusL@CBasePlugin@@QAE?BVTFSProgress@@ABVTFSMailMsgId@@@Z @ 195 NONAME ; class TFSProgress const CBasePlugin::GetLastSyncStatusL(class TFSMailMsgId const &)
	?GetSignatureL@CBasePlugin@@MAEPAVHBufC16@@ABVTFSMailMsgId@@@Z @ 196 NONAME ; class HBufC16 * CBasePlugin::GetSignatureL(class TFSMailMsgId const &)
	?SetReplyOrForwardToFieldL@CBasePlugin@@IAEXAAVCMsgStoreMessage@@@Z @ 197 NONAME ; void CBasePlugin::SetReplyOrForwardToFieldL(class CMsgStoreMessage &)
	?CreateResourceReaderLC@CResourceLoader@@QBEPAVHBufC8@@AAVTResourceReader@@H@Z @ 198 NONAME ; class HBufC8 * CResourceLoader::CreateResourceReaderLC(class TResourceReader &, int) const
	?ModificationNotify@CBasePlugin@@UAEXIW4TMsgStoreOperation@@W4TMsgStoreContainerType@@KIII@Z @ 199 NONAME ; void CBasePlugin::ModificationNotify(unsigned int, enum TMsgStoreOperation, enum TMsgStoreContainerType, unsigned long, unsigned int, unsigned int, unsigned int)
	?SystemEventNotify@CBasePlugin@@UAEXW4TMsgStoreSystemEvent@@@Z @ 200 NONAME ; void CBasePlugin::SystemEventNotify(enum TMsgStoreSystemEvent)
	?GetCachedMsgChildrenL@CBasePlugin@@IAEAAV?$RPointerArray@VCMsgStoreMessagePart@@@@XZ @ 201 NONAME ; class RPointerArray<class CMsgStoreMessagePart> & CBasePlugin::GetCachedMsgChildrenL(void)
	?CreateMrReplyMessageL@CBasePlugin@@MAEPAVCFSMailMessage@@ABVTFSMailMsgId@@AAVMMRInfoObject@@0@Z @ 202 NONAME ; class CFSMailMessage * CBasePlugin::CreateMrReplyMessageL(class TFSMailMsgId const &, class MMRInfoObject &, class TFSMailMsgId const &)
	?SetLocationL@CBaseMrInfoObject@@UAEXABVTDesC16@@@Z @ 203 NONAME ; void CBaseMrInfoObject::SetLocationL(class TDesC16 const &)
	?NewChildPartFromFilePathOrHandleL@CBasePlugin@@IAEPAVCFSMailMessagePart@@ABVTFSMailMsgId@@000ABVTDesC16@@1HAAVRFile@@@Z @ 204 NONAME ; class CFSMailMessagePart * CBasePlugin::NewChildPartFromFilePathOrHandleL(class TFSMailMsgId const &, class TFSMailMsgId const &, class TFSMailMsgId const &, class TFSMailMsgId const &, class TDesC16 const &, class TDesC16 const &, int, class RFile &)
	?TranslateEmailFwMrL@CBasePlugin@@MAEXAAVMMRInfoObject@@AAVCMsgStorePropertyContainer@@@Z @ 205 NONAME ; void CBasePlugin::TranslateEmailFwMrL(class MMRInfoObject &, class CMsgStorePropertyContainer &)
	?ConstructL@CBasePlugin@@IAEXXZ @ 206 NONAME ; void CBasePlugin::ConstructL(void)
	?NewChildPartFromFileL@CBasePlugin@@UAEPAVCFSMailMessagePart@@ABVTFSMailMsgId@@000ABVTDesC16@@1@Z @ 207 NONAME ; class CFSMailMessagePart * CBasePlugin::NewChildPartFromFileL(class TFSMailMsgId const &, class TFSMailMsgId const &, class TFSMailMsgId const &, class TFSMailMsgId const &, class TDesC16 const &, class TDesC16 const &)
	?CancelSyncL@CBasePlugin@@UAEHABVTFSMailMsgId@@@Z @ 208 NONAME ; int CBasePlugin::CancelSyncL(class TFSMailMsgId const &)
	?RefreshCachedMailBoxDisplayNameL@CBasePlugin@@IAEXAAHABI@Z @ 209 NONAME ; void CBasePlugin::RefreshCachedMailBoxDisplayNameL(int &, unsigned int const &)
	?CurrentSyncState@CBasePlugin@@UAE?AW4TSSMailSyncState@@ABVTFSMailMsgId@@@Z @ 210 NONAME ; enum TSSMailSyncState CBasePlugin::CurrentSyncState(class TFSMailMsgId const &)
	?AddObserverL@CBasePlugin@@UAEXAAVMFSMailEventObserver@@@Z @ 211 NONAME ; void CBasePlugin::AddObserverL(class MFSMailEventObserver &)
	?AttendeeRole@CBaseMrAttendee@@UBE?AW4TAttendeeRole@MMRAttendee@@XZ @ 212 NONAME ; enum MMRAttendee::TAttendeeRole CBaseMrAttendee::AttendeeRole(void) const
	?GetCachedBodyL@CBasePlugin@@IAEPAVCMsgStoreMessagePart@@I@Z @ 213 NONAME ; class CMsgStoreMessagePart * CBasePlugin::GetCachedBodyL(unsigned int)
	?PriorityL@CBaseMrInfoObject@@UBEIXZ @ 214 NONAME ; unsigned int CBaseMrInfoObject::PriorityL(void) const
	?RecurrentWeekDays@CBaseMrRecurrenceRule@@UBEABV?$RArray@W4TMRRecurrentDay@MRRecurrenceRule@@@@XZ @ 215 NONAME ; class RArray<enum MRRecurrenceRule::TMRRecurrentDay> const & CBaseMrRecurrenceRule::RecurrentWeekDays(void) const
	?ListMessagesL@CBasePlugin@@UAEPAVMFSMailIterator@@ABVTFSMailMsgId@@0W4TFSMailDetails@@ABV?$RArray@VTFSMailSortCriteria@@@@@Z @ 216 NONAME ; class MFSMailIterator * CBasePlugin::ListMessagesL(class TFSMailMsgId const &, class TFSMailMsgId const &, enum TFSMailDetails, class RArray<class TFSMailSortCriteria> const &)
	?Load2L@CResourceLoader@@QAEPAVHBufC16@@HABVTDesC16@@@Z @ 217 NONAME ; class HBufC16 * CResourceLoader::Load2L(int, class TDesC16 const &)
	?NewChildPartFromFileL@CBasePlugin@@UAEPAVCFSMailMessagePart@@ABVTFSMailMsgId@@000ABVTDesC16@@AAVRFile@@@Z @ 218 NONAME ; class CFSMailMessagePart * CBasePlugin::NewChildPartFromFileL(class TFSMailMsgId const &, class TFSMailMsgId const &, class TFSMailMsgId const &, class TFSMailMsgId const &, class TDesC16 const &, class RFile &)
	?SetMailboxName@CBasePlugin@@UAEXABVTFSMailMsgId@@ABVTDesC16@@@Z @ 219 NONAME ; void CBasePlugin::SetMailboxName(class TFSMailMsgId const &, class TDesC16 const &)
	?NewLC@CBasePlugin@@SAPAV1@XZ @ 220 NONAME ; class CBasePlugin * CBasePlugin::NewLC(void)
	?ExtensionL@CBaseMrInfoObject@@UAEPAXVTUid@@@Z @ 221 NONAME ; void * CBaseMrInfoObject::ExtensionL(class TUid)
	?TranslateMsgStorePropsL@CBasePlugin@@MAEXABVTFSMailMsgId@@AAVCMsgStorePropertyContainer@@AAVCFSMailMessagePart@@W4TFSMailDetails@@@Z @ 222 NONAME ; void CBasePlugin::TranslateMsgStorePropsL(class TFSMailMsgId const &, class CMsgStorePropertyContainer &, class CFSMailMessagePart &, enum TFSMailDetails)
	?GetMailboxDisplayNameL@CBasePlugin@@IAEXIAAVRBuf16@@@Z @ 223 NONAME ; void CBasePlugin::GetMailboxDisplayNameL(unsigned int, class RBuf16 &)
        ?Id@CBasePlugin@@UBE?AVTUid@@XZ @ 224 NONAME ; class TUid CBasePlugin::Id(void) const

