EXPORTS
	_ZN11NmUriParser11extractDataERK7QString @ 1 NONAME
	_ZN11NmUriParser18addAddressesToListER7QStringR11QStringList @ 2 NONAME
	_ZN11NmUriParser9resetDataEv @ 3 NONAME
	_ZN11NmUriParserC1Ev @ 4 NONAME
	_ZN11NmUriParserC2Ev @ 5 NONAME
	_ZN11NmUriParserD1Ev @ 6 NONAME
	_ZN11NmUriParserD2Ev @ 7 NONAME
	_ZN16EmailMailboxInfoC1Ev @ 8 NONAME
	_ZN16EmailMailboxInfoC2Ev @ 9 NONAME
	_ZN16EmailMailboxInfoD1Ev @ 10 NONAME
	_ZN16EmailMailboxInfoD2Ev @ 11 NONAME
	_ZN18NmUiEventsNotifier11qt_metacallEN11QMetaObject4CallEiPPv @ 12 NONAME
	_ZN18NmUiEventsNotifier11qt_metacastEPKc @ 13 NONAME
	_ZN18NmUiEventsNotifier12valueChangedERK13XQSettingsKeyRK8QVariant @ 14 NONAME
	_ZN18NmUiEventsNotifier16staticMetaObjectE @ 15 NONAME DATA 16
	_ZN18NmUiEventsNotifier16viewStateChangedENS_13NmUiEventTypeE10NmUiViewId4NmId @ 16 NONAME
	_ZN18NmUiEventsNotifier19getStaticMetaObjectEv @ 17 NONAME
	_ZN18NmUiEventsNotifier22notifyViewStateChangedENS_13NmUiEventTypeE10NmUiViewIdRK4NmId @ 18 NONAME
	_ZN18NmUiEventsNotifierC1EP7QObject @ 19 NONAME
	_ZN18NmUiEventsNotifierC2EP7QObject @ 20 NONAME
	_ZN18NmUiEventsNotifierD0Ev @ 21 NONAME
	_ZN18NmUiEventsNotifierD1Ev @ 22 NONAME
	_ZN18NmUiEventsNotifierD2Ev @ 23 NONAME
	_ZN21NmContactHistoryModel11qt_metacallEN11QMetaObject4CallEiPPv @ 24 NONAME
	_ZN21NmContactHistoryModel11qt_metacastEPKc @ 25 NONAME
	_ZN21NmContactHistoryModel14modelCompletedEi @ 26 NONAME
	_ZN21NmContactHistoryModel16staticMetaObjectE @ 27 NONAME DATA 16
	_ZN21NmContactHistoryModel19getStaticMetaObjectEv @ 28 NONAME
	_ZN21NmContactHistoryModel20handleQueryCompletedEi @ 29 NONAME
	_ZN21NmContactHistoryModel5queryERK7QString @ 30 NONAME
	_ZN21NmContactHistoryModelC1E25NmContactHistoryModelType @ 31 NONAME
	_ZN21NmContactHistoryModelC2E25NmContactHistoryModelType @ 32 NONAME
	_ZN21NmContactHistoryModelD0Ev @ 33 NONAME
	_ZN21NmContactHistoryModelD1Ev @ 34 NONAME
	_ZN21NmContactHistoryModelD2Ev @ 35 NONAME
	_ZN25NmContactHistoryModelItem12setContactIdEj @ 36 NONAME
	_ZN25NmContactHistoryModelItem13appendSubItemE28NmContactHistoryModelSubItem @ 37 NONAME
	_ZN25NmContactHistoryModelItemC1ERKS_ @ 38 NONAME
	_ZN25NmContactHistoryModelItemC1Ev @ 39 NONAME
	_ZN25NmContactHistoryModelItemC2ERKS_ @ 40 NONAME
	_ZN25NmContactHistoryModelItemC2Ev @ 41 NONAME
	_ZN25NmContactHistoryModelItemD0Ev @ 42 NONAME
	_ZN25NmContactHistoryModelItemD1Ev @ 43 NONAME
	_ZN25NmContactHistoryModelItemD2Ev @ 44 NONAME
	_ZN8EmailMRU10entryIndexEi @ 45 NONAME
	_ZN8EmailMRU10readCenRepEi @ 46 NONAME
	_ZN8EmailMRU10writeEntryEi7QStringS0_ @ 47 NONAME
	_ZN8EmailMRU11updateEntryEi7QString @ 48 NONAME
	_ZN8EmailMRU11writeCenRepEi7QString @ 49 NONAME
	_ZN8EmailMRU16searchForAddressE7QString @ 50 NONAME
	_ZN8EmailMRU17getNextEntryIndexEv @ 51 NONAME
	_ZN8EmailMRU19nameKeyByEntryIndexEi @ 52 NONAME
	_ZN8EmailMRU22addressKeyByEntryIndexEi @ 53 NONAME
	_ZN8EmailMRU5resetEv @ 54 NONAME
	_ZN8EmailMRU8getEntryEiR7QStringS1_ @ 55 NONAME
	_ZN8EmailMRU9moveEntryEii @ 56 NONAME
	_ZN8EmailMRU9nameOrderEv @ 57 NONAME
	_ZN8EmailMRU9updateMRUE7QStringS0_ @ 58 NONAME
	_ZN8EmailMRUC1Ev @ 59 NONAME
	_ZN8EmailMRUC2Ev @ 60 NONAME
	_ZN8EmailMRUD0Ev @ 61 NONAME
	_ZN8EmailMRUD1Ev @ 62 NONAME
	_ZN8EmailMRUD2Ev @ 63 NONAME
	_ZNK11NmUriParser11ccAddressesEv @ 64 NONAME
	_ZNK11NmUriParser11toAddressesEv @ 65 NONAME
	_ZNK11NmUriParser12bccAddressesEv @ 66 NONAME
	_ZNK11NmUriParser7subjectEv @ 67 NONAME
	_ZNK11NmUriParser8bodyTextEv @ 68 NONAME
	_ZNK16EmailMailboxInfo11mailboxIconERK7QString @ 69 NONAME
	_ZNK16EmailMailboxInfo11mailboxNameERK7QString @ 70 NONAME
	_ZNK18NmUiEventsNotifier10metaObjectEv @ 71 NONAME
	_ZNK18NmUiEventsNotifier13parseKeyValueERK10QByteArrayRNS_13NmUiEventTypeER10NmUiViewIdR4NmId @ 72 NONAME
	_ZNK18NmUiEventsNotifier9keysEqualERK13XQSettingsKeyRK32XQPublishAndSubscribeSettingsKey @ 73 NONAME
	_ZNK21NmContactHistoryModel10metaObjectEv @ 74 NONAME
	_ZNK21NmContactHistoryModel4dataERK11QModelIndexi @ 75 NONAME
	_ZNK21NmContactHistoryModel8rowCountERK11QModelIndex @ 76 NONAME
	_ZNK25NmContactHistoryModelItem10subEntriesEv @ 77 NONAME
	_ZNK25NmContactHistoryModelItem12subItemCountEv @ 78 NONAME
	_ZNK25NmContactHistoryModelItem9contactIdEv @ 79 NONAME
	_ZNK25NmContactHistoryModelItem9subItemAtEi @ 80 NONAME
	_ZNK8EmailMRU10entryCountEv @ 81 NONAME
	_ZTI18NmUiEventsNotifier @ 82 NONAME
	_ZTI21NmContactHistoryModel @ 83 NONAME
	_ZTI25NmContactHistoryModelItem @ 84 NONAME
	_ZTI8EmailMRU @ 85 NONAME
	_ZTV18NmUiEventsNotifier @ 86 NONAME
	_ZTV21NmContactHistoryModel @ 87 NONAME
	_ZTV25NmContactHistoryModelItem @ 88 NONAME
	_ZTV8EmailMRU @ 89 NONAME

