EXPORTS
	?playMedia@VideoPlayerEngine@@QAEXVRFile@@@Z @ 1 NONAME ; void VideoPlayerEngine::playMedia(class RFile)
	?instance@VideoActivityState@@SAAAV1@XZ @ 2 NONAME ; class VideoActivityState & VideoActivityState::instance(void)
	?getBrowseCategory@VideoServices@@QBEHXZ @ 3 NONAME ; int VideoServices::getBrowseCategory(void) const
	?engine@VideoServices@@AAEPAVVideoPlayerEngine@@XZ @ 4 NONAME ; class VideoPlayerEngine * VideoServices::engine(void)
	?loadPluginAndCreateView@VideoPlayerEngine@@AAEXW4MpxHbVideoViewType@MpxHbVideoCommon@@@Z @ 5 NONAME ; void VideoPlayerEngine::loadPluginAndCreateView(enum MpxHbVideoCommon::MpxHbVideoViewType)
	?trUtf8@VideoServices@@SA?AVQString@@PBD0@Z @ 6 NONAME ; class QString VideoServices::trUtf8(char const *, char const *)
	?itemSelected@VideoServices@@QAEXABVQString@@@Z @ 7 NONAME ; void VideoServices::itemSelected(class QString const &)
	?createMissingViews@VideoPlayerEngine@@AAEXXZ @ 8 NONAME ; void VideoPlayerEngine::createMissingViews(void)
	??1VideoServices@@EAE@XZ @ 9 NONAME ; VideoServices::~VideoServices(void)
	??0VideoServices@@AAE@PAVVideoPlayerEngine@@@Z @ 10 NONAME ; VideoServices::VideoServices(class VideoPlayerEngine *)
	?titleReady@VideoServices@@IAEXABVQString@@@Z @ 11 NONAME ; void VideoServices::titleReady(class QString const &)
	??0VideoActivityState@@AAE@XZ @ 12 NONAME ; VideoActivityState::VideoActivityState(void)
	?playMedia@VideoPlayerEngine@@QAEXVQString@@@Z @ 13 NONAME ; void VideoPlayerEngine::playMedia(class QString)
	?metaObject@VideoServices@@UBEPBUQMetaObject@@XZ @ 14 NONAME ; struct QMetaObject const * VideoServices::metaObject(void) const
	?getStaticMetaObject@VideoPlayerEngine@@SAABUQMetaObject@@XZ @ 15 NONAME ; struct QMetaObject const & VideoPlayerEngine::getStaticMetaObject(void)
	??_EVideoActivityState@@UAE@I@Z @ 16 NONAME ; VideoActivityState::~VideoActivityState(unsigned int)
	?createPlaybackView@VideoPlayerEngine@@AAEXXZ @ 17 NONAME ; void VideoPlayerEngine::createPlaybackView(void)
	??_EVideoServices@@UAE@I@Z @ 18 NONAME ; VideoServices::~VideoServices(unsigned int)
	?serviceQuit@VideoPlayerEngine@@AAEXXZ @ 19 NONAME ; void VideoPlayerEngine::serviceQuit(void)
	?getStaticMetaObject@VideoServices@@SAABUQMetaObject@@XZ @ 20 NONAME ; struct QMetaObject const & VideoServices::getStaticMetaObject(void)
	?instance@VideoServices@@SAPAV1@PAVVideoPlayerEngine@@@Z @ 21 NONAME ; class VideoServices * VideoServices::instance(class VideoPlayerEngine *)
	?tr@VideoPlayerEngine@@SA?AVQString@@PBD0H@Z @ 22 NONAME ; class QString VideoPlayerEngine::tr(char const *, char const *, int)
	??1VideoActivityState@@EAE@XZ @ 23 NONAME ; VideoActivityState::~VideoActivityState(void)
	?staticMetaObject@VideoPlayerEngine@@2UQMetaObject@@B @ 24 NONAME ; struct QMetaObject const VideoPlayerEngine::staticMetaObject
	?doDelayedLoad@VideoPlayerEngine@@AAEXXZ @ 25 NONAME ; void VideoPlayerEngine::doDelayedLoad(void)
	?initialize@VideoPlayerEngine@@QAEXXZ @ 26 NONAME ; void VideoPlayerEngine::initialize(void)
	?sortRole@VideoServices@@QBEHXZ @ 27 NONAME ; int VideoServices::sortRole(void) const
	?shouldExit@VideoPlayerEngine@@AAE_NXZ @ 28 NONAME ; bool VideoPlayerEngine::shouldExit(void)
	?tr@VideoServices@@SA?AVQString@@PBD0H@Z @ 29 NONAME ; class QString VideoServices::tr(char const *, char const *, int)
	?getActivityData@VideoActivityState@@QAE?BVQVariant@@ABVQString@@@Z @ 30 NONAME ; class QVariant const VideoActivityState::getActivityData(class QString const &)
	?tr@VideoPlayerEngine@@SA?AVQString@@PBD0@Z @ 31 NONAME ; class QString VideoPlayerEngine::tr(char const *, char const *)
	?trUtf8@VideoPlayerEngine@@SA?AVQString@@PBD0H@Z @ 32 NONAME ; class QString VideoPlayerEngine::trUtf8(char const *, char const *, int)
	?tr@VideoServices@@SA?AVQString@@PBD0@Z @ 33 NONAME ; class QString VideoServices::tr(char const *, char const *)
	?setEngine@VideoServices@@AAEXPAVVideoPlayerEngine@@@Z @ 34 NONAME ; void VideoServices::setEngine(class VideoPlayerEngine *)
	??0VideoPlayerEngine@@QAE@_N@Z @ 35 NONAME ; VideoPlayerEngine::VideoPlayerEngine(bool)
	?qt_metacast@VideoServices@@UAEPAXPBD@Z @ 36 NONAME ; void * VideoServices::qt_metacast(char const *)
	?setEmbedded@VideoPlayerEngine@@QAEXXZ @ 37 NONAME ; void VideoPlayerEngine::setEmbedded(void)
	?activated@VideoServices@@IAEXH@Z @ 38 NONAME ; void VideoServices::activated(int)
	?setActivityData@VideoActivityState@@QAEXABVQVariant@@ABVQString@@@Z @ 39 NONAME ; void VideoActivityState::setActivityData(class QVariant const &, class QString const &)
	?handleCommand@VideoPlayerEngine@@QAEXH@Z @ 40 NONAME ; void VideoPlayerEngine::handleCommand(int)
	?browsingEnded@VideoServices@@QAEXXZ @ 41 NONAME ; void VideoServices::browsingEnded(void)
	?handlePlaybackFailure@VideoPlayerEngine@@AAEXH@Z @ 42 NONAME ; void VideoPlayerEngine::handlePlaybackFailure(int)
	?connectView@VideoPlayerEngine@@AAEXXZ @ 43 NONAME ; void VideoPlayerEngine::connectView(void)
	?decreaseReferenceCount@VideoServices@@QAEXXZ @ 44 NONAME ; void VideoServices::decreaseReferenceCount(void)
	?setCurrentService@VideoServices@@AAEXW4TVideoService@1@@Z @ 45 NONAME ; void VideoServices::setCurrentService(enum VideoServices::TVideoService)
	?trUtf8@VideoPlayerEngine@@SA?AVQString@@PBD0@Z @ 46 NONAME ; class QString VideoPlayerEngine::trUtf8(char const *, char const *)
	?checkForUpdates@VideoPlayerEngine@@AAEXXZ @ 47 NONAME ; void VideoPlayerEngine::checkForUpdates(void)
	?setCurrentView@VideoPlayerEngine@@AAEXXZ @ 48 NONAME ; void VideoPlayerEngine::setCurrentView(void)
	?trUtf8@VideoServices@@SA?AVQString@@PBD0H@Z @ 49 NONAME ; class QString VideoServices::trUtf8(char const *, char const *, int)
	?qt_metacall@VideoPlayerEngine@@UAEHW4Call@QMetaObject@@HPAPAX@Z @ 50 NONAME ; int VideoPlayerEngine::qt_metacall(enum QMetaObject::Call, int, void * *)
	?qt_metacast@VideoPlayerEngine@@UAEPAXPBD@Z @ 51 NONAME ; void * VideoPlayerEngine::qt_metacast(char const *)
	?staticMetaObject@VideoServices@@2UQMetaObject@@B @ 52 NONAME ; struct QMetaObject const VideoServices::staticMetaObject
	?applicationReady@VideoPlayerEngine@@IAEXXZ @ 53 NONAME ; void VideoPlayerEngine::applicationReady(void)
	?isPlayServiceInvoked@VideoPlayerEngine@@AAE_NXZ @ 54 NONAME ; bool VideoPlayerEngine::isPlayServiceInvoked(void)
	?metaObject@VideoPlayerEngine@@UBEPBUQMetaObject@@XZ @ 55 NONAME ; struct QMetaObject const * VideoPlayerEngine::metaObject(void) const
	?activateView@VideoPlayerEngine@@AAEXW4MpxHbVideoViewType@MpxHbVideoCommon@@@Z @ 56 NONAME ; void VideoPlayerEngine::activateView(enum MpxHbVideoCommon::MpxHbVideoViewType)
	??_EVideoPlayerEngine@@UAE@I@Z @ 57 NONAME ; VideoPlayerEngine::~VideoPlayerEngine(unsigned int)
	?contextTitle@VideoServices@@QBE?AVQString@@XZ @ 58 NONAME ; class QString VideoServices::contextTitle(void) const
	?disconnectView@VideoPlayerEngine@@AAEXXZ @ 59 NONAME ; void VideoPlayerEngine::disconnectView(void)
	?currentService@VideoServices@@QAE?AW4TVideoService@1@XZ @ 60 NONAME ; enum VideoServices::TVideoService VideoServices::currentService(void)
	?qt_metacall@VideoServices@@UAEHW4Call@QMetaObject@@HPAPAX@Z @ 61 NONAME ; int VideoServices::qt_metacall(enum QMetaObject::Call, int, void * *)
	?handleQuit@VideoPlayerEngine@@AAEXXZ @ 62 NONAME ; void VideoPlayerEngine::handleQuit(void)
	?playURI@VideoPlayerEngine@@QAEXVQString@@@Z @ 63 NONAME ; void VideoPlayerEngine::playURI(class QString)
	?mInstance@VideoServices@@0PAV1@A @ 64 NONAME ; class VideoServices * VideoServices::mInstance
	??1VideoPlayerEngine@@UAE@XZ @ 65 NONAME ; VideoPlayerEngine::~VideoPlayerEngine(void)
	?shouldActivateCollectionView@VideoPlayerEngine@@AAE_NXZ @ 66 NONAME ; bool VideoPlayerEngine::shouldActivateCollectionView(void)

