EXPORTS
	_ZN24CVTYUVFbsBitmapConverter15SetDestinationLERK10CFbsBitmap @ 1 NONAME
	_ZN24CVTYUVFbsBitmapConverter15SetDestinationLEi @ 2 NONAME
	_ZN24CVTYUVFbsBitmapConverter8ProcessLEv @ 3 NONAME
	_ZN24CVTYUVFbsBitmapConverterD0Ev @ 4 NONAME
	_ZN24CVTYUVFbsBitmapConverterD1Ev @ 5 NONAME
	_ZN24CVTYUVFbsBitmapConverterD2Ev @ 6 NONAME
	_ZN25CVSFbsBitmapIYUVConverter10SetSourceLERK10CFbsBitmap @ 7 NONAME
	_ZN25CVSFbsBitmapIYUVConverter4NewLERK10CFbsBitmap @ 8 NONAME
	_ZN25CVSFbsBitmapIYUVConverter8ProcessLEv @ 9 NONAME
	_ZN25CVSFbsBitmapIYUVConverterD0Ev @ 10 NONAME
	_ZN25CVSFbsBitmapIYUVConverterD1Ev @ 11 NONAME
	_ZN25CVSFbsBitmapIYUVConverterD2Ev @ 12 NONAME
	_ZN25CVTIYUVFbsBitmapConverter4NewLERK5TSizeRK10CFbsBitmap @ 13 NONAME
	_ZN25CVTIYUVFbsBitmapConverter4NewLERK5TSizei @ 14 NONAME
	_ZN25CVTYV12FbsBitmapConverter4NewLERK5TSizeRK10CFbsBitmap @ 15 NONAME
	_ZN25CVTYV12FbsBitmapConverter4NewLERK5TSizei @ 16 NONAME
	_ZN30CVTYUVPlanarFbsBitmapConverter10SetSourceLERK5TSizeRK6TDesC8 @ 17 NONAME
	_ZN30CVTYUVPlanarFbsBitmapConverter10SetSourceLERK6TDesC8 @ 18 NONAME
	_ZN30CVTYUVPlanarFbsBitmapConverter14SetSourceSizeLERK5TSize @ 19 NONAME
	_ZNK25CVSFbsBitmapIYUVConverter7YUVDataEv @ 20 NONAME
	_ZTI24CVTYUVFbsBitmapConverter @ 21 NONAME ; #<TI>#
	_ZTI25CVSFbsBitmapIYUVConverter @ 22 NONAME ; #<TI>#
	_ZTI25CVTIYUVFbsBitmapConverter @ 23 NONAME ; #<TI>#
	_ZTI25CVTYV12FbsBitmapConverter @ 24 NONAME ; #<TI>#
	_ZTI30CVTYUVPlanarFbsBitmapConverter @ 25 NONAME ; #<TI>#
	_ZTV24CVTYUVFbsBitmapConverter @ 26 NONAME ; #<VT>#
	_ZTV25CVSFbsBitmapIYUVConverter @ 27 NONAME ; #<VT>#
	_ZTV25CVTIYUVFbsBitmapConverter @ 28 NONAME ; #<VT>#
	_ZTV25CVTYV12FbsBitmapConverter @ 29 NONAME ; #<VT>#
	_ZTV30CVTYUVPlanarFbsBitmapConverter @ 30 NONAME ; #<VT>#

