EXPORTS
	_ZN12CVtImageIYUV4NewLERK5TSize @ 1 NONAME
	_ZN12CVtImageIYUV4NewLERK5TSizeR5TPtr8 @ 2 NONAME
	_ZN12CVtImageIYUV4NewLERK5TSizeRK6TDesC8 @ 3 NONAME
	_ZN12CVtImageIYUV9SetImageLER5TPtr8 @ 4 NONAME
	_ZN12CVtImageIYUV9SetImageLERK6TDesC8 @ 5 NONAME
	_ZN12CVtImageIYUVD0Ev @ 6 NONAME
	_ZN12CVtImageIYUVD1Ev @ 7 NONAME
	_ZN12CVtImageIYUVD2Ev @ 8 NONAME
	_ZN14CVtImageBitmap10SetBitmapLEi @ 9 NONAME
	_ZN14CVtImageBitmap4NewLERK5TSize12TDisplayMode @ 10 NONAME
	_ZN14CVtImageBitmap4NewLEi @ 11 NONAME
	_ZN14CVtImageBitmap7ResizeLERK5TSize @ 12 NONAME
	_ZN14CVtImageBitmapD0Ev @ 13 NONAME
	_ZN14CVtImageBitmapD1Ev @ 14 NONAME
	_ZN14CVtImageBitmapD2Ev @ 15 NONAME
	_ZN14CVtImageScaler11SetQualityLENS_8TQualityE @ 16 NONAME
	_ZN14CVtImageScaler4NewLER22MVtImageScalerObserverNS_8TQualityEN7CActive9TPriorityE @ 17 NONAME
	_ZN14CVtImageScaler6ScaleLERK8CVtImageRS0_ @ 18 NONAME
	_ZN14CVtImageScalerD0Ev @ 19 NONAME
	_ZN14CVtImageScalerD1Ev @ 20 NONAME
	_ZN14CVtImageScalerD2Ev @ 21 NONAME
	_ZN15CVtImageRotator4NewLER23MVtImageRotatorObserverN7CActive9TPriorityE @ 22 NONAME
	_ZN15CVtImageRotator7RotateLERK8CVtImageRS0_RKNS_14TRotationAngleE @ 23 NONAME
	_ZN15CVtImageRotatorD0Ev @ 24 NONAME
	_ZN15CVtImageRotatorD1Ev @ 25 NONAME
	_ZN15CVtImageRotatorD2Ev @ 26 NONAME
	_ZNK12CVtImageIYUV12UVPlaneWidthEv @ 27 NONAME
	_ZNK12CVtImageIYUV13UVPlaneHeightEv @ 28 NONAME
	_ZNK12CVtImageIYUV1UEv @ 29 NONAME
	_ZNK12CVtImageIYUV1VEv @ 30 NONAME
	_ZNK12CVtImageIYUV1YEv @ 31 NONAME
	_ZNK12CVtImageIYUV5ImageEv @ 32 NONAME
	_ZNK14CVtImageBitmap6BitmapEv @ 33 NONAME
	_ZNK8CVtImage4TypeEv @ 34 NONAME
	_ZTI12CVtImageIYUV @ 35 NONAME ; #<TI>#
	_ZTI14CVtImageBitmap @ 36 NONAME ; #<TI>#
	_ZTI14CVtImageScaler @ 37 NONAME ; #<TI>#
	_ZTI15CVtImageRotator @ 38 NONAME ; #<TI>#
	_ZTI25CVtImageScalerImplNearest @ 39 NONAME ; #<TI>#
	_ZTI26CVtImageScalerImplBilinear @ 40 NONAME ; #<TI>#
	_ZTI28CVtImageRotatorImplClockwise @ 41 NONAME ; #<TI>#
	_ZTI29CVtImageRotatorImplMirrorFlip @ 42 NONAME ; #<TI>#
	_ZTI33CVtImageScalerImplWeightedAverage @ 43 NONAME ; #<TI>#
	_ZTV12CVtImageIYUV @ 44 NONAME ; #<VT>#
	_ZTV14CVtImageBitmap @ 45 NONAME ; #<VT>#
	_ZTV14CVtImageScaler @ 46 NONAME ; #<VT>#
	_ZTV15CVtImageRotator @ 47 NONAME ; #<VT>#
	_ZTV25CVtImageScalerImplNearest @ 48 NONAME ; #<VT>#
	_ZTV26CVtImageScalerImplBilinear @ 49 NONAME ; #<VT>#
	_ZTV28CVtImageRotatorImplClockwise @ 50 NONAME ; #<VT>#
	_ZTV29CVtImageRotatorImplMirrorFlip @ 51 NONAME ; #<VT>#
	_ZTV33CVtImageScalerImplWeightedAverage @ 52 NONAME ; #<VT>#
	_ZN14CVtImageScaler5ScaleERK8CVtImageRS0_ @ 53 NONAME
	_ZN15CVtImageRotator6RotateERK8CVtImageRS0_RKNS_14TRotationAngleE @ 54 NONAME
	_ZN14CVtImageScaler9ScaleNowLERK8CVtImageRS0_ @ 55 NONAME
	_ZTI18CVtImageScalerImpl @ 56 NONAME ; #<TI>#
	_ZTV18CVtImageScalerImpl @ 57 NONAME ; #<VT>#

