EXPORTS
	??1GlxDetailsIcon@@UAE@XZ @ 1 NONAME ; GlxDetailsIcon::~GlxDetailsIcon(void)
	??1GlxDetailsTextEdit@@UAE@XZ @ 2 NONAME ; GlxDetailsTextEdit::~GlxDetailsTextEdit(void)
	?trUtf8@GlxDetailsIcon@@SA?AVQString@@PBD0H@Z @ 3 NONAME ; class QString GlxDetailsIcon::trUtf8(char const *, char const *, int)
	?qt_metacall@GlxDetailsIcon@@UAEHW4Call@QMetaObject@@HPAPAX@Z @ 4 NONAME ; int GlxDetailsIcon::qt_metacall(enum QMetaObject::Call, int, void * *)
	?metaObject@GlxDetailsIcon@@UBEPBUQMetaObject@@XZ @ 5 NONAME ; struct QMetaObject const * GlxDetailsIcon::metaObject(void) const
	?tr@GlxDetailsIcon@@SA?AVQString@@PBD0H@Z @ 6 NONAME ; class QString GlxDetailsIcon::tr(char const *, char const *, int)
	?staticMetaObject@GlxDetailsIcon@@2UQMetaObject@@B @ 7 NONAME ; struct QMetaObject const GlxDetailsIcon::staticMetaObject
	??_EGlxDetailsTextEdit@@UAE@I@Z @ 8 NONAME ; GlxDetailsTextEdit::~GlxDetailsTextEdit(unsigned int)
	?tr@GlxDetailsTextEdit@@SA?AVQString@@PBD0@Z @ 9 NONAME ; class QString GlxDetailsTextEdit::tr(char const *, char const *)
	?gestureEvent@GlxDetailsTextEdit@@MAEXPAVQGestureEvent@@@Z @ 10 NONAME ; void GlxDetailsTextEdit::gestureEvent(class QGestureEvent *)
	?trUtf8@GlxDetailsIcon@@SA?AVQString@@PBD0@Z @ 11 NONAME ; class QString GlxDetailsIcon::trUtf8(char const *, char const *)
	?setTextItemReadOnly@GlxDetailsTextEdit@@QAEX_N@Z @ 12 NONAME ; void GlxDetailsTextEdit::setTextItemReadOnly(bool)
	?getStaticMetaObject@GlxDetailsTextEdit@@SAABUQMetaObject@@XZ @ 13 NONAME ; struct QMetaObject const & GlxDetailsTextEdit::getStaticMetaObject(void)
	?updateFavourites@GlxDetailsIcon@@IAEXXZ @ 14 NONAME ; void GlxDetailsIcon::updateFavourites(void)
	?mousePressEvent@GlxDetailsIcon@@MAEXPAVQGraphicsSceneMouseEvent@@@Z @ 15 NONAME ; void GlxDetailsIcon::mousePressEvent(class QGraphicsSceneMouseEvent *)
	?staticMetaObject@GlxDetailsTextEdit@@2UQMetaObject@@B @ 16 NONAME ; struct QMetaObject const GlxDetailsTextEdit::staticMetaObject
	?tr@GlxDetailsIcon@@SA?AVQString@@PBD0@Z @ 17 NONAME ; class QString GlxDetailsIcon::tr(char const *, char const *)
	?setItemText@GlxDetailsTextEdit@@QAEXABVQString@@@Z @ 18 NONAME ; void GlxDetailsTextEdit::setItemText(class QString const &)
	?getStaticMetaObject@GlxDetailsIcon@@SAABUQMetaObject@@XZ @ 19 NONAME ; struct QMetaObject const & GlxDetailsIcon::getStaticMetaObject(void)
	?qt_metacall@GlxDetailsTextEdit@@UAEHW4Call@QMetaObject@@HPAPAX@Z @ 20 NONAME ; int GlxDetailsTextEdit::qt_metacall(enum QMetaObject::Call, int, void * *)
	?trUtf8@GlxDetailsTextEdit@@SA?AVQString@@PBD0H@Z @ 21 NONAME ; class QString GlxDetailsTextEdit::trUtf8(char const *, char const *, int)
	?mouseReleaseEvent@GlxDetailsIcon@@MAEXPAVQGraphicsSceneMouseEvent@@@Z @ 22 NONAME ; void GlxDetailsIcon::mouseReleaseEvent(class QGraphicsSceneMouseEvent *)
	?qt_metacast@GlxDetailsIcon@@UAEPAXPBD@Z @ 23 NONAME ; void * GlxDetailsIcon::qt_metacast(char const *)
	??_EGlxDetailsIcon@@UAE@I@Z @ 24 NONAME ; GlxDetailsIcon::~GlxDetailsIcon(unsigned int)
	?trUtf8@GlxDetailsTextEdit@@SA?AVQString@@PBD0@Z @ 25 NONAME ; class QString GlxDetailsTextEdit::trUtf8(char const *, char const *)
	?editorTapped@GlxDetailsTextEdit@@IAEXXZ @ 26 NONAME ; void GlxDetailsTextEdit::editorTapped(void)
	?metaObject@GlxDetailsTextEdit@@UBEPBUQMetaObject@@XZ @ 27 NONAME ; struct QMetaObject const * GlxDetailsTextEdit::metaObject(void) const
	?qt_metacast@GlxDetailsTextEdit@@UAEPAXPBD@Z @ 28 NONAME ; void * GlxDetailsTextEdit::qt_metacast(char const *)
	?tr@GlxDetailsTextEdit@@SA?AVQString@@PBD0H@Z @ 29 NONAME ; class QString GlxDetailsTextEdit::tr(char const *, char const *, int)
	??0GlxDetailsIcon@@QAE@PAVQGraphicsItem@@@Z @ 30 NONAME ; GlxDetailsIcon::GlxDetailsIcon(class QGraphicsItem *)
	??0GlxDetailsTextEdit@@QAE@PAVQGraphicsItem@@@Z @ 31 NONAME ; GlxDetailsTextEdit::GlxDetailsTextEdit(class QGraphicsItem *)
	?setItemIcon@GlxDetailsIcon@@QAEXABVHbIcon@@@Z @ 32 NONAME ; void GlxDetailsIcon::setItemIcon(class HbIcon const &)

