EXPORTS
	?scrollingFinished@CalenPreviewPane@@QAEXXZ @ 1 NONAME ; void CalenPreviewPane::scrollingFinished(void)
	?fetchEntriesAndUpdateModel@CalenMonthView@@QAEXXZ @ 2 NONAME ; void CalenMonthView::fetchEntriesAndUpdateModel(void)
	?setDate@CalenMonthView@@AAEXXZ @ 3 NONAME ; void CalenMonthView::setDate(void)
	?showHideRegionalInformation@CalenMonthView@@AAEXXZ @ 4 NONAME ; void CalenMonthView::showHideRegionalInformation(void)
	?updateMonthGridWithEventIndicators@CalenMonthGrid@@QAEXAAV?$QList@VCalenMonthData@@@@@Z @ 5 NONAME ; void CalenMonthGrid::updateMonthGridWithEventIndicators(class QList<class CalenMonthData> &)
	?handleGridItemActivated@CalenMonthView@@QAEXXZ @ 6 NONAME ; void CalenMonthView::handleGridItemActivated(void)
	?setFocusToProperDay@CalenMonthGrid@@AAEXXZ @ 7 NONAME ; void CalenMonthGrid::setFocusToProperDay(void)
	??1CalenPreviewPane@@UAE@XZ @ 8 NONAME ; CalenPreviewPane::~CalenPreviewPane(void)
	?mousePressEvent@CalenMonthGrid@@EAEXPAVQGraphicsSceneMouseEvent@@@Z @ 9 NONAME ; void CalenMonthGrid::mousePressEvent(class QGraphicsSceneMouseEvent *)
	?scrollVertically@CalenDayHourScrollArea@@QAEXABVQPointF@@@Z @ 10 NONAME ; void CalenDayHourScrollArea::scrollVertically(class QPointF const &)
	?disconnectAboutToQuitEvent@CalenMonthView@@QAEXXZ @ 11 NONAME ; void CalenMonthView::disconnectAboutToQuitEvent(void)
	?monthDataList@CalenMonthView@@QAEAAV?$QList@VCalenMonthData@@@@XZ @ 12 NONAME ; class QList<class CalenMonthData> & CalenMonthView::monthDataList(void)
	?completePopulation@CalenMonthView@@AAEXXZ @ 13 NONAME ; void CalenMonthView::completePopulation(void)
	??0CalenAgendaViewWidget@@QAE@AAVMCalenServices@@PAVCalenDocLoader@@@Z @ 14 NONAME ; CalenAgendaViewWidget::CalenAgendaViewWidget(class MCalenServices &, class CalenDocLoader *)
	?handleAppendingRows@CalenMonthGrid@@AAEXAAV?$QList@VCalenMonthData@@@@@Z @ 15 NONAME ; void CalenMonthGrid::handleAppendingRows(class QList<class CalenMonthData> &)
	?handleChangeOrientation@CalenMonthView@@AAEXXZ @ 16 NONAME ; void CalenMonthView::handleChangeOrientation(void)
	?staticMetaObject@CalenSettingsView@@2UQMetaObject@@B @ 17 NONAME ; struct QMetaObject const CalenSettingsView::staticMetaObject
	?docLoader@CalenAgendaView@@QAEPAVCalenDocLoader@@XZ @ 18 NONAME ; class CalenDocLoader * CalenAgendaView::docLoader(void)
	?getStaticMetaObject@CalenSettingsView@@SAABUQMetaObject@@XZ @ 19 NONAME ; struct QMetaObject const & CalenSettingsView::getStaticMetaObject(void)
	?updateMonthDataArrayWithActiveDates@CalenMonthView@@AAEXXZ @ 20 NONAME ; void CalenMonthView::updateMonthDataArrayWithActiveDates(void)
	?scrollingFinished@CalenMonthGrid@@QAEXXZ @ 21 NONAME ; void CalenMonthGrid::scrollingFinished(void)
	??_ECalenDayHourScrollArea@@UAE@I@Z @ 22 NONAME ; CalenDayHourScrollArea::~CalenDayHourScrollArea(unsigned int)
	??0CalenDayHourScrollArea@@QAE@PAVQGraphicsItem@@@Z @ 23 NONAME ; CalenDayHourScrollArea::CalenDayHourScrollArea(class QGraphicsItem *)
	?setCurrentIdex@CalenMonthGrid@@QAEXH@Z @ 24 NONAME ; void CalenMonthGrid::setCurrentIdex(int)
	??1CalenDayHourScrollArea@@UAE@XZ @ 25 NONAME ; CalenDayHourScrollArea::~CalenDayHourScrollArea(void)
	?setupView@CalenAgendaView@@QAEXPAVCalenDocLoader@@@Z @ 26 NONAME ; void CalenAgendaView::setupView(class CalenDocLoader *)
	??_ECalenMonthGrid@@UAE@I@Z @ 27 NONAME ; CalenMonthGrid::~CalenMonthGrid(unsigned int)
	?trUtf8@CalenPreviewPane@@SA?AVQString@@PBD0@Z @ 28 NONAME ; class QString CalenPreviewPane::trUtf8(char const *, char const *)
	?trUtf8@CalenMonthGrid@@SA?AVQString@@PBD0@Z @ 29 NONAME ; class QString CalenMonthGrid::trUtf8(char const *, char const *)
	?qt_metacall@CalenDayContentScrollArea@@UAEHW4Call@QMetaObject@@HPAPAX@Z @ 30 NONAME ; int CalenDayContentScrollArea::qt_metacall(enum QMetaObject::Call, int, void * *)
	?handleThemeChange@CalenMonthGrid@@AAEXXZ @ 31 NONAME ; void CalenMonthGrid::handleThemeChange(void)
	?populatePrevMonth@CalenMonthView@@QAEXXZ @ 32 NONAME ; void CalenMonthView::populatePrevMonth(void)
	?qt_metacall@CalenSettingsView@@UAEHW4Call@QMetaObject@@HPAPAX@Z @ 33 NONAME ; int CalenSettingsView::qt_metacall(enum QMetaObject::Call, int, void * *)
	?polish@CalenThickLinesDrawer@@MAEXAAVHbStyleParameters@@@Z @ 34 NONAME ; void CalenThickLinesDrawer::polish(class HbStyleParameters &)
	?trUtf8@CalenDayHourScrollArea@@SA?AVQString@@PBD0@Z @ 35 NONAME ; class QString CalenDayHourScrollArea::trUtf8(char const *, char const *)
	??1CalenPluginLabel@@UAE@XZ @ 36 NONAME ; CalenPluginLabel::~CalenPluginLabel(void)
	?handleLeftEffectCompleted@CalenMonthView@@AAEXABUEffectStatus@HbEffect@@@Z @ 37 NONAME ; void CalenMonthView::handleLeftEffectCompleted(struct HbEffect::EffectStatus const &)
	?trUtf8@CalenDayHourScrollArea@@SA?AVQString@@PBD0H@Z @ 38 NONAME ; class QString CalenDayHourScrollArea::trUtf8(char const *, char const *, int)
	?getStaticMetaObject@CalenMonthGrid@@SAABUQMetaObject@@XZ @ 39 NONAME ; struct QMetaObject const & CalenMonthGrid::getStaticMetaObject(void)
	?gestureEvent@CalenDayContentScrollArea@@MAEXPAVQGestureEvent@@@Z @ 40 NONAME ; void CalenDayContentScrollArea::gestureEvent(class QGestureEvent *)
	?trUtf8@CalenSettingsView@@SA?AVQString@@PBD0H@Z @ 41 NONAME ; class QString CalenSettingsView::trUtf8(char const *, char const *, int)
	?qt_metacast@CalenMonthView@@UAEPAXPBD@Z @ 42 NONAME ; void * CalenMonthView::qt_metacast(char const *)
	?staticMetaObject@CalenMonthView@@2UQMetaObject@@B @ 43 NONAME ; struct QMetaObject const CalenMonthView::staticMetaObject
	?setupView@CalenMonthView@@QAEXPAVCalenDocLoader@@@Z @ 44 NONAME ; void CalenMonthView::setupView(class CalenDocLoader *)
	?metaObject@CalenMonthGrid@@UBEPBUQMetaObject@@XZ @ 45 NONAME ; struct QMetaObject const * CalenMonthGrid::metaObject(void) const
	??_ECalenDayContentScrollArea@@UAE@I@Z @ 46 NONAME ; CalenDayContentScrollArea::~CalenDayContentScrollArea(unsigned int)
	?startAutoScroll@CalenPreviewPane@@QAEXXZ @ 47 NONAME ; void CalenPreviewPane::startAutoScroll(void)
	?doLazyLoading@CalenMonthView@@QAEXXZ @ 48 NONAME ; void CalenMonthView::doLazyLoading(void)
	?setView@CalenMonthGrid@@QAEXPAVCalenMonthView@@@Z @ 49 NONAME ; void CalenMonthGrid::setView(class CalenMonthView *)
	?localeChanged@CalenDayHourScrollArea@@QAEXXZ @ 50 NONAME ; void CalenDayHourScrollArea::localeChanged(void)
	?tr@CalenDayHourScrollArea@@SA?AVQString@@PBD0@Z @ 51 NONAME ; class QString CalenDayHourScrollArea::tr(char const *, char const *)
	?staticMetaObject@CalenDayContentScrollArea@@2UQMetaObject@@B @ 52 NONAME ; struct QMetaObject const CalenDayContentScrollArea::staticMetaObject
	??1CalenSettingsView@@UAE@XZ @ 53 NONAME ; CalenSettingsView::~CalenSettingsView(void)
	?tapTriggered@CalenPreviewPane@@AAEXXZ @ 54 NONAME ; void CalenPreviewPane::tapTriggered(void)
	?Date@CalenPreviewPane@@QAE?AVQDateTime@@XZ @ 55 NONAME ; class QDateTime CalenPreviewPane::Date(void)
	?tr@CalenPreviewPane@@SA?AVQString@@PBD0H@Z @ 56 NONAME ; class QString CalenPreviewPane::tr(char const *, char const *, int)
	?metaObject@CalenMonthView@@UBEPBUQMetaObject@@XZ @ 57 NONAME ; struct QMetaObject const * CalenMonthView::metaObject(void) const
	??0CalenPreviewPane@@QAE@AAVMCalenServices@@PAVQGraphicsItem@@@Z @ 58 NONAME ; CalenPreviewPane::CalenPreviewPane(class MCalenServices &, class QGraphicsItem *)
	?rowsInPrevMonth@CalenMonthView@@QAEHXZ @ 59 NONAME ; int CalenMonthView::rowsInPrevMonth(void)
	?handlePrependingRows@CalenMonthGrid@@AAEXAAV?$QList@VCalenMonthData@@@@@Z @ 60 NONAME ; void CalenMonthGrid::handlePrependingRows(class QList<class CalenMonthData> &)
	?metaObject@CalenPreviewPane@@UBEPBUQMetaObject@@XZ @ 61 NONAME ; struct QMetaObject const * CalenPreviewPane::metaObject(void) const
	?clearListModel@CalenAgendaView@@QAEXXZ @ 62 NONAME ; void CalenAgendaView::clearListModel(void)
	?gestureEvent@CalenMonthGrid@@MAEXPAVQGestureEvent@@@Z @ 63 NONAME ; void CalenMonthGrid::gestureEvent(class QGestureEvent *)
	??0CalenDayView@@QAE@AAVMCalenServices@@@Z @ 64 NONAME ; CalenDayView::CalenDayView(class MCalenServices &)
	?checkPanDirection@CalenDayContentScrollArea@@AAEXPAVQPanGesture@@@Z @ 65 NONAME ; void CalenDayContentScrollArea::checkPanDirection(class QPanGesture *)
	?populateNextMonth@CalenMonthView@@QAEXXZ @ 66 NONAME ; void CalenMonthView::populateNextMonth(void)
	?handleRightEffectCompleted@CalenMonthView@@AAEXABUEffectStatus@HbEffect@@@Z @ 67 NONAME ; void CalenMonthView::handleRightEffectCompleted(struct HbEffect::EffectStatus const &)
	?qt_metacast@CalenMonthGrid@@UAEPAXPBD@Z @ 68 NONAME ; void * CalenMonthGrid::qt_metacast(char const *)
	?firstDayOfGrid@CalenMonthView@@QAE?AVQDateTime@@XZ @ 69 NONAME ; class QDateTime CalenMonthView::firstDayOfGrid(void)
	?trUtf8@CalenDayContentScrollArea@@SA?AVQString@@PBD0@Z @ 70 NONAME ; class QString CalenDayContentScrollArea::trUtf8(char const *, char const *)
	?isHorizontalSwipe@CalenDayContentScrollArea@@ABE_NM@Z @ 71 NONAME ; bool CalenDayContentScrollArea::isHorizontalSwipe(float) const
	?rowsInFutMonth@CalenMonthView@@QAEHXZ @ 72 NONAME ; int CalenMonthView::rowsInFutMonth(void)
	?launchDayView@CalenMonthView@@QAEXXZ @ 73 NONAME ; void CalenMonthView::launchDayView(void)
	?effectStarted@CalenPreviewPane@@QAEXXZ @ 74 NONAME ; void CalenPreviewPane::effectStarted(void)
	?getCurrGridIndex@CalenMonthView@@QAEHXZ @ 75 NONAME ; int CalenMonthView::getCurrGridIndex(void)
	?gestureEvent@CalenPreviewPane@@MAEXPAVQGestureEvent@@@Z @ 76 NONAME ; void CalenPreviewPane::gestureEvent(class QGestureEvent *)
	?prependRows@CalenMonthGrid@@QAEXXZ @ 77 NONAME ; void CalenMonthGrid::prependRows(void)
	?qt_metacall@CalenPreviewPane@@UAEHW4Call@QMetaObject@@HPAPAX@Z @ 78 NONAME ; int CalenPreviewPane::qt_metacall(enum QMetaObject::Call, int, void * *)
	??0CalenDayContentScrollArea@@QAE@PAVQGraphicsItem@@@Z @ 79 NONAME ; CalenDayContentScrollArea::CalenDayContentScrollArea(class QGraphicsItem *)
	?event@CalenDayContentScrollArea@@MAE_NPAVQEvent@@@Z @ 80 NONAME ; bool CalenDayContentScrollArea::event(class QEvent *)
	?trUtf8@CalenPreviewPane@@SA?AVQString@@PBD0H@Z @ 81 NONAME ; class QString CalenPreviewPane::trUtf8(char const *, char const *, int)
	??1CalenThickLinesDrawer@@UAE@XZ @ 82 NONAME ; CalenThickLinesDrawer::~CalenThickLinesDrawer(void)
	?qt_metacast@CalenDayContentScrollArea@@UAEPAXPBD@Z @ 83 NONAME ; void * CalenDayContentScrollArea::qt_metacast(char const *)
	?setView@CalenPreviewPane@@QAEXPAVCalenMonthView@@@Z @ 84 NONAME ; void CalenPreviewPane::setView(class CalenMonthView *)
	??_ECalenMonthView@@UAE@I@Z @ 85 NONAME ; CalenMonthView::~CalenMonthView(unsigned int)
	??1CalenAgendaView@@UAE@XZ @ 86 NONAME ; CalenAgendaView::~CalenAgendaView(void)
	?handleThemeChange@CalenThickLinesDrawer@@AAEXXZ @ 87 NONAME ; void CalenThickLinesDrawer::handleThemeChange(void)
	?tr@CalenDayContentScrollArea@@SA?AVQString@@PBD0@Z @ 88 NONAME ; class QString CalenDayContentScrollArea::tr(char const *, char const *)
	?populatePreviewPane@CalenMonthView@@QAEXAAVQDateTime@@@Z @ 89 NONAME ; void CalenMonthView::populatePreviewPane(class QDateTime &)
	??0CalenSettingsView@@QAE@AAVMCalenServices@@PAVQGraphicsItem@@@Z @ 90 NONAME ; CalenSettingsView::CalenSettingsView(class MCalenServices &, class QGraphicsItem *)
	??0CalenAgendaView@@QAE@AAVMCalenServices@@@Z @ 91 NONAME ; CalenAgendaView::CalenAgendaView(class MCalenServices &)
	?updateTimeIndicator@CalenDayHourScrollArea@@QAEXXZ @ 92 NONAME ; void CalenDayHourScrollArea::updateTimeIndicator(void)
	?updateModelWithPrevMonth@CalenMonthView@@QAEXXZ @ 93 NONAME ; void CalenMonthView::updateModelWithPrevMonth(void)
	?scrollToMiddleWidget@CalenDayContentScrollArea@@QAEXXZ @ 94 NONAME ; void CalenDayContentScrollArea::scrollToMiddleWidget(void)
	?eventFilter@CalenDayContentScrollArea@@MAE_NPAVQObject@@PAVQEvent@@@Z @ 95 NONAME ; bool CalenDayContentScrollArea::eventFilter(class QObject *, class QEvent *)
	?stopScrolling@CalenPreviewPane@@QAEXXZ @ 96 NONAME ; void CalenPreviewPane::stopScrolling(void)
	?tr@CalenDayHourScrollArea@@SA?AVQString@@PBD0H@Z @ 97 NONAME ; class QString CalenDayHourScrollArea::tr(char const *, char const *, int)
	?staticMetaObject@CalenDayHourScrollArea@@2UQMetaObject@@B @ 98 NONAME ; struct QMetaObject const CalenDayHourScrollArea::staticMetaObject
	?refreshView@CalenSettingsView@@QAEXXZ @ 99 NONAME ; void CalenSettingsView::refreshView(void)
	?getStaticMetaObject@CalenDayHourScrollArea@@SAABUQMetaObject@@XZ @ 100 NONAME ; struct QMetaObject const & CalenDayHourScrollArea::getStaticMetaObject(void)
	?addBackgroundFrame@CalenMonthView@@AAEXXZ @ 101 NONAME ; void CalenMonthView::addBackgroundFrame(void)
	?createGrid@CalenMonthView@@AAEXXZ @ 102 NONAME ; void CalenMonthView::createGrid(void)
	?tr@CalenPreviewPane@@SA?AVQString@@PBD0@Z @ 103 NONAME ; class QString CalenPreviewPane::tr(char const *, char const *)
	?getStaticMetaObject@CalenPreviewPane@@SAABUQMetaObject@@XZ @ 104 NONAME ; struct QMetaObject const & CalenPreviewPane::getStaticMetaObject(void)
	?setDateToLabel@CalenMonthView@@AAEXXZ @ 105 NONAME ; void CalenMonthView::setDateToLabel(void)
	?setCurrGridIndex@CalenMonthView@@QAEXH@Z @ 106 NONAME ; void CalenMonthView::setCurrGridIndex(int)
	?launchPreviousView@CalenSettingsView@@AAEXXZ @ 107 NONAME ; void CalenSettingsView::launchPreviousView(void)
	?addWeekNumbers@CalenMonthView@@AAEXXZ @ 108 NONAME ; void CalenMonthView::addWeekNumbers(void)
	?downGesture@CalenMonthGrid@@AAEXXZ @ 109 NONAME ; void CalenMonthGrid::downGesture(void)
	?setDateTime@CalenDayHourScrollArea@@QAEXABVQDateTime@@@Z @ 110 NONAME ; void CalenDayHourScrollArea::setDateTime(class QDateTime const &)
	?qt_metacall@CalenThickLinesDrawer@@UAEHW4Call@QMetaObject@@HPAPAX@Z @ 111 NONAME ; int CalenThickLinesDrawer::qt_metacall(enum QMetaObject::Call, int, void * *)
	?setupView@CalenDayView@@QAEXPAVCalenDocLoader@@@Z @ 112 NONAME ; void CalenDayView::setupView(class CalenDocLoader *)
	?handleThemeChange@CalenPreviewPane@@QAEXXZ @ 113 NONAME ; void CalenPreviewPane::handleThemeChange(void)
	?upGesture@CalenMonthGrid@@AAEXXZ @ 114 NONAME ; void CalenMonthGrid::upGesture(void)
	??1CalenMonthView@@UAE@XZ @ 115 NONAME ; CalenMonthView::~CalenMonthView(void)
	?scrollAreaMoveFinished@CalenDayContentScrollArea@@IAEXW4CalenScrollDirection@@@Z @ 116 NONAME ; void CalenDayContentScrollArea::scrollAreaMoveFinished(enum CalenScrollDirection)
	?moveTo@CalenDayContentScrollArea@@AAEXABVQPointF@@H@Z @ 117 NONAME ; void CalenDayContentScrollArea::moveTo(class QPointF const &, int)
	?staticMetaObject@CalenMonthGrid@@2UQMetaObject@@B @ 118 NONAME ; struct QMetaObject const CalenMonthGrid::staticMetaObject
	?dateFromContext@CalenMonthView@@AAE?AVQDateTime@@ABVMCalenContext@@@Z @ 119 NONAME ; class QDateTime CalenMonthView::dateFromContext(class MCalenContext const &)
	?tr@CalenDayContentScrollArea@@SA?AVQString@@PBD0H@Z @ 120 NONAME ; class QString CalenDayContentScrollArea::tr(char const *, char const *, int)
	?scrollAreaMoveStarted@CalenDayContentScrollArea@@IAEXW4CalenScrollDirection@@@Z @ 121 NONAME ; void CalenDayContentScrollArea::scrollAreaMoveStarted(enum CalenScrollDirection)
	?checkIfWeCanScroll@CalenMonthGrid@@AAE_NW4scrollDirection@@@Z @ 122 NONAME ; bool CalenMonthGrid::checkIfWeCanScroll(enum scrollDirection)
	?trUtf8@CalenMonthGrid@@SA?AVQString@@PBD0H@Z @ 123 NONAME ; class QString CalenMonthGrid::trUtf8(char const *, char const *, int)
	?paint@CalenThickLinesDrawer@@EAEXPAVQPainter@@PBVQStyleOptionGraphicsItem@@PAVQWidget@@@Z @ 124 NONAME ; void CalenThickLinesDrawer::paint(class QPainter *, class QStyleOptionGraphicsItem const *, class QWidget *)
	?initializeForm@CalenSettingsView@@QAEXXZ @ 125 NONAME ; void CalenSettingsView::initializeForm(void)
	?effectFinished@CalenPreviewPane@@QAEXXZ @ 126 NONAME ; void CalenPreviewPane::effectFinished(void)
	?tr@CalenMonthGrid@@SA?AVQString@@PBD0H@Z @ 127 NONAME ; class QString CalenMonthGrid::tr(char const *, char const *, int)
	?handlePanGestureFinished@CalenMonthGrid@@AAEXXZ @ 128 NONAME ; void CalenMonthGrid::handlePanGestureFinished(void)
	?metaObject@CalenDayContentScrollArea@@UBEPBUQMetaObject@@XZ @ 129 NONAME ; struct QMetaObject const * CalenDayContentScrollArea::metaObject(void) const
	?goToToday@CalenMonthView@@AAEXXZ @ 130 NONAME ; void CalenMonthView::goToToday(void)
	?trUtf8@CalenThickLinesDrawer@@SA?AVQString@@PBD0H@Z @ 131 NONAME ; class QString CalenThickLinesDrawer::trUtf8(char const *, char const *, int)
	?qt_metacast@CalenPreviewPane@@UAEPAXPBD@Z @ 132 NONAME ; void * CalenPreviewPane::qt_metacast(char const *)
	?onContextChanged@CalenMonthView@@EAEXXZ @ 133 NONAME ; void CalenMonthView::onContextChanged(void)
	?getCurrentIndex@CalenMonthGrid@@QAEHXZ @ 134 NONAME ; int CalenMonthGrid::getCurrentIndex(void)
	?tr@CalenSettingsView@@SA?AVQString@@PBD0H@Z @ 135 NONAME ; class QString CalenSettingsView::tr(char const *, char const *, int)
	?removeWeekNumbers@CalenMonthView@@AAEXXZ @ 136 NONAME ; void CalenMonthView::removeWeekNumbers(void)
	?trUtf8@CalenMonthView@@SA?AVQString@@PBD0H@Z @ 137 NONAME ; class QString CalenMonthView::trUtf8(char const *, char const *, int)
	?setNoEntriesLabel@CalenPreviewPane@@QAEXPAVHbLabel@@@Z @ 138 NONAME ; void CalenPreviewPane::setNoEntriesLabel(class HbLabel *)
	??0CalenMonthView@@QAE@AAVMCalenServices@@@Z @ 139 NONAME ; CalenMonthView::CalenMonthView(class MCalenServices &)
	?getStaticMetaObject@CalenThickLinesDrawer@@SAABUQMetaObject@@XZ @ 140 NONAME ; struct QMetaObject const & CalenThickLinesDrawer::getStaticMetaObject(void)
	??0CalenThickLinesDrawer@@QAE@W4WidgetType@CalendarNamespace@@PAVQGraphicsItem@@@Z @ 141 NONAME ; CalenThickLinesDrawer::CalenThickLinesDrawer(enum CalendarNamespace::WidgetType, class QGraphicsItem *)
	?onLocaleChanged@CalenMonthView@@UAEXH@Z @ 142 NONAME ; void CalenMonthView::onLocaleChanged(int)
	?doPopulation@CalenMonthView@@UAEXXZ @ 143 NONAME ; void CalenMonthView::doPopulation(void)
	?tr@CalenMonthView@@SA?AVQString@@PBD0H@Z @ 144 NONAME ; class QString CalenMonthView::tr(char const *, char const *, int)
	?captureScreenshot@CalenNativeView@@QAEX_N@Z @ 145 NONAME ; void CalenNativeView::captureScreenshot(bool)
	?GetInstanceListL@CalenPreviewPane@@AAEXXZ @ 146 NONAME ; void CalenPreviewPane::GetInstanceListL(void)
	?getInstanceList@CalenMonthView@@AAEXAAV?$QList@VQDate@@@@VQDateTime@@1@Z @ 147 NONAME ; void CalenMonthView::getInstanceList(class QList<class QDate> &, class QDateTime, class QDateTime)
	?tr@CalenMonthView@@SA?AVQString@@PBD0@Z @ 148 NONAME ; class QString CalenMonthView::tr(char const *, char const *)
	?refreshViewOnGoToDate@CalenMonthView@@EAEXXZ @ 149 NONAME ; void CalenMonthView::refreshViewOnGoToDate(void)
	??0CalenMonthGrid@@QAE@PAVQGraphicsItem@@@Z @ 150 NONAME ; CalenMonthGrid::CalenMonthGrid(class QGraphicsItem *)
	?appendRows@CalenMonthGrid@@QAEXXZ @ 151 NONAME ; void CalenMonthGrid::appendRows(void)
	?tr@CalenThickLinesDrawer@@SA?AVQString@@PBD0H@Z @ 152 NONAME ; class QString CalenThickLinesDrawer::tr(char const *, char const *, int)
	??0CalenPluginLabel@@QAE@AAVMCalenServices@@PAVQGraphicsItem@@@Z @ 153 NONAME ; CalenPluginLabel::CalenPluginLabel(class MCalenServices &, class QGraphicsItem *)
	?mouseReleaseEvent@CalenMonthGrid@@EAEXPAVQGraphicsSceneMouseEvent@@@Z @ 154 NONAME ; void CalenMonthGrid::mouseReleaseEvent(class QGraphicsSceneMouseEvent *)
	?updateMonthGridWithInActiveMonths@CalenMonthGrid@@QAEXAAV?$QList@VCalenMonthData@@@@@Z @ 155 NONAME ; void CalenMonthGrid::updateMonthGridWithInActiveMonths(class QList<class CalenMonthData> &)
	?staticMetaObject@CalenPreviewPane@@2UQMetaObject@@B @ 156 NONAME ; struct QMetaObject const CalenPreviewPane::staticMetaObject
	?setDisallowedScrollDirection@CalenDayContentScrollArea@@QAEXW4CalenScrollDirection@@@Z @ 157 NONAME ; void CalenDayContentScrollArea::setDisallowedScrollDirection(enum CalenScrollDirection)
	?doPopulation@CalenAgendaView@@UAEXXZ @ 158 NONAME ; void CalenAgendaView::doPopulation(void)
	?tr@CalenSettingsView@@SA?AVQString@@PBD0@Z @ 159 NONAME ; class QString CalenSettingsView::tr(char const *, char const *)
	?checkStartTimeOfEvent@CalenPreviewPane@@AAEXAAVQDateTime@@@Z @ 160 NONAME ; void CalenPreviewPane::checkStartTimeOfEvent(class QDateTime &)
	?onTwoSecondsTimeout@CalenPreviewPane@@QAEXXZ @ 161 NONAME ; void CalenPreviewPane::onTwoSecondsTimeout(void)
	?tr@CalenThickLinesDrawer@@SA?AVQString@@PBD0@Z @ 162 NONAME ; class QString CalenThickLinesDrawer::tr(char const *, char const *)
	?staticMetaObject@CalenThickLinesDrawer@@2UQMetaObject@@B @ 163 NONAME ; struct QMetaObject const CalenThickLinesDrawer::staticMetaObject
	?populateWithInstanceView@CalenMonthView@@AAEXXZ @ 164 NONAME ; void CalenMonthView::populateWithInstanceView(void)
	?trUtf8@CalenThickLinesDrawer@@SA?AVQString@@PBD0@Z @ 165 NONAME ; class QString CalenThickLinesDrawer::trUtf8(char const *, char const *)
	??1CalenAgendaViewWidget@@UAE@XZ @ 166 NONAME ; CalenAgendaViewWidget::~CalenAgendaViewWidget(void)
	?orientationChanged@CalenDayContentScrollArea@@AAEXW4Orientation@Qt@@@Z @ 167 NONAME ; void CalenDayContentScrollArea::orientationChanged(enum Qt::Orientation)
	?qt_metacast@CalenDayHourScrollArea@@UAEPAXPBD@Z @ 168 NONAME ; void * CalenDayHourScrollArea::qt_metacast(char const *)
	?populateLabel@CalenPreviewPane@@QAEXVQDateTime@@@Z @ 169 NONAME ; void CalenPreviewPane::populateLabel(class QDateTime)
	?doPopulation@CalenDayView@@UAEXXZ @ 170 NONAME ; void CalenDayView::doPopulation(void)
	??1CalenDayView@@UAE@XZ @ 171 NONAME ; CalenDayView::~CalenDayView(void)
	?updateModelWithFutureMonth@CalenMonthView@@QAEXXZ @ 172 NONAME ; void CalenMonthView::updateModelWithFutureMonth(void)
	?getStaticMetaObject@CalenDayContentScrollArea@@SAABUQMetaObject@@XZ @ 173 NONAME ; struct QMetaObject const & CalenDayContentScrollArea::getStaticMetaObject(void)
	?updateMonthGridModel@CalenMonthGrid@@QAEXAAV?$QList@VCalenMonthData@@@@H_N@Z @ 174 NONAME ; void CalenMonthGrid::updateMonthGridModel(class QList<class CalenMonthData> &, int, bool)
	??1CalenMonthGrid@@UAE@XZ @ 175 NONAME ; CalenMonthGrid::~CalenMonthGrid(void)
	?metaObject@CalenThickLinesDrawer@@UBEPBUQMetaObject@@XZ @ 176 NONAME ; struct QMetaObject const * CalenThickLinesDrawer::metaObject(void) const
	?updateWeekNumGridModel@CalenMonthView@@AAEXXZ @ 177 NONAME ; void CalenMonthView::updateWeekNumGridModel(void)
	?trUtf8@CalenDayContentScrollArea@@SA?AVQString@@PBD0H@Z @ 178 NONAME ; class QString CalenDayContentScrollArea::trUtf8(char const *, char const *, int)
	?qt_metacast@CalenThickLinesDrawer@@UAEPAXPBD@Z @ 179 NONAME ; void * CalenThickLinesDrawer::qt_metacast(char const *)
	?metaObject@CalenDayHourScrollArea@@UBEPBUQMetaObject@@XZ @ 180 NONAME ; struct QMetaObject const * CalenDayHourScrollArea::metaObject(void) const
	?prepareForPopulation@CalenMonthView@@AAEXXZ @ 181 NONAME ; void CalenMonthView::prepareForPopulation(void)
	?scrollByAmount@CalenDayContentScrollArea@@MAE_NABVQPointF@@@Z @ 182 NONAME ; bool CalenDayContentScrollArea::scrollByAmount(class QPointF const &)
	?handleThemeChange@CalenMonthView@@AAEXXZ @ 183 NONAME ; void CalenMonthView::handleThemeChange(void)
	?handlePreviewPaneGesture@CalenMonthView@@QAEX_N@Z @ 184 NONAME ; void CalenMonthView::handlePreviewPaneGesture(bool)
	?updateDayLabel@CalenMonthView@@AAEXXZ @ 185 NONAME ; void CalenMonthView::updateDayLabel(void)
	?setActiveDates@CalenMonthGrid@@AAEXVQDate@@@Z @ 186 NONAME ; void CalenMonthGrid::setActiveDates(class QDate)
	?dateTime@CalenDayHourScrollArea@@QBE?AVQDateTime@@XZ @ 187 NONAME ; class QDateTime CalenDayHourScrollArea::dateTime(void) const
	?trUtf8@CalenMonthView@@SA?AVQString@@PBD0@Z @ 188 NONAME ; class QString CalenMonthView::trUtf8(char const *, char const *)
	?setContextForActiveDay@CalenMonthView@@QAEXH@Z @ 189 NONAME ; void CalenMonthView::setContextForActiveDay(int)
	?trUtf8@CalenSettingsView@@SA?AVQString@@PBD0@Z @ 190 NONAME ; class QString CalenSettingsView::trUtf8(char const *, char const *)
	??_ECalenSettingsView@@UAE@I@Z @ 191 NONAME ; CalenSettingsView::~CalenSettingsView(unsigned int)
	??_ECalenThickLinesDrawer@@UAE@I@Z @ 192 NONAME ; CalenThickLinesDrawer::~CalenThickLinesDrawer(unsigned int)
	?metaObject@CalenSettingsView@@UBEPBUQMetaObject@@XZ @ 193 NONAME ; struct QMetaObject const * CalenSettingsView::metaObject(void) const
	?getStaticMetaObject@CalenMonthView@@SAABUQMetaObject@@XZ @ 194 NONAME ; struct QMetaObject const & CalenMonthView::getStaticMetaObject(void)
	?disallowedScrollDirection@CalenDayContentScrollArea@@QBE?AW4CalenScrollDirection@@XZ @ 195 NONAME ; enum CalenScrollDirection CalenDayContentScrollArea::disallowedScrollDirection(void) const
	?changeOrientation@CalenMonthView@@EAEXW4Orientation@Qt@@@Z @ 196 NONAME ; void CalenMonthView::changeOrientation(enum Qt::Orientation)
	?paint@CalenMonthGrid@@EAEXPAVQPainter@@PBVQStyleOptionGraphicsItem@@PAVQWidget@@@Z @ 197 NONAME ; void CalenMonthGrid::paint(class QPainter *, class QStyleOptionGraphicsItem const *, class QWidget *)
	?tr@CalenMonthGrid@@SA?AVQString@@PBD0@Z @ 198 NONAME ; class QString CalenMonthGrid::tr(char const *, char const *)
	?qt_metacast@CalenSettingsView@@UAEPAXPBD@Z @ 199 NONAME ; void * CalenSettingsView::qt_metacast(char const *)
	?qt_metacall@CalenDayHourScrollArea@@UAEHW4Call@QMetaObject@@HPAPAX@Z @ 200 NONAME ; int CalenDayHourScrollArea::qt_metacall(enum QMetaObject::Call, int, void * *)
	?qt_metacall@CalenMonthView@@UAEHW4Call@QMetaObject@@HPAPAX@Z @ 201 NONAME ; int CalenMonthView::qt_metacall(enum QMetaObject::Call, int, void * *)
	?disconnectAboutToQuitEvent@CalenAgendaView@@QAEXXZ @ 202 NONAME ; void CalenAgendaView::disconnectAboutToQuitEvent(void)
	?setActiveDay@CalenMonthView@@AAEXVQDateTime@@@Z @ 203 NONAME ; void CalenMonthView::setActiveDay(class QDateTime)
	?itemActivated@CalenMonthGrid@@QAEXABVQModelIndex@@@Z @ 204 NONAME ; void CalenMonthGrid::itemActivated(class QModelIndex const &)
	?moveFinished@CalenDayContentScrollArea@@AAEXXZ @ 205 NONAME ; void CalenDayContentScrollArea::moveFinished(void)
	?qt_metacall@CalenMonthGrid@@UAEHW4Call@QMetaObject@@HPAPAX@Z @ 206 NONAME ; int CalenMonthGrid::qt_metacall(enum QMetaObject::Call, int, void * *)
	?createEditor@CalenMonthView@@AAEXXZ @ 207 NONAME ; void CalenMonthView::createEditor(void)
	??_ECalenPreviewPane@@UAE@I@Z @ 208 NONAME ; CalenPreviewPane::~CalenPreviewPane(unsigned int)
	?scrollToHour@CalenDayHourScrollArea@@QAEXH@Z @ 209 NONAME ; void CalenDayHourScrollArea::scrollToHour(int)
	?getActiveDay@CalenMonthView@@QAE?AVQDateTime@@XZ @ 210 NONAME ; class QDateTime CalenMonthView::getActiveDay(void)
	?addRemoveActionsInMenu@CalenMonthView@@AAEXXZ @ 211 NONAME ; void CalenMonthView::addRemoveActionsInMenu(void)
	??1CalenDayContentScrollArea@@UAE@XZ @ 212 NONAME ; CalenDayContentScrollArea::~CalenDayContentScrollArea(void)

