EXPORTS
	_ZN12GlxMLWrapper10IsDrmValidEi @ 1 NONAME
	_ZN12GlxMLWrapper10itemsAddedEii @ 2 NONAME
	_ZN12GlxMLWrapper10updateItemEi16GlxTBContextType @ 3 NONAME
	_ZN12GlxMLWrapper11IsPopulatedEv @ 4 NONAME
	_ZN12GlxMLWrapper11insertItemsEii @ 5 NONAME
	_ZN12GlxMLWrapper11qt_metacallEN11QMetaObject4CallEiPPv @ 6 NONAME
	_ZN12GlxMLWrapper11qt_metacastEPKc @ 7 NONAME
	_ZN12GlxMLWrapper11removeItemsEii @ 8 NONAME
	_ZN12GlxMLWrapper11setDrmValidEib @ 9 NONAME
	_ZN12GlxMLWrapper12getItemCountEv @ 10 NONAME
	_ZN12GlxMLWrapper12isSystemItemEi @ 11 NONAME
	_ZN12GlxMLWrapper12itemsRemovedEii @ 12 NONAME
	_ZN12GlxMLWrapper13itemCorruptedEi @ 13 NONAME
	_ZN12GlxMLWrapper13setFocusIndexEi @ 14 NONAME
	_ZN12GlxMLWrapper13updateDetailsEv @ 15 NONAME
	_ZN12GlxMLWrapper14IsDrmProtectedEi @ 16 NONAME
	_ZN12GlxMLWrapper14RetrieveBitmapEi @ 17 NONAME
	_ZN12GlxMLWrapper14setContextModeE14GlxContextMode @ 18 NONAME
	_ZN12GlxMLWrapper15handlepopulatedEv @ 19 NONAME
	_ZN12GlxMLWrapper15retrieveItemUriEi @ 20 NONAME
	_ZN12GlxMLWrapper16isCorruptedImageEi @ 21 NONAME
	_ZN12GlxMLWrapper16retrieveItemDateEi @ 22 NONAME
	_ZN12GlxMLWrapper16retrieveItemIconEi16GlxTBContextType @ 23 NONAME
	_ZN12GlxMLWrapper16retrieveItemSizeEi @ 24 NONAME
	_ZN12GlxMLWrapper16retrieveItemTimeEi @ 25 NONAME
	_ZN12GlxMLWrapper16retrieveListDescEi @ 26 NONAME
	_ZN12GlxMLWrapper16setSelectedIndexEi @ 27 NONAME
	_ZN12GlxMLWrapper16staticMetaObjectE @ 28 NONAME DATA 16
	_ZN12GlxMLWrapper16updateAlbumTitleE7QString @ 29 NONAME
	_ZN12GlxMLWrapper17handleIconCorruptEi @ 30 NONAME
	_ZN12GlxMLWrapper17removeContextModeE14GlxContextMode @ 31 NONAME
	_ZN12GlxMLWrapper17retrieveItemImageEi16GlxTBContextType @ 32 NONAME
	_ZN12GlxMLWrapper17retrieveListTitleEi @ 33 NONAME
	_ZN12GlxMLWrapper17retrieveViewTitleEv @ 34 NONAME
	_ZN12GlxMLWrapper18handleGeneralErrorEi @ 35 NONAME
	_ZN12GlxMLWrapper18handleReceivedIconEi16GlxTBContextType @ 36 NONAME
	_ZN12GlxMLWrapper19getStaticMetaObjectEv @ 37 NONAME
	_ZN12GlxMLWrapper20handleTitleAvailableE7QString @ 38 NONAME
	_ZN12GlxMLWrapper20retrieveListSubTitleEi @ 39 NONAME
	_ZN12GlxMLWrapper21getVisibleWindowIndexEv @ 40 NONAME
	_ZN12GlxMLWrapper21retrieveItemDimensionEi @ 41 NONAME
	_ZN12GlxMLWrapper21retrieveListItemCountEi @ 42 NONAME
	_ZN12GlxMLWrapper21setVisibleWindowIndexEi @ 43 NONAME
	_ZN12GlxMLWrapper22retrieveItemFrameCountEi @ 44 NONAME
	_ZN12GlxMLWrapper23handleListItemAvailableEi @ 45 NONAME
	_ZN12GlxMLWrapper26handleDetailsItemAvailableEi @ 46 NONAME
	_ZN12GlxMLWrapper9populatedEv @ 47 NONAME
	_ZN12GlxMLWrapperC1Eii18TGlxFilterItemType7QString20GlxFetcherFilterType @ 48 NONAME
	_ZN12GlxMLWrapperC2Eii18TGlxFilterItemType7QString20GlxFetcherFilterType @ 49 NONAME
	_ZN12GlxMLWrapperD0Ev @ 50 NONAME
	_ZN12GlxMLWrapperD1Ev @ 51 NONAME
	_ZN12GlxMLWrapperD2Ev @ 52 NONAME
	_ZNK12GlxMLWrapper10metaObjectEv @ 53 NONAME
	_ZNK12GlxMLWrapper13getFocusIndexEv @ 54 NONAME
	_ZTI12GlxMLWrapper @ 55 NONAME
	_ZTV12GlxMLWrapper @ 56 NONAME

