EXPORTS
	??1NotesFavoriteView@@UAE@XZ @ 1 NONAME ; NotesFavoriteView::~NotesFavoriteView(void)
	??0NotesNoteView@@QAE@PAVQGraphicsWidget@@@Z @ 2 NONAME ; NotesNoteView::NotesNoteView(class QGraphicsWidget *)
	??0NotesTodoView@@QAE@PAVQGraphicsWidget@@@Z @ 3 NONAME ; NotesTodoView::NotesTodoView(class QGraphicsWidget *)
	?updateTitle@NotesMainView@@QAEXXZ @ 4 NONAME ; void NotesMainView::updateTitle(void)
	??0NotesMainView@@QAE@PAVQGraphicsWidget@@@Z @ 5 NONAME ; NotesMainView::NotesMainView(class QGraphicsWidget *)
	?setupAfterViewReady@NotesMainView@@QAEXXZ @ 6 NONAME ; void NotesMainView::setupAfterViewReady(void)
	?setupView@NotesNoteView@@QAEXAAVNotesAppControllerIf@@PAVNotesDocLoader@@@Z @ 7 NONAME ; void NotesNoteView::setupView(class NotesAppControllerIf &, class NotesDocLoader *)
	?setupView@NotesTodoView@@QAEXAAVNotesAppControllerIf@@PAVNotesDocLoader@@@Z @ 8 NONAME ; void NotesTodoView::setupView(class NotesAppControllerIf &, class NotesDocLoader *)
	??0NotesCollectionView@@QAE@PAVQGraphicsWidget@@@Z @ 9 NONAME ; NotesCollectionView::NotesCollectionView(class QGraphicsWidget *)
	?populateListView@NotesCollectionView@@QAEXXZ @ 10 NONAME ; void NotesCollectionView::populateListView(void)
	??1NotesCollectionView@@UAE@XZ @ 11 NONAME ; NotesCollectionView::~NotesCollectionView(void)
	?updateTitle@NotesTodoView@@QAEXXZ @ 12 NONAME ; void NotesTodoView::updateTitle(void)
	?setupView@NotesCollectionView@@QAEXAAVNotesAppControllerIf@@PAVNotesDocLoader@@@Z @ 13 NONAME ; void NotesCollectionView::setupView(class NotesAppControllerIf &, class NotesDocLoader *)
	??0NotesFavoriteView@@QAE@PAVQGraphicsWidget@@@Z @ 14 NONAME ; NotesFavoriteView::NotesFavoriteView(class QGraphicsWidget *)
	??1NotesMainView@@UAE@XZ @ 15 NONAME ; NotesMainView::~NotesMainView(void)
	?setupView@NotesMainView@@QAEXAAVNotesAppControllerIf@@PAVNotesDocLoader@@@Z @ 16 NONAME ; void NotesMainView::setupView(class NotesAppControllerIf &, class NotesDocLoader *)
	??1NotesNoteView@@UAE@XZ @ 17 NONAME ; NotesNoteView::~NotesNoteView(void)
	??1NotesTodoView@@UAE@XZ @ 18 NONAME ; NotesTodoView::~NotesTodoView(void)
	?setupView@NotesFavoriteView@@QAEXAAVNotesAppControllerIf@@PAVNotesDocLoader@@@Z @ 19 NONAME ; void NotesFavoriteView::setupView(class NotesAppControllerIf &, class NotesDocLoader *)
	?captureScreenShot@NotesMainView@@QAEX_N@Z @ 20 NONAME ; void NotesMainView::captureScreenShot(bool)
	?updateFavoriteView@NotesFavoriteView@@QAEXXZ @ 21 NONAME ; void NotesFavoriteView::updateFavoriteView(void)
	?updateNoteView@NotesNoteView@@QAEXXZ @ 22 NONAME ; void NotesNoteView::updateNoteView(void)

