EXPORTS
	_ZN17UniEditorGenUtils12NumberToBaseE5TChar @ 1 NONAME
	_ZN17UniEditorGenUtils12getFileInfoLE7QStringRiRS0_R13TMsgMediaType @ 2 NONAME
	_ZN17UniEditorGenUtils13IsValidDomainERK7TDesC16 @ 3 NONAME
	_ZN17UniEditorGenUtils14MaxMmsMsgSizeLEv @ 4 NONAME
	_ZN17UniEditorGenUtils14MaxSmsMsgSizeLEb @ 5 NONAME
	_ZN17UniEditorGenUtils15ConvertDigitsToER6TDes1610TDigitType @ 6 NONAME
	_ZN17UniEditorGenUtils15IsPhoneOfflineLEv @ 7 NONAME
	_ZN17UniEditorGenUtils17MatchPhoneNumberLER7TDesC16S1_ @ 8 NONAME
	_ZN17UniEditorGenUtils17MaxMmsRecipientsLEv @ 9 NONAME
	_ZN17UniEditorGenUtils17MaxSmsRecipientsLEv @ 10 NONAME
	_ZN17UniEditorGenUtils17ReplaceCharactersER6TDes16RK7TDesC165TChar @ 11 NONAME
	_ZN17UniEditorGenUtils19IsValidEmailAddressERK7TDesC16 @ 12 NONAME
	_ZN17UniEditorGenUtils20absoluteMaxSmsPartsLEv @ 13 NONAME
	_ZN17UniEditorGenUtils21AcceptEmailAddressesLEv @ 14 NONAME
	_ZN17UniEditorGenUtils21VerifyEmailAddressesLE5QListIP23ConvergedMessageAddressE @ 15 NONAME
	_ZN17UniEditorGenUtils21getSmsCharacterLimitsERiS0_b @ 16 NONAME
	_ZN17UniEditorGenUtils25ReadEmailOverSmsSettingsLER6TDes16S1_Ri @ 17 NONAME
	_ZN17UniEditorGenUtils25absoluteMaxSmsCharactersLEv @ 18 NONAME
	_ZN17UniEditorGenUtils26WriteEmailOverSmsSettingsLERK6TDes16S2_RKi @ 19 NONAME
	_ZN17UniEditorGenUtils8UTF8SizeE7QString @ 20 NONAME
	_ZN17UniEditorGenUtilsC1Ev @ 21 NONAME
	_ZN17UniEditorGenUtilsC2Ev @ 22 NONAME
	_ZN17UniEditorGenUtilsD0Ev @ 23 NONAME
	_ZN17UniEditorGenUtilsD1Ev @ 24 NONAME
	_ZN17UniEditorGenUtilsD2Ev @ 25 NONAME
	_ZN18CMuiuOperationWait4RunLEv @ 26 NONAME
	_ZN18CMuiuOperationWait5NewLCEi @ 27 NONAME
	_ZN18CMuiuOperationWait5StartEv @ 28 NONAME
	_ZN18CMuiuOperationWait8DoCancelEv @ 29 NONAME
	_ZN18CMuiuOperationWaitC1Ei @ 30 NONAME
	_ZN18CMuiuOperationWaitC2Ei @ 31 NONAME
	_ZN18CMuiuOperationWaitD0Ev @ 32 NONAME
	_ZN18CMuiuOperationWaitD1Ev @ 33 NONAME
	_ZN18CMuiuOperationWaitD2Ev @ 34 NONAME
	_ZTI17UniEditorGenUtils @ 35 NONAME
	_ZTI18CMuiuOperationWait @ 36 NONAME
	_ZTV17UniEditorGenUtils @ 37 NONAME
	_ZTV18CMuiuOperationWait @ 38 NONAME

