EXPORTS
	_ZN11CFeedEngine11AddObserverEP19MFeedEngineObserver @ 1 NONAME
	_ZN11CFeedEngine11ClientStateEv @ 2 NONAME
	_ZN11CFeedEngine11RemoveFeedLEj @ 3 NONAME
	_ZN11CFeedEngine11UpdateFeedLEj @ 4 NONAME
	_ZN11CFeedEngine12ExportFeedsLER4TBufILi256EE @ 5 NONAME
	_ZN11CFeedEngine12ImportFeedsLERK7TDesC16 @ 6 NONAME
	_ZN11CFeedEngine14GetSortedFeedsEv @ 7 NONAME
	_ZN11CFeedEngine14RemoveObserverEP19MFeedEngineObserver @ 8 NONAME
	_ZN11CFeedEngine14SearchForFeedLER7TDesC16 @ 9 NONAME
	_ZN11CFeedEngine15ActiveClientUidEv @ 10 NONAME
	_ZN11CFeedEngine15GetStatsByFeedLEjRjS0_ @ 11 NONAME
	_ZN11CFeedEngine15UpdateAllFeedsLEi @ 12 NONAME
	_ZN11CFeedEngine15UpdateFeedInfoLEP9CFeedInfo @ 13 NONAME
	_ZN11CFeedEngine16AddSearchResultLEP9CFeedInfo @ 14 NONAME
	_ZN11CFeedEngine16GetFeedInfoByUidEj @ 15 NONAME
	_ZN11CFeedEngine16GetSearchResultsEv @ 16 NONAME
	_ZN11CFeedEngine20CancelUpdateAllFeedsEv @ 17 NONAME
	_ZN11CFeedEngine20OpmlParsingCompleteLEij @ 18 NONAME
	_ZN11CFeedEngine8AddFeedLERK9CFeedInfo @ 19 NONAME
	_ZN11CShowEngine11AddObserverEP19MShowEngineObserver @ 20 NONAME
	_ZN11CShowEngine11DeleteShowLEji @ 21 NONAME
	_ZN11CShowEngine11GetMimeTypeERK7TDesC16R6TDes16 @ 22 NONAME
	_ZN11CShowEngine11UpdateShowLER9CShowInfo @ 23 NONAME
	_ZN11CShowEngine12AddDownloadLER9CShowInfo @ 24 NONAME
	_ZN11CShowEngine12GetAllShowsLER13RPointerArrayI9CShowInfoE @ 25 NONAME
	_ZN11CShowEngine12GetNewShowsLER13RPointerArrayI9CShowInfoE @ 26 NONAME
	_ZN11CShowEngine13GetShowByUidLEj @ 27 NONAME
	_ZN11CShowEngine14MetaDataReaderEv @ 28 NONAME
	_ZN11CShowEngine14RemoveObserverEP19MShowEngineObserver @ 29 NONAME
	_ZN11CShowEngine15GetShowsByFeedLER13RPointerArrayI9CShowInfoEj @ 30 NONAME
	_ZN11CShowEngine15RemoveDownloadLEj @ 31 NONAME
	_ZN11CShowEngine15ShowDownloadingEv @ 32 NONAME
	_ZN11CShowEngine16ResumeDownloadsLEv @ 33 NONAME
	_ZN11CShowEngine16SuspendDownloadsEv @ 34 NONAME
	_ZN11CShowEngine18DeletePlayedShowsLER13RPointerArrayI9CShowInfoE @ 35 NONAME
	_ZN11CShowEngine19GetNextShowByTrackLEP9CShowInfo @ 36 NONAME
	_ZN11CShowEngine19GetShowsDownloadedLER13RPointerArrayI9CShowInfoE @ 37 NONAME
	_ZN11CShowEngine19RemoveAllDownloadsLEv @ 38 NONAME
	_ZN11CShowEngine20DBGetShowByFileNameLE4TBufILi256EE @ 39 NONAME
	_ZN11CShowEngine20GetShowsDownloadingLER13RPointerArrayI9CShowInfoE @ 40 NONAME
	_ZN11CShowEngine21DeleteAllShowsByFeedLEji @ 41 NONAME
	_ZN11CShowEngine21DeleteOldShowsByFeedLEj @ 42 NONAME
	_ZN11CShowEngine22GetNumDownloadingShowsEv @ 43 NONAME
	_ZN11CShowEngine22NotifyShowListUpdatedLEv @ 44 NONAME
	_ZN11CShowEngine4NewLER13CPodcastModel @ 45 NONAME
	_ZN11CShowEngine8AddShowLERK9CShowInfo @ 46 NONAME
	_ZN11CShowEngineD0Ev @ 47 NONAME
	_ZN11CShowEngineD1Ev @ 48 NONAME
	_ZN11CShowEngineD2Ev @ 49 NONAME
	_ZN12PodcastUtils10CleanHtmlLER6TDes16 @ 50 NONAME
	_ZN12PodcastUtils11ReplaceCharER6TDes16jj @ 51 NONAME
	_ZN12PodcastUtils13FixProtocolsLER6TDes16 @ 52 NONAME
	_ZN12PodcastUtils13ReplaceStringER6TDes16RK7TDesC16S4_ @ 53 NONAME
	_ZN12PodcastUtils15FileNameFromUrlERK7TDesC16R4TBufILi256EE @ 54 NONAME
	_ZN12PodcastUtils19RemoveAllFormattingER6TDes16 @ 55 NONAME
	_ZN12PodcastUtils20EnsureProperPathNameER4TBufILi256EE @ 56 NONAME
	_ZN12PodcastUtils9SQLEncodeER6TDes16 @ 57 NONAME
	_ZN12PodcastUtils9XMLEncodeER6TDes16 @ 58 NONAME
	_ZN13CImageHandler12ScaledBitmapEv @ 59 NONAME
	_ZN13CImageHandler17LoadFileAndScaleLEP10CFbsBitmapRK4TBufILi256EERK5TSizeR21MImageHandlerCallbackji @ 60 NONAME
	_ZN13CImageHandler4NewLER3RFsR13CPodcastModel @ 61 NONAME
	_ZN13CImageHandler5NewLCER3RFsR13CPodcastModel @ 62 NONAME
	_ZN13CImageHandlerD0Ev @ 63 NONAME
	_ZN13CImageHandlerD1Ev @ 64 NONAME
	_ZN13CImageHandlerD2Ev @ 65 NONAME
	_ZN13CPodcastModel10FeedEngineEv @ 66 NONAME
	_ZN13CPodcastModel10ShowEngineEv @ 67 NONAME
	_ZN13CPodcastModel12ImageHandlerEv @ 68 NONAME
	_ZN13CPodcastModel14ActiveFeedInfoEv @ 69 NONAME
	_ZN13CPodcastModel14ActiveShowListEv @ 70 NONAME
	_ZN13CPodcastModel14IsFirstStartupEv @ 71 NONAME
	_ZN13CPodcastModel14PlayingPodcastEv @ 72 NONAME
	_ZN13CPodcastModel14SettingsEngineEv @ 73 NONAME
	_ZN13CPodcastModel14UpdateIAPListLEv @ 74 NONAME
	_ZN13CPodcastModel15GetShowsByFeedLEj @ 75 NONAME
	_ZN13CPodcastModel15UpdateSNAPListLEv @ 76 NONAME
	_ZN13CPodcastModel16ConnectionEngineEv @ 77 NONAME
	_ZN13CPodcastModel17PlayPausePodcastLEP9CShowInfoi @ 78 NONAME
	_ZN13CPodcastModel17SetActiveFeedInfoEP9CFeedInfo @ 79 NONAME
	_ZN13CPodcastModel17SetPlayingPodcastEP9CShowInfo @ 80 NONAME
	_ZN13CPodcastModel20GetShowsDownloadingLEv @ 81 NONAME
	_ZN13CPodcastModel20MarkSelectionPlayedLEv @ 82 NONAME
	_ZN13CPodcastModel4NewLEv @ 83 NONAME
	_ZN13CPodcastModel6DropDBEv @ 84 NONAME
	_ZN13CPodcastModel6IAPIdsEv @ 85 NONAME
	_ZN13CPodcastModel7SNAPIdsEv @ 86 NONAME
	_ZN13CPodcastModel8IAPNamesEv @ 87 NONAME
	_ZN13CPodcastModel9SNAPNamesEv @ 88 NONAME
	_ZN15CSettingsEngine10SetBaseDirER4TBufILi256EE @ 89 NONAME
	_ZN15CSettingsEngine11SpecificIAPEv @ 90 NONAME
	_ZN15CSettingsEngine13SaveSettingsLEv @ 91 NONAME
	_ZN15CSettingsEngine14SetSpecificIAPEi @ 92 NONAME
	_ZN15CSettingsEngine14UpdateFeedTimeEv @ 93 NONAME
	_ZN15CSettingsEngine17DownloadSuspendedEv @ 94 NONAME
	_ZN15CSettingsEngine17SetUpdateFeedTimeE5TTime @ 95 NONAME
	_ZN15CSettingsEngine18UpdateFeedIntervalEv @ 96 NONAME
	_ZN15CSettingsEngine19UpdateAutomaticallyEv @ 97 NONAME
	_ZN15CSettingsEngine20SetDownloadSuspendedEi @ 98 NONAME
	_ZN15CSettingsEngine21DownloadAutomaticallyEv @ 99 NONAME
	_ZN15CSettingsEngine21SetUpdateFeedIntervalEi @ 100 NONAME
	_ZN15CSettingsEngine22SetUpdateAutomaticallyE18TAutoUpdateSetting @ 101 NONAME
	_ZN15CSettingsEngine24SetDownloadAutomaticallyEi @ 102 NONAME
	_ZN15CSettingsEngine7BaseDirEv @ 103 NONAME
	_ZN17CConnectionEngine11AddObserverEP19MConnectionObserver @ 104 NONAME
	_ZN9CFeedInfo11SetFeedIconEP10CFbsBitmap @ 105 NONAME
	_ZN9CFeedInfo12SetBuildDateE5TTime @ 106 NONAME
	_ZN9CFeedInfo12SetImageUrlLERK7TDesC16 @ 107 NONAME
	_ZN9CFeedInfo12SetLastErrorEi @ 108 NONAME
	_ZN9CFeedInfo14SetCustomTitleEv @ 109 NONAME
	_ZN9CFeedInfo14SetLastUpdatedE5TTime @ 110 NONAME
	_ZN9CFeedInfo15SetDescriptionLERK7TDesC16 @ 111 NONAME
	_ZN9CFeedInfo17SetImageFileNameLERK7TDesC16P13CPodcastModel @ 112 NONAME
	_ZN9CFeedInfo4NewLEv @ 113 NONAME
	_ZN9CFeedInfo5NewLCEv @ 114 NONAME
	_ZN9CFeedInfo7SetUrlLERK7TDesC16 @ 115 NONAME
	_ZN9CFeedInfo8SetLinkLERK7TDesC16 @ 116 NONAME
	_ZN9CFeedInfo9SetTitleLERK7TDesC16 @ 117 NONAME
	_ZN9CFeedInfoD0Ev @ 118 NONAME
	_ZN9CFeedInfoD1Ev @ 119 NONAME
	_ZN9CFeedInfoD2Ev @ 120 NONAME
	_ZN9CShowInfo10SetFeedUidEj @ 121 NONAME
	_ZN9CShowInfo10SetPubDateE5TTime @ 122 NONAME
	_ZN9CShowInfo10SetTrackNoEj @ 123 NONAME
	_ZN9CShowInfo11SetPlayTimeEj @ 124 NONAME
	_ZN9CShowInfo11SetPositionE25TTimeIntervalMicroSeconds @ 125 NONAME
	_ZN9CShowInfo11SetShowSizeEj @ 126 NONAME
	_ZN9CShowInfo11SetShowTypeE9TShowType @ 127 NONAME
	_ZN9CShowInfo12SetFileNameLERK7TDesC16 @ 128 NONAME
	_ZN9CShowInfo12SetLastErrorEi @ 129 NONAME
	_ZN9CShowInfo12SetPlayStateE10TPlayState @ 130 NONAME
	_ZN9CShowInfo15SetDescriptionLERK7TDesC16 @ 131 NONAME
	_ZN9CShowInfo16SetDownloadStateE14TDownloadState @ 132 NONAME
	_ZN9CShowInfo4NewLEj @ 133 NONAME
	_ZN9CShowInfo5NewLCEj @ 134 NONAME
	_ZN9CShowInfo6SetUidEj @ 135 NONAME
	_ZN9CShowInfo7SetUrlLERK7TDesC16 @ 136 NONAME
	_ZN9CShowInfo9SetTitleLERK7TDesC16 @ 137 NONAME
	_ZN9CShowInfoC1EPS_ @ 138 NONAME
	_ZN9CShowInfoC2EPS_ @ 139 NONAME
	_ZN9CShowInfoD0Ev @ 140 NONAME
	_ZN9CShowInfoD1Ev @ 141 NONAME
	_ZN9CShowInfoD2Ev @ 142 NONAME
	_ZNK9CFeedInfo11CustomTitleEv @ 143 NONAME
	_ZNK9CFeedInfo11DescriptionEv @ 144 NONAME
	_ZNK9CFeedInfo11LastUpdatedEv @ 145 NONAME
	_ZNK9CFeedInfo13ImageFileNameEv @ 146 NONAME
	_ZNK9CFeedInfo3UidEv @ 147 NONAME
	_ZNK9CFeedInfo3UrlEv @ 148 NONAME
	_ZNK9CFeedInfo4LinkEv @ 149 NONAME
	_ZNK9CFeedInfo5CopyLEv @ 150 NONAME
	_ZNK9CFeedInfo5TitleEv @ 151 NONAME
	_ZNK9CFeedInfo8FeedIconEv @ 152 NONAME
	_ZNK9CFeedInfo8ImageUrlEv @ 153 NONAME
	_ZNK9CFeedInfo9BuildDateEv @ 154 NONAME
	_ZNK9CFeedInfo9LastErrorEv @ 155 NONAME
	_ZNK9CShowInfo11DescriptionEv @ 156 NONAME
	_ZNK9CShowInfo13DownloadStateEv @ 157 NONAME
	_ZNK9CShowInfo3UidEv @ 158 NONAME
	_ZNK9CShowInfo3UrlEv @ 159 NONAME
	_ZNK9CShowInfo5TitleEv @ 160 NONAME
	_ZNK9CShowInfo7FeedUidEv @ 161 NONAME
	_ZNK9CShowInfo7PubDateEv @ 162 NONAME
	_ZNK9CShowInfo7TrackNoEv @ 163 NONAME
	_ZNK9CShowInfo8FileNameEv @ 164 NONAME
	_ZNK9CShowInfo8PlayTimeEv @ 165 NONAME
	_ZNK9CShowInfo8PositionEv @ 166 NONAME
	_ZNK9CShowInfo8ShowSizeEv @ 167 NONAME
	_ZNK9CShowInfo8ShowTypeEv @ 168 NONAME
	_ZNK9CShowInfo9LastErrorEv @ 169 NONAME
	_ZNK9CShowInfo9PlayStateEv @ 170 NONAME
	_ZTI10CFeedTimer @ 171 NONAME
	_ZTI11CFeedEngine @ 172 NONAME
	_ZTI11CFeedParser @ 173 NONAME
	_ZTI11CHttpClient @ 174 NONAME
	_ZTI11COpmlParser @ 175 NONAME
	_ZTI11CShowEngine @ 176 NONAME
	_ZTI13CImageHandler @ 177 NONAME
	_ZTI13CPodcastModel @ 178 NONAME
	_ZTI15CMetaDataReader @ 179 NONAME
	_ZTI15CSettingsEngine @ 180 NONAME
	_ZTI17CConnectionEngine @ 181 NONAME
	_ZTI17CHttpEventHandler @ 182 NONAME
	_ZTI9CFeedInfo @ 183 NONAME
	_ZTI9CShowInfo @ 184 NONAME
	_ZTV10CFeedTimer @ 185 NONAME
	_ZTV11CFeedEngine @ 186 NONAME
	_ZTV11CFeedParser @ 187 NONAME
	_ZTV11CHttpClient @ 188 NONAME
	_ZTV11COpmlParser @ 189 NONAME
	_ZTV11CShowEngine @ 190 NONAME
	_ZTV13CImageHandler @ 191 NONAME
	_ZTV13CPodcastModel @ 192 NONAME
	_ZTV15CMetaDataReader @ 193 NONAME
	_ZTV15CSettingsEngine @ 194 NONAME
	_ZTV17CConnectionEngine @ 195 NONAME
	_ZTV17CHttpEventHandler @ 196 NONAME
	_ZTV9CFeedInfo @ 197 NONAME
	_ZTV9CShowInfo @ 198 NONAME
	_ZN11CShowEngine20CheckForDeletedShowsEj @ 199 NONAME
	_ZN12PodcastUtils11IsVideoShowER7TDesC16 @ 200 NONAME
	_ZN11CShowEngine15MoveDownloadUpLEj @ 201 NONAME
	_ZN11CShowEngine17MoveDownloadDownLEj @ 202 NONAME

