EXPORTS
	?saveData@GlxStateManager@@QAEXXZ @ 1 NONAME ; void GlxStateManager::saveData(void)
	?metaObject@GlxStateManager@@UBEPBUQMetaObject@@XZ @ 2 NONAME ; struct QMetaObject const * GlxStateManager::metaObject(void) const
	?actionTriggered@GlxStateManager@@QAEXH@Z @ 3 NONAME ; void GlxStateManager::actionTriggered(int)
	?setupItemsSignal@GlxStateManager@@IAEXXZ @ 4 NONAME ; void GlxStateManager::setupItemsSignal(void)
	??_EGlxStateManager@@UAE@I@Z @ 5 NONAME ; GlxStateManager::~GlxStateManager(unsigned int)
	?updateTNProgress@GlxStateManager@@QAEXH@Z @ 6 NONAME ; void GlxStateManager::updateTNProgress(int)
	?goBack@GlxStateManager@@QAEXHH@Z @ 7 NONAME ; void GlxStateManager::goBack(int, int)
	?eventFilter@GlxStateManager@@UAE_NPAVQObject@@PAVQEvent@@@Z @ 8 NONAME ; bool GlxStateManager::eventFilter(class QObject *, class QEvent *)
	?enterMarkingMode@GlxStateManager@@QAEXXZ @ 9 NONAME ; void GlxStateManager::enterMarkingMode(void)
	??1GlxStateManager@@UAE@XZ @ 10 NONAME ; GlxStateManager::~GlxStateManager(void)
	?getStaticMetaObject@GlxStateManager@@SAABUQMetaObject@@XZ @ 11 NONAME ; struct QMetaObject const & GlxStateManager::getStaticMetaObject(void)
	?trUtf8@GlxStateManager@@SA?AVQString@@PBD0H@Z @ 12 NONAME ; class QString GlxStateManager::trUtf8(char const *, char const *, int)
	?eventHandler@GlxStateManager@@AAEXAAH@Z @ 13 NONAME ; void GlxStateManager::eventHandler(int &)
	?executeCommand@GlxStateManager@@QAE_NH@Z @ 14 NONAME ; bool GlxStateManager::executeCommand(int)
	?thumbnailPopulated@GlxStateManager@@QAEXXZ @ 15 NONAME ; void GlxStateManager::thumbnailPopulated(void)
	?setupItems@GlxStateManager@@QAEXXZ @ 16 NONAME ; void GlxStateManager::setupItems(void)
	?previousState@GlxStateManager@@QAEXXZ @ 17 NONAME ; void GlxStateManager::previousState(void)
	?createState@GlxStateManager@@AAEPAVGlxState@@H@Z @ 18 NONAME ; class GlxState * GlxStateManager::createState(int)
	?exitApplication@GlxStateManager@@AAEXXZ @ 19 NONAME ; void GlxStateManager::exitApplication(void)
	?changeState@GlxStateManager@@QAEXHH@Z @ 20 NONAME ; void GlxStateManager::changeState(int, int)
	?qt_metacall@GlxStateManager@@UAEHW4Call@QMetaObject@@HPAPAX@Z @ 21 NONAME ; int GlxStateManager::qt_metacall(enum QMetaObject::Call, int, void * *)
	??0GlxStateManager@@QAE@XZ @ 22 NONAME ; GlxStateManager::GlxStateManager(void)
	?vanishProgressDialog@GlxStateManager@@AAEXXZ @ 23 NONAME ; void GlxStateManager::vanishProgressDialog(void)
	?saveImage@GlxStateManager@@AAEXXZ @ 24 NONAME ; void GlxStateManager::saveImage(void)
	?cleanupExternal@GlxStateManager@@QAEXXZ @ 25 NONAME ; void GlxStateManager::cleanupExternal(void)
	?gridItemSelected@GlxStateManager@@IAEXABVQModelIndex@@AAVQAbstractItemModel@@@Z @ 26 NONAME ; void GlxStateManager::gridItemSelected(class QModelIndex const &, class QAbstractItemModel &)
	?setFullScreenContext@GlxStateManager@@AAEXXZ @ 27 NONAME ; void GlxStateManager::setFullScreenContext(void)
	?validateActivityData@GlxStateManager@@AAE_NXZ @ 28 NONAME ; bool GlxStateManager::validateActivityData(void)
	?trUtf8@GlxStateManager@@SA?AVQString@@PBD0@Z @ 29 NONAME ; class QString GlxStateManager::trUtf8(char const *, char const *)
	?cleanAllModel@GlxStateManager@@QAEXXZ @ 30 NONAME ; void GlxStateManager::cleanAllModel(void)
	?tr@GlxStateManager@@SA?AVQString@@PBD0H@Z @ 31 NONAME ; class QString GlxStateManager::tr(char const *, char const *, int)
	?staticMetaObject@GlxStateManager@@2UQMetaObject@@B @ 32 NONAME ; struct QMetaObject const GlxStateManager::staticMetaObject
	?qt_metacast@GlxStateManager@@UAEPAXPBD@Z @ 33 NONAME ; void * GlxStateManager::qt_metacast(char const *)
	?tr@GlxStateManager@@SA?AVQString@@PBD0@Z @ 34 NONAME ; class QString GlxStateManager::tr(char const *, char const *)
	?nextState@GlxStateManager@@QAEXHH@Z @ 35 NONAME ; void GlxStateManager::nextState(int, int)
	?launchFromExternal@GlxStateManager@@QAEXXZ @ 36 NONAME ; void GlxStateManager::launchFromExternal(void)
	?externalCommand@GlxStateManager@@IAEXH@Z @ 37 NONAME ; void GlxStateManager::externalCommand(int)
	?createGridModel@GlxStateManager@@AAEXHW4NavigationDir@@@Z @ 38 NONAME ; void GlxStateManager::createGridModel(int, enum NavigationDir)
	?launchApplication@GlxStateManager@@QAEXXZ @ 39 NONAME ; void GlxStateManager::launchApplication(void)
	?exitMarkingMode@GlxStateManager@@QAEXXZ @ 40 NONAME ; void GlxStateManager::exitMarkingMode(void)
	?launchFetcher@GlxStateManager@@QAEXH@Z @ 41 NONAME ; void GlxStateManager::launchFetcher(int)
	?removeCurrentModel@GlxStateManager@@QAEXXZ @ 42 NONAME ; void GlxStateManager::removeCurrentModel(void)
	?launchProgressDialog@GlxStateManager@@AAEXXZ @ 43 NONAME ; void GlxStateManager::launchProgressDialog(void)
	?launchActivity@GlxStateManager@@AAE_NXZ @ 44 NONAME ; bool GlxStateManager::launchActivity(void)
	?createModel@GlxStateManager@@AAEXHW4NavigationDir@@@Z @ 45 NONAME ; void GlxStateManager::createModel(int, enum NavigationDir)

