EXPORTS
	?stop@CpTaskExecutor@@QAEXXZ @ 1 NONAME ; void CpTaskExecutor::stop(void)
	?tr@CpTaskExecutor@@SA?AVQString@@PBD0@Z @ 2 NONAME ; class QString CpTaskExecutor::tr(char const *, char const *)
	?getStaticMetaObject@CpTaskExecutor@@SAABUQMetaObject@@XZ @ 3 NONAME ; struct QMetaObject const & CpTaskExecutor::getStaticMetaObject(void)
	??1CpCategorySettingFormModel@@UAE@XZ @ 4 NONAME ; CpCategorySettingFormModel::~CpCategorySettingFormModel(void)
	?beforeLoadingConfigPlugins@CpCategorySettingFormItemData@@EAEXAAVCpItemDataHelper@@@Z @ 5 NONAME ; void CpCategorySettingFormItemData::beforeLoadingConfigPlugins(class CpItemDataHelper &)
	?trUtf8@CpCategorySettingFormModel@@SA?AVQString@@PBD0H@Z @ 6 NONAME ; class QString CpCategorySettingFormModel::trUtf8(char const *, char const *, int)
	??0CpCategorySettingFormModel@@QAE@ABVQString@@@Z @ 7 NONAME ; CpCategorySettingFormModel::CpCategorySettingFormModel(class QString const &)
	?staticMetaObject@CpTaskExecutor@@2UQMetaObject@@B @ 8 NONAME ; struct QMetaObject const CpTaskExecutor::staticMetaObject
	??_ECpTaskExecutor@@UAE@I@Z @ 9 NONAME ; CpTaskExecutor::~CpTaskExecutor(unsigned int)
	?trUtf8@CpTaskExecutor@@SA?AVQString@@PBD0H@Z @ 10 NONAME ; class QString CpTaskExecutor::trUtf8(char const *, char const *, int)
	?trUtf8@CpCategorySettingFormItemData@@SA?AVQString@@PBD0@Z @ 11 NONAME ; class QString CpCategorySettingFormItemData::trUtf8(char const *, char const *)
	?tr@CpCategorySettingFormModel@@SA?AVQString@@PBD0@Z @ 12 NONAME ; class QString CpCategorySettingFormModel::tr(char const *, char const *)
	?tr@CpCategorySettingFormItemData@@SA?AVQString@@PBD0@Z @ 13 NONAME ; class QString CpCategorySettingFormItemData::tr(char const *, char const *)
	?getStaticMetaObject@CpCategorySettingFormModel@@SAABUQMetaObject@@XZ @ 14 NONAME ; struct QMetaObject const & CpCategorySettingFormModel::getStaticMetaObject(void)
	?destroyGlobalInstance@CpTaskExecutor@@SAXXZ @ 15 NONAME ; void CpTaskExecutor::destroyGlobalInstance(void)
	?initialize@CpCategorySettingFormModel@@UAEXAAVCpItemDataHelper@@@Z @ 16 NONAME ; void CpCategorySettingFormModel::initialize(class CpItemDataHelper &)
	?initialize@CpCategorySettingFormItemData@@QAEXAAVCpItemDataHelper@@@Z @ 17 NONAME ; void CpCategorySettingFormItemData::initialize(class CpItemDataHelper &)
	?tr@CpTaskExecutor@@SA?AVQString@@PBD0H@Z @ 18 NONAME ; class QString CpTaskExecutor::tr(char const *, char const *, int)
	??0CpTaskExecutor@@QAE@PAVQObject@@@Z @ 19 NONAME ; CpTaskExecutor::CpTaskExecutor(class QObject *)
	?tr@CpCategorySettingFormItemData@@SA?AVQString@@PBD0H@Z @ 20 NONAME ; class QString CpCategorySettingFormItemData::tr(char const *, char const *, int)
	?qt_metacast@CpTaskExecutor@@UAEPAXPBD@Z @ 21 NONAME ; void * CpTaskExecutor::qt_metacast(char const *)
	??1CpCategorySettingFormItemData@@UAE@XZ @ 22 NONAME ; CpCategorySettingFormItemData::~CpCategorySettingFormItemData(void)
	?beforeLoadingConfigPlugins@CpCategorySettingFormModel@@EAEXAAVCpItemDataHelper@@@Z @ 23 NONAME ; void CpCategorySettingFormModel::beforeLoadingConfigPlugins(class CpItemDataHelper &)
	??1CpTaskExecutor@@UAE@XZ @ 24 NONAME ; CpTaskExecutor::~CpTaskExecutor(void)
	?createCpPluginItemData@@YAHPAVCpCreatePluginItemDataEvent@@@Z @ 25 NONAME ; int createCpPluginItemData(class CpCreatePluginItemDataEvent *)
	?trUtf8@CpCategorySettingFormModel@@SA?AVQString@@PBD0@Z @ 26 NONAME ; class QString CpCategorySettingFormModel::trUtf8(char const *, char const *)
	?staticMetaObject@CpCategorySettingFormModel@@2UQMetaObject@@B @ 27 NONAME ; struct QMetaObject const CpCategorySettingFormModel::staticMetaObject
	?qt_metacall@CpTaskExecutor@@UAEHW4Call@QMetaObject@@HPAPAX@Z @ 28 NONAME ; int CpTaskExecutor::qt_metacall(enum QMetaObject::Call, int, void * *)
	??0CpCategorySettingFormItemData@@QAE@ABVQString@@PBVHbDataFormModelItem@@@Z @ 29 NONAME ; CpCategorySettingFormItemData::CpCategorySettingFormItemData(class QString const &, class HbDataFormModelItem const *)
	?qt_metacast@CpCategorySettingFormItemData@@UAEPAXPBD@Z @ 30 NONAME ; void * CpCategorySettingFormItemData::qt_metacast(char const *)
	?toFront@CpTaskExecutor@@QAE_NPAVCpTask@@@Z @ 31 NONAME ; bool CpTaskExecutor::toFront(class CpTask *)
	?qt_metacall@CpCategorySettingFormModel@@UAEHW4Call@QMetaObject@@HPAPAX@Z @ 32 NONAME ; int CpCategorySettingFormModel::qt_metacall(enum QMetaObject::Call, int, void * *)
	?removeTasks@CpTaskExecutor@@AAEXXZ @ 33 NONAME ; void CpTaskExecutor::removeTasks(void)
	?qt_metacall@CpCategorySettingFormItemData@@UAEHW4Call@QMetaObject@@HPAPAX@Z @ 34 NONAME ; int CpCategorySettingFormItemData::qt_metacall(enum QMetaObject::Call, int, void * *)
	?qt_metacast@CpCategorySettingFormModel@@UAEPAXPBD@Z @ 35 NONAME ; void * CpCategorySettingFormModel::qt_metacast(char const *)
	?afterLoadingConfigPlugins@CpCategorySettingFormModel@@EAEXAAVCpItemDataHelper@@@Z @ 36 NONAME ; void CpCategorySettingFormModel::afterLoadingConfigPlugins(class CpItemDataHelper &)
	?getStaticMetaObject@CpCategorySettingFormItemData@@SAABUQMetaObject@@XZ @ 37 NONAME ; struct QMetaObject const & CpCategorySettingFormItemData::getStaticMetaObject(void)
	?metaObject@CpTaskExecutor@@UBEPBUQMetaObject@@XZ @ 38 NONAME ; struct QMetaObject const * CpTaskExecutor::metaObject(void) const
	??0CpCategorySettingFormItemData@@QAE@W4DataItemType@HbDataFormModelItem@@ABVQString@@1PBV2@@Z @ 39 NONAME ; CpCategorySettingFormItemData::CpCategorySettingFormItemData(enum HbDataFormModelItem::DataItemType, class QString const &, class QString const &, class HbDataFormModelItem const *)
	?trUtf8@CpCategorySettingFormItemData@@SA?AVQString@@PBD0H@Z @ 40 NONAME ; class QString CpCategorySettingFormItemData::trUtf8(char const *, char const *, int)
	?runTask@CpTaskExecutor@@QAE_NPAVCpTask@@_N@Z @ 41 NONAME ; bool CpTaskExecutor::runTask(class CpTask *, bool)
	?afterLoadingConfigPlugins@CpCategorySettingFormItemData@@EAEXAAVCpItemDataHelper@@@Z @ 42 NONAME ; void CpCategorySettingFormItemData::afterLoadingConfigPlugins(class CpItemDataHelper &)
	?metaObject@CpCategorySettingFormModel@@UBEPBUQMetaObject@@XZ @ 43 NONAME ; struct QMetaObject const * CpCategorySettingFormModel::metaObject(void) const
	?tr@CpCategorySettingFormModel@@SA?AVQString@@PBD0H@Z @ 44 NONAME ; class QString CpCategorySettingFormModel::tr(char const *, char const *, int)
	?staticMetaObject@CpCategorySettingFormItemData@@2UQMetaObject@@B @ 45 NONAME ; struct QMetaObject const CpCategorySettingFormItemData::staticMetaObject
	?run@CpTaskExecutor@@MAEXXZ @ 46 NONAME ; void CpTaskExecutor::run(void)
	?metaObject@CpCategorySettingFormItemData@@UBEPBUQMetaObject@@XZ @ 47 NONAME ; struct QMetaObject const * CpCategorySettingFormItemData::metaObject(void) const
	?trUtf8@CpTaskExecutor@@SA?AVQString@@PBD0@Z @ 48 NONAME ; class QString CpTaskExecutor::trUtf8(char const *, char const *)
	??_ECpCategorySettingFormItemData@@UAE@I@Z @ 49 NONAME ; CpCategorySettingFormItemData::~CpCategorySettingFormItemData(unsigned int)
	??_ECpCategorySettingFormModel@@UAE@I@Z @ 50 NONAME ; CpCategorySettingFormModel::~CpCategorySettingFormModel(unsigned int)
	?globalInstance@CpTaskExecutor@@SAPAV1@XZ @ 51 NONAME ; class CpTaskExecutor * CpTaskExecutor::globalInstance(void)

