EXPORTS
	_ZN13ClockMainView19setupAfterViewReadyEv @ 1 NONAME
	_ZN13ClockMainView9setupViewER20ClockAppControllerIfP14ClockDocLoader @ 2 NONAME
	_ZN13ClockMainViewC1EP13QGraphicsItem @ 3 NONAME
	_ZN13ClockMainViewC2EP13QGraphicsItem @ 4 NONAME
	_ZN13ClockMainViewD0Ev @ 5 NONAME
	_ZN13ClockMainViewD1Ev @ 6 NONAME
	_ZN13ClockMainViewD2Ev @ 7 NONAME
	_ZN14ClockWorldView9setupViewER20ClockAppControllerIfP14ClockDocLoader @ 8 NONAME
	_ZN14ClockWorldViewC1EP13QGraphicsItem @ 9 NONAME
	_ZN14ClockWorldViewC2EP13QGraphicsItem @ 10 NONAME
	_ZN14ClockWorldViewD0Ev @ 11 NONAME
	_ZN14ClockWorldViewD1Ev @ 12 NONAME
	_ZN14ClockWorldViewD2Ev @ 13 NONAME
	_ZN17ClockHomeCityItemC1EP13QGraphicsItem @ 14 NONAME
	_ZN17ClockHomeCityItemC2EP13QGraphicsItem @ 15 NONAME
	_ZN17ClockHomeCityItemD0Ev @ 16 NONAME
	_ZN17ClockHomeCityItemD1Ev @ 17 NONAME
	_ZN17ClockHomeCityItemD2Ev @ 18 NONAME
	_ZThn16_N13ClockMainViewD0Ev @ 19 NONAME
	_ZThn16_N13ClockMainViewD1Ev @ 20 NONAME
	_ZThn16_N14ClockWorldViewD0Ev @ 21 NONAME
	_ZThn16_N14ClockWorldViewD1Ev @ 22 NONAME
	_ZThn16_N17ClockHomeCityItemD0Ev @ 23 NONAME
	_ZThn16_N17ClockHomeCityItemD1Ev @ 24 NONAME
	_ZThn8_N13ClockMainViewD0Ev @ 25 NONAME
	_ZThn8_N13ClockMainViewD1Ev @ 26 NONAME
	_ZThn8_N14ClockWorldViewD0Ev @ 27 NONAME
	_ZThn8_N14ClockWorldViewD1Ev @ 28 NONAME
	_ZThn8_N17ClockHomeCityItemD0Ev @ 29 NONAME
	_ZThn8_N17ClockHomeCityItemD1Ev @ 30 NONAME
	_ZN13ClockMainView17captureScreenShotEb @ 31 NONAME

