EXPORTS
	_ZN15CMsgStoreFolder8IsLocalLEv @ 1 NONAME
	_ZN16CMsgStoreAccount4NewLElRK7TDesC16 @ 2 NONAME
	_ZN16CMsgStoreAccount5NewLCElRK7TDesC16 @ 3 NONAME
	_ZN16CMsgStoreAccount8SetNameLERK7TDesC16 @ 4 NONAME
	_ZN16CMsgStoreAccount8SetOwnerEl @ 5 NONAME
	_ZN16CMsgStoreAddress11DisplayNameEv @ 6 NONAME
	_ZN16CMsgStoreAddress12EmailAddressEv @ 7 NONAME
	_ZN16CMsgStoreAddress4NewLERK7TDesC16S2_ @ 8 NONAME
	_ZN16CMsgStoreAddressD0Ev @ 9 NONAME
	_ZN16CMsgStoreAddressD1Ev @ 10 NONAME
	_ZN16CMsgStoreAddressD2Ev @ 11 NONAME
	_ZN16CMsgStoreMailBox11MessageIdsLEjR6RArrayIjE @ 12 NONAME
	_ZN16CMsgStoreMailBox11MoveFolderLEjjj @ 13 NONAME
	_ZN16CMsgStoreMailBox12AddObserverLEP24MMsgStoreMailBoxObserver @ 14 NONAME
	_ZN16CMsgStoreMailBox12CancelSearchEv @ 15 NONAME
	_ZN16CMsgStoreMailBox12CopyMessageLEjjj @ 16 NONAME
	_ZN16CMsgStoreMailBox12MoveMessageLEjjj @ 17 NONAME
	_ZN16CMsgStoreMailBox13CreateFolderLEjR26CMsgStorePropertyContaineri @ 18 NONAME
	_ZN16CMsgStoreMailBox13DeleteFolderLEj @ 19 NONAME
	_ZN16CMsgStoreMailBox13FetchMessageLEjj @ 20 NONAME
	_ZN16CMsgStoreMailBox13MruAddressesLER13RPointerArrayI16CMsgStoreAddressE @ 21 NONAME
	_ZN16CMsgStoreMailBox14CreateMessageLEjRK26CMsgStorePropertyContainer @ 22 NONAME
	_ZN16CMsgStoreMailBox14DeleteMessageLEjj @ 23 NONAME
	_ZN16CMsgStoreMailBox14MessageCountsLEjRjS0_ @ 24 NONAME
	_ZN16CMsgStoreMailBox15RemoveObserverLEP24MMsgStoreMailBoxObserver @ 25 NONAME
	_ZN16CMsgStoreMailBox16AddMruAddressesLER13RPointerArrayI16CMsgStoreAddressE @ 26 NONAME
	_ZN16CMsgStoreMailBox16FetchPropertiesLERK6RArrayIjERK13RPointerArrayI6TDesC8ERS4_I26CMsgStorePropertyContainerE @ 27 NONAME
	_ZN16CMsgStoreMailBox16FetchPropertiesLEj @ 28 NONAME
	_ZN16CMsgStoreMailBox17BeginBatchInsertLEv @ 29 NONAME
	_ZN16CMsgStoreMailBox17ContainerTypeByIdEj @ 30 NONAME
	_ZN16CMsgStoreMailBox18FinishBatchInsertLEv @ 31 NONAME
	_ZN16CMsgStoreMailBox18IsCorporateMailboxEv @ 32 NONAME
	_ZN16CMsgStoreMailBox19TotalMessageCountsLERjS0_ @ 33 NONAME
	_ZN16CMsgStoreMailBox22ClearSearchResultCacheEv @ 34 NONAME
	_ZN16CMsgStoreMailBox5SortLER21RMsgStoreSortCriteriai @ 35 NONAME
	_ZN16CMsgStoreMailBox7FolderLEj @ 36 NONAME
	_ZN16CMsgStoreMailBox7SearchLER23RMsgStoreSearchCriteriaR21MMsgStoreSearchClient @ 37 NONAME
	_ZN16CMsgStoreMailBox8FoldersLER13RPointerArrayI15CMsgStoreFolderE @ 38 NONAME
	_ZN16CMsgStoreMailBox8FoldersLEjR13RPointerArrayI15CMsgStoreFolderEi @ 39 NONAME
	_ZN16CMsgStoreMessage7CommitLEv @ 40 NONAME
	_ZN16CMsgStoreMessage8AbandonLEv @ 41 NONAME
	_ZN16RMsgStoreAddress5CloseEv @ 42 NONAME
	_ZN19MsgStoreFolderUtils15GetRootFoldersLER16CMsgStoreMailBoxR20TMsgStoreRootFolders @ 43 NONAME
	_ZN19MsgStoreFolderUtils22InitializeRootFoldersLER16CMsgStoreMailBoxR20TMsgStoreRootFolders @ 44 NONAME
	_ZN20CMsgStoreMessagePart10ChildPartLEji @ 45 NONAME
	_ZN20CMsgStoreMessagePart11ChildPartsLER13RPointerArrayIS_E @ 46 NONAME
	_ZN20CMsgStoreMessagePart13AddChildPartLERK26CMsgStorePropertyContainerR5RFile @ 47 NONAME
	_ZN20CMsgStoreMessagePart13AddChildPartLERK26CMsgStorePropertyContainerRK7TDesC16 @ 48 NONAME
	_ZN20CMsgStoreMessagePart14CopyChildPartLEjj @ 49 NONAME
	_ZN20CMsgStoreMessagePart16AddChildMessageLER26CMsgStorePropertyContainer @ 50 NONAME
	_ZN20CMsgStoreMessagePart16RemoveChildPartLEji @ 51 NONAME
	_ZN20CMsgStoreMessagePart18IsEmbeddedMessageLEv @ 52 NONAME
	_ZN21RMsgStoreSortCriteria18AddResultPropertyLERK6TDesC8 @ 53 NONAME
	_ZN21RMsgStoreSortCriteria5CloseEv @ 54 NONAME
	_ZN23RMsgStoreSearchCriteria11AddFolderIdEj @ 55 NONAME
	_ZN23RMsgStoreSearchCriteria16AddSearchStringLERK7TDesC16 @ 56 NONAME
	_ZN23RMsgStoreSearchCriteria18AddResultPropertyLERK6TDesC8 @ 57 NONAME
	_ZN23RMsgStoreSearchCriteria5CloseEv @ 58 NONAME
	_ZN23RMsgStoreSearchCriteriaC1Ev @ 59 NONAME
	_ZN23RMsgStoreSearchCriteriaC2Ev @ 60 NONAME
	_ZN26CMsgStorePropertyContainer12AddPropertyLERK6TDesC8RK16RMsgStoreAddress @ 61 NONAME
	_ZN26CMsgStorePropertyContainer12AddPropertyLERK6TDesC8RK5TTime @ 62 NONAME
	_ZN26CMsgStorePropertyContainer12AddPropertyLERK6TDesC8RK7TDesC16 @ 63 NONAME
	_ZN26CMsgStorePropertyContainer12AddPropertyLERK6TDesC8RKS_ @ 64 NONAME
	_ZN26CMsgStorePropertyContainer12AddPropertyLERK6TDesC8S2_ @ 65 NONAME
	_ZN26CMsgStorePropertyContainer12AddPropertyLERK6TDesC8i @ 66 NONAME
	_ZN26CMsgStorePropertyContainer12AddPropertyLERK6TDesC8m @ 67 NONAME
	_ZN26CMsgStorePropertyContainer15RemovePropertyLEj @ 68 NONAME
	_ZN26CMsgStorePropertyContainer15UpdatePropertyLEjRK16RMsgStoreAddress @ 69 NONAME
	_ZN26CMsgStorePropertyContainer15UpdatePropertyLEjRK5TTime @ 70 NONAME
	_ZN26CMsgStorePropertyContainer15UpdatePropertyLEjRK6TDesC8 @ 71 NONAME
	_ZN26CMsgStorePropertyContainer15UpdatePropertyLEjRK7TDesC16 @ 72 NONAME
	_ZN26CMsgStorePropertyContainer15UpdatePropertyLEjRKS_ @ 73 NONAME
	_ZN26CMsgStorePropertyContainer15UpdatePropertyLEji @ 74 NONAME
	_ZN26CMsgStorePropertyContainer15UpdatePropertyLEjm @ 75 NONAME
	_ZN26CMsgStorePropertyContainer20AddOrUpdatePropertyLERK6TDesC8RK16RMsgStoreAddress @ 76 NONAME
	_ZN26CMsgStorePropertyContainer20AddOrUpdatePropertyLERK6TDesC8RK5TTime @ 77 NONAME
	_ZN26CMsgStorePropertyContainer20AddOrUpdatePropertyLERK6TDesC8RK7TDesC16 @ 78 NONAME
	_ZN26CMsgStorePropertyContainer20AddOrUpdatePropertyLERK6TDesC8RKS_ @ 79 NONAME
	_ZN26CMsgStorePropertyContainer20AddOrUpdatePropertyLERK6TDesC8S2_ @ 80 NONAME
	_ZN26CMsgStorePropertyContainer20AddOrUpdatePropertyLERK6TDesC8i @ 81 NONAME
	_ZN26CMsgStorePropertyContainer20AddOrUpdatePropertyLERK6TDesC8m @ 82 NONAME
	_ZN26CMsgStorePropertyContainer4NewLEv @ 83 NONAME
	_ZN27CMsgStoreSortResultIterator11GroupCountLER6RArrayIjE @ 84 NONAME
	_ZN27CMsgStoreSortResultIterator11MessageIdsLER6RArrayIjE @ 85 NONAME
	_ZN27CMsgStoreSortResultIterator12IdsAndFlagsLER6RArrayI18TMsgStoreIdAndFlagE @ 86 NONAME
	_ZN27CMsgStoreSortResultIterator12SkipAndNextLEjjR13RPointerArrayI26CMsgStorePropertyContainerE @ 87 NONAME
	_ZN27CMsgStoreSortResultIterator16SkipAndPreviousLEjjR13RPointerArrayI26CMsgStorePropertyContainerE @ 88 NONAME
	_ZN27CMsgStoreSortResultIterator17IdsAndGroupCountLER6RArrayIjES2_ @ 89 NONAME
	_ZN27CMsgStoreSortResultIterator5NextLERK7TDesC16jR13RPointerArrayI26CMsgStorePropertyContainerE @ 90 NONAME
	_ZN27CMsgStoreSortResultIterator5NextLEjjR13RPointerArrayI26CMsgStorePropertyContainerE @ 91 NONAME
	_ZN27CMsgStoreSortResultIterator8IndexOfLEj @ 92 NONAME
	_ZN27CMsgStoreSortResultIterator9PreviousLERK7TDesC16jR13RPointerArrayI26CMsgStorePropertyContainerE @ 93 NONAME
	_ZN27CMsgStoreSortResultIterator9PreviousLEjjR13RPointerArrayI26CMsgStorePropertyContainerE @ 94 NONAME
	_ZN34CMsgStoreWritablePropertyContainer14StorePropertyLEj @ 95 NONAME
	_ZN34CMsgStoreWritablePropertyContainer16StorePropertiesLEv @ 96 NONAME
	_ZN37CMsgStorePropertyContainerWithContent14ContentLengthLEv @ 97 NONAME
	_ZN37CMsgStorePropertyContainerWithContent14RemoveContentLEv @ 98 NONAME
	_ZN37CMsgStorePropertyContainerWithContent15ReplaceContentLERK6TDesC8 @ 99 NONAME
	_ZN37CMsgStorePropertyContainerWithContent16AppendToContentLERK6TDesC8 @ 100 NONAME
	_ZN37CMsgStorePropertyContainerWithContent17PrependToContentLERK6TDesC8 @ 101 NONAME
	_ZN37CMsgStorePropertyContainerWithContent19FetchContentToFileLERK7TDesC16 @ 102 NONAME
	_ZN37CMsgStorePropertyContainerWithContent21FetchContentToBufferLER5TDes8j @ 103 NONAME
	_ZN37CMsgStorePropertyContainerWithContent23ReplaceContentWithFileLERK7TDesC16 @ 104 NONAME
	_ZN37CMsgStorePropertyContainerWithContent24OpenOriginalContentFileLER5RFile @ 105 NONAME
	_ZN9CMsgStore12AddObserverLEP17MMsgStoreObserver @ 106 NONAME
	_ZN9CMsgStore12HasPasswordLEv @ 107 NONAME
	_ZN9CMsgStore12OpenAccountLERK16CMsgStoreAccount @ 108 NONAME
	_ZN9CMsgStore12OpenAccountLEj @ 109 NONAME
	_ZN9CMsgStore12SetPasswordLERK7TDesC16 @ 110 NONAME
	_ZN9CMsgStore13AuthenticateLERK7TDesC16 @ 111 NONAME
	_ZN9CMsgStore14AuthenticatedLEv @ 112 NONAME
	_ZN9CMsgStore14CreateAccountLERK16CMsgStoreAccountPK26CMsgStorePropertyContainer @ 113 NONAME
	_ZN9CMsgStore14DeleteAccountLERK16CMsgStoreAccount @ 114 NONAME
	_ZN9CMsgStore14RenameAccountLElRK7TDesC16S2_ @ 115 NONAME
	_ZN9CMsgStore15ChangePasswordLERK7TDesC16S2_ @ 116 NONAME
	_ZN9CMsgStore15DefaultMailboxLEv @ 117 NONAME
	_ZN9CMsgStore15RemoveObserverLEP17MMsgStoreObserver @ 118 NONAME
	_ZN9CMsgStore15WipeEverythingLEv @ 119 NONAME
	_ZN9CMsgStore17EnableEncryptionLEv @ 120 NONAME
	_ZN9CMsgStore18DisableEncryptionLEv @ 121 NONAME
	_ZN9CMsgStore18SetDefaultMailboxLEj @ 122 NONAME
	_ZN9CMsgStore20ClearAuthenticationLEv @ 123 NONAME
	_ZN9CMsgStore22SetMaxMruAddressCountLEi @ 124 NONAME
	_ZN9CMsgStore4NewLEi @ 125 NONAME
	_ZN9CMsgStore9AccountsLER13RPointerArrayI16CMsgStoreAccountE @ 126 NONAME
	_ZNK16CMsgStoreAccount4NameEv @ 127 NONAME
	_ZNK16CMsgStoreAccount5OwnerEv @ 128 NONAME
	_ZNK26CMsgStorePropertyContainer12FindPropertyERK6TDesC8Rjj @ 129 NONAME
	_ZNK26CMsgStorePropertyContainer13PropertyCountEv @ 130 NONAME
	_ZNK26CMsgStorePropertyContainer13PropertyNameLEj @ 131 NONAME
	_ZNK26CMsgStorePropertyContainer13PropertyTypeLEj @ 132 NONAME
	_ZNK26CMsgStorePropertyContainer17PropertyValueDesLEj @ 133 NONAME
	_ZNK26CMsgStorePropertyContainer18PropertyValueBoolLEj @ 134 NONAME
	_ZNK26CMsgStorePropertyContainer18PropertyValueDes8LEj @ 135 NONAME
	_ZNK26CMsgStorePropertyContainer18PropertyValueTimeLEjR5TTime @ 136 NONAME
	_ZNK26CMsgStorePropertyContainer20PropertyValueUint32LEj @ 137 NONAME
	_ZNK26CMsgStorePropertyContainer21PropertyValueAddressLEjR16RMsgStoreAddress @ 138 NONAME
	_ZNK26CMsgStorePropertyContainer23PropertyValueContainerLEj @ 139 NONAME
	_ZNK26CMsgStorePropertyContainer2IdEv @ 140 NONAME
	_ZNK26CMsgStorePropertyContainer8ParentIdEv @ 141 NONAME

