EXPORTS
	?DeleteMailBoxByUidL@CFSMailClient@@QAEHVTFSMailMsgId@@AAVMFSMailRequestObserver@@@Z @ 1 NONAME ; int CFSMailClient::DeleteMailBoxByUidL(class TFSMailMsgId, class MFSMailRequestObserver &)
	?CancelL@CFSMailClient@@QAEXH@Z @ 2 NONAME ; void CFSMailClient::CancelL(int)
	?ReleaseExtension@CFSMailClient@@UAEXPAVCEmailExtension@@@Z @ 3 NONAME ; void CFSMailClient::ReleaseExtension(class CEmailExtension *)
	?Close@CFSMailClient@@QAEXXZ @ 4 NONAME ; void CFSMailClient::Close(void)
	?DeleteMessagesByUidL@CFSMailClient@@QAEXVTFSMailMsgId@@0ABV?$RArray@VTFSMailMsgId@@@@@Z @ 5 NONAME ; void CFSMailClient::DeleteMessagesByUidL(class TFSMailMsgId, class TFSMailMsgId, class RArray<class TFSMailMsgId> const &)
	?ListMailBoxes@CFSMailClient@@QAEHVTFSMailMsgId@@AAV?$RPointerArray@VCFSMailBox@@@@@Z @ 6 NONAME ; int CFSMailClient::ListMailBoxes(class TFSMailMsgId, class RPointerArray<class CFSMailBox> &)
	?GetFolderByUidL@CFSMailClient@@QAEPAVCFSMailFolder@@VTFSMailMsgId@@0@Z @ 7 NONAME ; class CFSMailFolder * CFSMailClient::GetFolderByUidL(class TFSMailMsgId, class TFSMailMsgId)
	?ExtensionL@CFSMailClient@@UAEPAVCEmailExtension@@ABVTUid@@@Z @ 8 NONAME ; class CEmailExtension * CFSMailClient::ExtensionL(class TUid const &)
	?NewL@CFSMailClient@@SAPAV1@H@Z @ 9 NONAME ; class CFSMailClient * CFSMailClient::NewL(int)
	?GetMessageByUidL@CFSMailClient@@QAEPAVCFSMailMessage@@VTFSMailMsgId@@00W4TFSMailDetails@@@Z @ 10 NONAME ; class CFSMailMessage * CFSMailClient::GetMessageByUidL(class TFSMailMsgId, class TFSMailMsgId, class TFSMailMsgId, enum TFSMailDetails)
	?GetMailBoxByUidL@CFSMailClient@@QAEPAVCFSMailBox@@VTFSMailMsgId@@@Z @ 11 NONAME ; class CFSMailBox * CFSMailClient::GetMailBoxByUidL(class TFSMailMsgId)
	??1CFSMailClient@@EAE@XZ @ 12 NONAME ; CFSMailClient::~CFSMailClient(void)
	?NewLC@CFSMailClient@@SAPAV1@H@Z @ 13 NONAME ; class CFSMailClient * CFSMailClient::NewLC(int)
	?GetSignatureL@CFSMailClient@@QAEPAVHBufC16@@ABVTFSMailMsgId@@@Z @ 14 NONAME ; class HBufC16 * CFSMailClient::GetSignatureL(class TFSMailMsgId const &)
	?RemoveObserver@CFSMailClient@@QAEXAAVMFSMailEventObserver@@@Z @ 15 NONAME ; void CFSMailClient::RemoveObserver(class MFSMailEventObserver &)
	?SubscribeMailboxEventsL@CFSMailClient@@QAEXVTFSMailMsgId@@AAVMFSMailEventObserver@@@Z @ 16 NONAME ; void CFSMailClient::SubscribeMailboxEventsL(class TFSMailMsgId, class MFSMailEventObserver &)
	?ListMessages@CFSMailClient@@QAEPAVMFSMailIterator@@VTFSMailMsgId@@0W4TFSMailDetails@@ABV?$RArray@VTFSMailSortCriteria@@@@@Z @ 17 NONAME ; class MFSMailIterator * CFSMailClient::ListMessages(class TFSMailMsgId, class TFSMailMsgId, enum TFSMailDetails, class RArray<class TFSMailSortCriteria> const &)
	?UnsubscribeMailboxEvents@CFSMailClient@@QAEXVTFSMailMsgId@@AAVMFSMailEventObserver@@@Z @ 18 NONAME ; void CFSMailClient::UnsubscribeMailboxEvents(class TFSMailMsgId, class MFSMailEventObserver &)
	?NewL@CFSMailClient@@SAPAV1@XZ @ 19 NONAME ; class CFSMailClient * CFSMailClient::NewL(void)
	?AddObserverL@CFSMailClient@@QAEXAAVMFSMailEventObserver@@@Z @ 20 NONAME ; void CFSMailClient::AddObserverL(class MFSMailEventObserver &)
	?IncReferenceCount@CFSMailClient@@QAEHXZ @ 21 NONAME ; int CFSMailClient::IncReferenceCount(void)
	?PrepareMrDescriptionL@CFSMailClient@@UAEXABVTFSMailMsgId@@0@Z @ 22 NONAME ; void CFSMailClient::PrepareMrDescriptionL(class TFSMailMsgId const &, class TFSMailMsgId const &)

