EXPORTS
	_ZN10CHlpRowSet11AtBeginningEv @ 1 NONAME
	_ZN10CHlpRowSet17MapColNameToColNoERK6TDbCol @ 2 NONAME
	_ZN10CHlpRowSet17MapColNameToColNoERK7TDesC16 @ 3 NONAME
	_ZN10CHlpRowSet4ViewEv @ 4 NONAME
	_ZN10CHlpRowSet5AtEndEv @ 5 NONAME
	_ZN10CHlpRowSet5AtRowEv @ 6 NONAME
	_ZN10CHlpRowSet5LastLEv @ 7 NONAME
	_ZN10CHlpRowSet5NextLEv @ 8 NONAME
	_ZN10CHlpRowSet6CountLEv @ 9 NONAME
	_ZN10CHlpRowSet6FirstLEv @ 10 NONAME
	_ZN10CHlpRowSet9PreviousLEv @ 11 NONAME
	_ZN10CHlpRowSetD0Ev @ 12 NONAME
	_ZN10CHlpRowSetD1Ev @ 13 NONAME
	_ZN10CHlpRowSetD2Ev @ 14 NONAME
	_ZN12CHlpDbWriter10AddBitmapLEi @ 15 NONAME
	_ZN12CHlpDbWriter10CloseFileLEv @ 16 NONAME
	_ZN12CHlpDbWriter10ImageTableEv @ 17 NONAME
	_ZN12CHlpDbWriter10IndexTableEv @ 18 NONAME
	_ZN12CHlpDbWriter10TopicTableEv @ 19 NONAME
	_ZN12CHlpDbWriter11CreateFileLERK7TDesC16 @ 20 NONAME
	_ZN12CHlpDbWriter12ContextTableEv @ 21 NONAME
	_ZN12CHlpDbWriter15CreateDatabaseLEv @ 22 NONAME
	_ZN12CHlpDbWriter15SetDatabaseUidLER4TUid @ 23 NONAME
	_ZN12CHlpDbWriter15TopicIndexTableEv @ 24 NONAME
	_ZN12CHlpDbWriter16BeginTransactionEv @ 25 NONAME
	_ZN12CHlpDbWriter17CommitTransactionEv @ 26 NONAME
	_ZN12CHlpDbWriter17CompressDatabaseLEv @ 27 NONAME
	_ZN12CHlpDbWriter4NewLER3RFs @ 28 NONAME
	_ZN12CHlpDbWriter5NewLCER3RFs @ 29 NONAME
	_ZN12CHlpDbWriter7SetUidLE4TUid @ 30 NONAME
	_ZN12CHlpDbWriterD0Ev @ 31 NONAME
	_ZN12CHlpDbWriterD1Ev @ 32 NONAME
	_ZN12CHlpDbWriterD2Ev @ 33 NONAME
	_ZN8CHlpView12GetRichTextLEiiR9CRichText @ 34 NONAME
	_ZN8CHlpView4GetLEv @ 35 NONAME
	_ZN8CHlpView4NewLEP7RDbView @ 36 NONAME
	_ZN8CHlpView5NewLCEP7RDbView @ 37 NONAME
	_ZN8CHlpView7GetValLEiRm @ 38 NONAME
	_ZN8CHlpView8GetTextLEiR6TDes16 @ 39 NONAME
	_ZN9CHlpTable4NewLEP7RDbView @ 40 NONAME
	_ZN9CHlpTable4PutLEv @ 41 NONAME
	_ZN9CHlpTable5NewLCEP7RDbView @ 42 NONAME
	_ZN9CHlpTable7InsertLEv @ 43 NONAME
	_ZN9CHlpTable7SetColLEiR9CRichText @ 44 NONAME
	_ZN9CHlpTable7SetColLEiRK10CFbsBitmap @ 45 NONAME
	_ZN9CHlpTable7SetColLEiRK7TDesC16 @ 46 NONAME
	_ZN9CHlpTable7SetColLEiiR9CRichText @ 47 NONAME
	_ZN9CHlpTable7SetColLEim @ 48 NONAME
	_ZNK12CHlpDbWriter11BitmapCountEv @ 49 NONAME
	_ZNK12CHlpDbWriter14IsBitmapStoredEi @ 50 NONAME
	_ZNK12CHlpDbWriter16BitmapIdForIndexEi @ 51 NONAME
	_ZTI10CHlpRowSet @ 52 NONAME ; #<TI>#
	_ZTV10CHlpRowSet @ 53 NONAME ; #<VT>#
	_ZTI12CHlpDbWriter @ 54 NONAME ; #<TI>#
	_ZTI17THlpStoreResolver @ 55 NONAME ; #<TI>#
	_ZTI8CHlpView @ 56 NONAME ; #<TI>#
	_ZTI9CHlpTable @ 57 NONAME ; #<TI>#
	_ZTV12CHlpDbWriter @ 58 NONAME ; #<VT>#
	_ZTV17THlpStoreResolver @ 59 NONAME ; #<VT>#
	_ZTV8CHlpView @ 60 NONAME ; #<VT>#
	_ZTV9CHlpTable @ 61 NONAME ; #<VT>#

