EXPORTS
	_ZN10CPhoneKeys10IsDtmfToneERK9TKeyEvent10TEventCode @ 1 NONAME
	_ZN10CPhoneKeys11IsEscapeKeyERK9TKeyEvent10TEventCode @ 2 NONAME
	_ZN10CPhoneKeys11IsExtraCharEi @ 3 NONAME
	_ZN10CPhoneKeys11IsNumberKeyERK9TKeyEvent10TEventCode @ 4 NONAME
	_ZN10CPhoneKeys12IsNumericKeyERK9TKeyEvent10TEventCode @ 5 NONAME
	_ZN10CPhoneKeys15IsSecondHashKeyERK6TDes16 @ 6 NONAME
	_ZN10CPhoneKeys8ValidateERK7TDesC16 @ 7 NONAME
	_ZN11CPhoneTimer11CancelTimerEv @ 8 NONAME
	_ZN11CPhoneTimer4NewLEi @ 9 NONAME
	_ZN11CPhoneTimer5AfterE27TTimeIntervalMicroSeconds329TCallBack @ 10 NONAME
	_ZN11CPhoneTimer5AfterE27TTimeIntervalMicroSeconds32P11MPhoneTimer @ 11 NONAME
	_ZN11CPhoneTimerD0Ev @ 12 NONAME
	_ZN11CPhoneTimerD1Ev @ 13 NONAME
	_ZN11CPhoneTimerD2Ev @ 14 NONAME
	_ZN12CPhoneLogger14LogStateChangeEii @ 15 NONAME
	_ZN12CPhoneLogger14SetPhoneEngineEP13MPEPhoneModel @ 16 NONAME
	_ZN12CPhoneLogger21LogMsgFromPEToPhoneUIEii @ 17 NONAME
	_ZN12CPhoneLogger21LogMsgFromPhoneUIToPEEii @ 18 NONAME
	_ZN12CPhoneLogger23LogMsgFromControlToViewEii @ 19 NONAME
	_ZN12CPhoneLogger24LogMsgFromPEToPhoneUIEndEi @ 20 NONAME
	_ZN12CPhoneLogger5LogItE20TPhoneUILoggingLevel24TPhoneUILoggingComponent11TRefByValueIK7TDesC16Ez @ 21 NONAME
	_ZN12CPhoneLogger8OverflowER6TDes16 @ 22 NONAME
	_ZN12CPhoneLoggerC1E4TUid @ 23 NONAME
	_ZN12CPhoneLoggerC2E4TUid @ 24 NONAME
	_ZN12CPhoneLoggerD0Ev @ 25 NONAME
	_ZN12CPhoneLoggerD1Ev @ 26 NONAME
	_ZN12CPhoneLoggerD2Ev @ 27 NONAME
	_ZN13CPhoneStorage19NeedToEnableKeylockEv @ 28 NONAME
	_ZN13CPhoneStorage22SetNeedToEnableKeylockEi @ 29 NONAME
	_ZN13CPhoneStorage4NewLEv @ 30 NONAME
	_ZN13CPhoneStorageD0Ev @ 31 NONAME
	_ZN13CPhoneStorageD1Ev @ 32 NONAME
	_ZN13CPhoneStorageD2Ev @ 33 NONAME
	_ZN17CPhoneCenRepProxy12CancelNotifyEP20MPhoneCenRepObserverj @ 34 NONAME
	_ZN17CPhoneCenRepProxy13NotifyChangeLERK4TUidjP20MPhoneCenRepObserver @ 35 NONAME
	_ZN17CPhoneCenRepProxy17CancelAllNotifiesEP20MPhoneCenRepObserver @ 36 NONAME
	_ZN17CPhoneCenRepProxy22FetchValuesFromCenRepLER21TPhoneCmdParamAppInfo8TKeyCodeP6HBufC8Ri @ 37 NONAME
	_ZN17CPhoneCenRepProxy25IsPhoneUIFeatureSupportedEi @ 38 NONAME
	_ZN17CPhoneCenRepProxy27IsTelephonyFeatureSupportedEi @ 39 NONAME
	_ZN17CPhoneCenRepProxy6SetIntERK4TUidji @ 40 NONAME
	_ZN17CPhoneCenRepProxy7SetRealERK4TUidjd @ 41 NONAME
	_ZN17CPhoneCenRepProxy8InstanceEv @ 42 NONAME
	_ZN17CPhoneCenRepProxy9SetStringERK4TUidjRK7TDesC16 @ 43 NONAME
	_ZN17CPhoneCenRepProxyD0Ev @ 44 NONAME
	_ZN17CPhoneCenRepProxyD1Ev @ 45 NONAME
	_ZN17CPhoneCenRepProxyD2Ev @ 46 NONAME
	_ZN17CPhonePubSubProxy13NotifyChangeLERK4TUidjP20MPhonePubSubObserver @ 47 NONAME
	_ZN17CPhonePubSubProxy19ChangePropertyValueERK4TUidji @ 48 NONAME
	_ZN17CPhonePubSubProxy22CancelAllNotificationsEP20MPhonePubSubObserver @ 49 NONAME
	_ZN17CPhonePubSubProxy5ValueERK4TUidj @ 50 NONAME
	_ZN17CPhonePubSubProxy8InstanceEv @ 51 NONAME
	_ZN17CPhonePubSubProxyD0Ev @ 52 NONAME
	_ZN17CPhonePubSubProxyD1Ev @ 53 NONAME
	_ZN17CPhonePubSubProxyD2Ev @ 54 NONAME
	_ZN18CPhoneMethodLoggerC1E24TPhoneUILoggingComponent7TPtrC16 @ 55 NONAME
	_ZN18CPhoneMethodLoggerC2E24TPhoneUILoggingComponent7TPtrC16 @ 56 NONAME
	_ZN18CPhoneMethodLoggerD0Ev @ 57 NONAME
	_ZN18CPhoneMethodLoggerD1Ev @ 58 NONAME
	_ZN18CPhoneMethodLoggerD2Ev @ 59 NONAME
	_ZN18TPhoneCmdParamNote10SetTimeoutEN14CAknNoteDialog8TTimeoutE @ 60 NONAME
	_ZN18TPhoneCmdParamNote13SetResourceIdEi @ 61 NONAME
	_ZN18TPhoneCmdParamNote17SetTextResourceIdEi @ 62 NONAME
	_ZN18TPhoneCmdParamNote7SetTextERK7TDesC16 @ 63 NONAME
	_ZN18TPhoneCmdParamNote7SetToneEN14CAknNoteDialog5TToneE @ 64 NONAME
	_ZN18TPhoneCmdParamNote7SetTypeE14TPhoneNoteType @ 65 NONAME
	_ZN18TPhoneCmdParamNoteC1Ev @ 66 NONAME
	_ZN18TPhoneCmdParamNoteC2Ev @ 67 NONAME
	_ZN18TPhoneCommandParamC1Ev @ 68 NONAME
	_ZN18TPhoneCommandParamC2Ev @ 69 NONAME
	_ZN19TPhoneCmdParamQuery10SetTimeOutEi @ 70 NONAME
	_ZN19TPhoneCmdParamQuery11SetDataTextEP6TDes16 @ 71 NONAME
	_ZN19TPhoneCmdParamQuery12SetQueryTypeE15TPhoneQueryType @ 72 NONAME
	_ZN19TPhoneCmdParamQuery13SetContentCbaEi @ 73 NONAME
	_ZN19TPhoneCmdParamQuery13SetDefaultCbaEi @ 74 NONAME
	_ZN19TPhoneCmdParamQuery14SetQueryPromptERK7TDesC16 @ 75 NONAME
	_ZN19TPhoneCmdParamQuery17SetCommandParamIdEN18TPhoneCommandParam13TPhoneParamIdE @ 76 NONAME
	_ZN19TPhoneCmdParamQuery17SetSendKeyEnabledEi @ 77 NONAME
	_ZN19TPhoneCmdParamQuery18SetQueryResourceIdEi @ 78 NONAME
	_ZN19TPhoneCmdParamQuery20QueryCommandObserverEv @ 79 NONAME
	_ZN19TPhoneCmdParamQuery20SetCbaCommandMappingEii @ 80 NONAME
	_ZN19TPhoneCmdParamQuery23SetQueryCommandObserverER26MPhoneQueryCommandObserver @ 81 NONAME
	_ZN19TPhoneCmdParamQuery26SetCustomCommandForTimeOutEi @ 82 NONAME
	_ZN19TPhoneCmdParamQuery28SetItemTextArrayForListQueryER12MDesC16Array @ 83 NONAME
	_ZN19TPhoneCmdParamQuery7SetToneEi @ 84 NONAME
	_ZN19TPhoneCmdParamQueryC1ERKS_ @ 85 NONAME
	_ZN19TPhoneCmdParamQueryC1Ev @ 86 NONAME
	_ZN19TPhoneCmdParamQueryC2ERKS_ @ 87 NONAME
	_ZN19TPhoneCmdParamQueryC2Ev @ 88 NONAME
	_ZN19TPhoneCmdParamQueryaSERKS_ @ 89 NONAME
	_ZN20CPhoneClearBlacklist17ClearBlackListNowEv @ 90 NONAME
	_ZN20CPhoneClearBlacklist23ClearBlackListOnNextKeyEv @ 91 NONAME
	_ZN20CPhoneClearBlacklist7CreateLER10RWsSessionRK11RWindowBase @ 92 NONAME
	_ZN20CPhoneClearBlacklist8InstanceEv @ 93 NONAME
	_ZN20CPhoneClearBlacklistD0Ev @ 94 NONAME
	_ZN20CPhoneClearBlacklistD1Ev @ 95 NONAME
	_ZN20CPhoneClearBlacklistD2Ev @ 96 NONAME
	_ZN20CPhoneRecoverySystem10RecoverNowEiai @ 97 NONAME
	_ZN20CPhoneRecoverySystem19EnablePreconditionLEv @ 98 NONAME
	_ZN20CPhoneRecoverySystem4AddLE9TCallBackaN19CTeleRecoverySystem14TRecoveryStateE @ 99 NONAME
	_ZN20CPhoneRecoverySystem6RemoveEi @ 100 NONAME
	_ZN20CPhoneRecoverySystem8InstanceEv @ 101 NONAME
	_ZN20TPhoneCmdParamBitmap13SetMaskBitmapEP10CFbsBitmap @ 102 NONAME
	_ZN20TPhoneCmdParamBitmap9SetBitmapEP10CFbsBitmap @ 103 NONAME
	_ZN20TPhoneCmdParamBitmapC1Ev @ 104 NONAME
	_ZN20TPhoneCmdParamBitmapC2Ev @ 105 NONAME
	_ZN20TPhoneCmdParamString6StringEv @ 106 NONAME
	_ZN20TPhoneCmdParamString9SetStringEP6TPtr16 @ 107 NONAME
	_ZN20TPhoneCmdParamStringC1Ev @ 108 NONAME
	_ZN20TPhoneCmdParamStringC2Ev @ 109 NONAME
	_ZN21TPhoneCmdParamAppInfo10SetViewUidERK4TUid @ 110 NONAME
	_ZN21TPhoneCmdParamAppInfo16SetCustomMessageERK6TDesC8 @ 111 NONAME
	_ZN21TPhoneCmdParamAppInfo18SetCustomMessageIdERK4TUid @ 112 NONAME
	_ZN21TPhoneCmdParamAppInfo20SetMultipleInstancesEi @ 113 NONAME
	_ZN21TPhoneCmdParamAppInfo8SetParamERK6TDesC8 @ 114 NONAME
	_ZN21TPhoneCmdParamAppInfo9SetAppUidERK4TUid @ 115 NONAME
	_ZN21TPhoneCmdParamAppInfoC1Ev @ 116 NONAME
	_ZN21TPhoneCmdParamAppInfoC2Ev @ 117 NONAME
	_ZN21TPhoneCmdParamBoolean10SetBooleanEi @ 118 NONAME
	_ZN21TPhoneCmdParamBooleanC1Ev @ 119 NONAME
	_ZN21TPhoneCmdParamBooleanC2Ev @ 120 NONAME
	_ZN21TPhoneCmdParamDynMenu10SetDynMenuEPv @ 121 NONAME
	_ZN21TPhoneCmdParamDynMenu13SetResourceIdEi @ 122 NONAME
	_ZN21TPhoneCmdParamDynMenu7DynMenuEv @ 123 NONAME
	_ZN21TPhoneCmdParamDynMenuC1Ev @ 124 NONAME
	_ZN21TPhoneCmdParamDynMenuC2Ev @ 125 NONAME
	_ZN21TPhoneCmdParamInteger10SetIntegerEi @ 126 NONAME
	_ZN21TPhoneCmdParamIntegerC1Ev @ 127 NONAME
	_ZN21TPhoneCmdParamIntegerC2Ev @ 128 NONAME
	_ZN21TPhoneCmdParamPointer10SetPointerEPv @ 129 NONAME
	_ZN21TPhoneCmdParamPointerC1Ev @ 130 NONAME
	_ZN21TPhoneCmdParamPointerC2Ev @ 131 NONAME
	_ZN21TPhoneCmdParamSfiData7SetNameERK7TDesC16 @ 132 NONAME
	_ZN21TPhoneCmdParamSfiData9SetNumberERK7TDesC16 @ 133 NONAME
	_ZN21TPhoneCmdParamSfiDataC1Ev @ 134 NONAME
	_ZN21TPhoneCmdParamSfiDataC2Ev @ 135 NONAME
	_ZN22CPhoneCallThemeMonitor28SetCallThemeSettingsObserverEP31MPhoneCallThemeSettingsObserver @ 136 NONAME
	_ZN22CPhoneCallThemeMonitor4NewLEv @ 137 NONAME
	_ZN22CPhoneCallThemeMonitorD0Ev @ 138 NONAME
	_ZN22CPhoneCallThemeMonitorD1Ev @ 139 NONAME
	_ZN22CPhoneCallThemeMonitorD2Ev @ 140 NONAME
	_ZN22CPhoneLibraryContainer11AddLibraryLERK8RLibrary @ 141 NONAME
	_ZN22CPhoneLibraryContainer4NewLEv @ 142 NONAME
	_ZN22CPhoneLibraryContainerD0Ev @ 143 NONAME
	_ZN22CPhoneLibraryContainerD1Ev @ 144 NONAME
	_ZN22CPhoneLibraryContainerD2Ev @ 145 NONAME
	_ZN22TPhoneCmdParamKeyEvent11SetKeyEventERK9TKeyEvent @ 146 NONAME
	_ZN22TPhoneCmdParamKeyEvent12SetEventCodeE10TEventCode @ 147 NONAME
	_ZN22TPhoneCmdParamKeyEventC1Ev @ 148 NONAME
	_ZN22TPhoneCmdParamKeyEventC2Ev @ 149 NONAME
	_ZN22TPhoneCmdParamRingTone11SetRingToneERK7TDesC16 @ 150 NONAME
	_ZN22TPhoneCmdParamRingTone12IsCallerTextEv @ 151 NONAME
	_ZN22TPhoneCmdParamRingTone12SetTextToSayERK7TDesC16 @ 152 NONAME
	_ZN22TPhoneCmdParamRingTone13IsCallerImageEv @ 153 NONAME
	_ZN22TPhoneCmdParamRingTone14SetRingingTypeEi @ 154 NONAME
	_ZN22TPhoneCmdParamRingTone19SetCallerTextStatusEi @ 155 NONAME
	_ZN22TPhoneCmdParamRingTone20SetCallerImageStatusEi @ 156 NONAME
	_ZN22TPhoneCmdParamRingTone7SetTypeE18TPhoneRingToneType @ 157 NONAME
	_ZN22TPhoneCmdParamRingTone9SetVolumeEi @ 158 NONAME
	_ZN22TPhoneCmdParamRingToneC1Ev @ 159 NONAME
	_ZN22TPhoneCmdParamRingToneC2Ev @ 160 NONAME
	_ZN24TPhoneCmdParamGlobalNote10SetTimeoutEi @ 161 NONAME
	_ZN24TPhoneCmdParamGlobalNote11SetToneTypeE26TPhoneNotificationToneType @ 162 NONAME
	_ZN24TPhoneCmdParamGlobalNote12SetCauseCodeEi @ 163 NONAME
	_ZN24TPhoneCmdParamGlobalNote17SetTextResourceIdEi @ 164 NONAME
	_ZN24TPhoneCmdParamGlobalNote21SetNotificationDialogEi @ 165 NONAME
	_ZN24TPhoneCmdParamGlobalNote7SetTextERK7TDesC16 @ 166 NONAME
	_ZN24TPhoneCmdParamGlobalNote7SetTypeE22TPhoneNotificationType @ 167 NONAME
	_ZN24TPhoneCmdParamGlobalNoteC1Ev @ 168 NONAME
	_ZN24TPhoneCmdParamGlobalNoteC2Ev @ 169 NONAME
	_ZN24TPhoneCmdParamKeyCapture10SetKeyCodeE8TKeyCode @ 170 NONAME
	_ZN24TPhoneCmdParamKeyCapture14SetCaptureTypeE17TPhoneCaptureType @ 171 NONAME
	_ZN24TPhoneCmdParamKeyCapture6SetKeyE12TStdScanCode @ 172 NONAME
	_ZN24TPhoneCmdParamKeyCaptureC1Ev @ 173 NONAME
	_ZN24TPhoneCmdParamKeyCaptureC2Ev @ 174 NONAME
	_ZN25TPhoneCmdParamAudioOutput14SetAudioOutputE14TPEAudioOutput @ 175 NONAME
	_ZN25TPhoneCmdParamAudioOutputC1Ev @ 176 NONAME
	_ZN25TPhoneCmdParamAudioOutputC2Ev @ 177 NONAME
	_ZN25TPhoneCmdParamTransEffect7SetTypeE21TPhoneTransEffectType @ 178 NONAME
	_ZN25TPhoneCmdParamTransEffectC1Ev @ 179 NONAME
	_ZN25TPhoneCmdParamTransEffectC2Ev @ 180 NONAME
	_ZN26CPhoneMainResourceResolver8InstanceEv @ 181 NONAME
	_ZN26CPhoneResourceResolverBase14BaseConstructLEv @ 182 NONAME
	_ZN26CPhoneResourceResolverBaseC1Ev @ 183 NONAME
	_ZN26CPhoneResourceResolverBaseC2Ev @ 184 NONAME
	_ZN26CPhoneResourceResolverBaseD0Ev @ 185 NONAME
	_ZN26CPhoneResourceResolverBaseD1Ev @ 186 NONAME
	_ZN26CPhoneResourceResolverBaseD2Ev @ 187 NONAME
	_ZN26TPhoneCmdParamCustomDialer16DialerControllerEv @ 188 NONAME
	_ZN26TPhoneCmdParamCustomDialer19SetDialerControllerEP22MPhoneDialerController @ 189 NONAME
	_ZN26TPhoneCmdParamCustomDialerC1Ev @ 190 NONAME
	_ZN26TPhoneCmdParamCustomDialerC2Ev @ 191 NONAME
	_ZN26TPhoneCmdParamProgressNote11SetWaitTimeE27TTimeIntervalMicroSeconds32 @ 192 NONAME
	_ZN26TPhoneCmdParamProgressNote13SetResourceIdEi @ 193 NONAME
	_ZN26TPhoneCmdParamProgressNoteC1Ev @ 194 NONAME
	_ZN26TPhoneCmdParamProgressNoteC2Ev @ 195 NONAME
	_ZN27TPhoneCmdParamCallStateData12SetCallStateEi @ 196 NONAME
	_ZN27TPhoneCmdParamCallStateData9SetCallIdEi @ 197 NONAME
	_ZN27TPhoneCmdParamCallStateDataC1Ev @ 198 NONAME
	_ZN27TPhoneCmdParamCallStateDataC2Ev @ 199 NONAME
	_ZN28TPhoneCmdParamCallHeaderData10SetCLITextERK7TDesC16NS_27TPhoneTextClippingDirectionE @ 200 NONAME
	_ZN28TPhoneCmdParamCallHeaderData10SetPictureERK7TDesC16 @ 201 NONAME
	_ZN28TPhoneCmdParamCallHeaderData11SetCNAPTextERK7TDesC16NS_27TPhoneTextClippingDirectionE @ 202 NONAME
	_ZN28TPhoneCmdParamCallHeaderData11SetCallTypeEi @ 203 NONAME
	_ZN28TPhoneCmdParamCallHeaderData11SetDivertedEi @ 204 NONAME
	_ZN28TPhoneCmdParamCallHeaderData12SetCallStateEi @ 205 NONAME
	_ZN28TPhoneCmdParamCallHeaderData12SetCipheringEi @ 206 NONAME
	_ZN28TPhoneCmdParamCallHeaderData12SetLabelTextERK7TDesC16 @ 207 NONAME
	_ZN28TPhoneCmdParamCallHeaderData12SetServiceIdEm @ 208 NONAME
	_ZN28TPhoneCmdParamCallHeaderData12SetThumbnailEP10CFbsBitmap @ 209 NONAME
	_ZN28TPhoneCmdParamCallHeaderData13SetCallerTextERK7TDesC16 @ 210 NONAME
	_ZN28TPhoneCmdParamCallHeaderData13SetNumberTypeEi @ 211 NONAME
	_ZN28TPhoneCmdParamCallHeaderData14SetContactLinkERK6TDesC8 @ 212 NONAME
	_ZN28TPhoneCmdParamCallHeaderData15SetHasThumbnailEi @ 213 NONAME
	_ZN28TPhoneCmdParamCallHeaderData17SetShortLabelTextERK7TDesC16 @ 214 NONAME
	_ZN28TPhoneCmdParamCallHeaderData20SetRemotePhoneNumberERK7TDesC16 @ 215 NONAME
	_ZN28TPhoneCmdParamCallHeaderData21SetParticipantListCLIENS_24TPhoneParticipantListCLIE @ 216 NONAME
	_ZN28TPhoneCmdParamCallHeaderData28SetCipheringIndicatorAllowedEi @ 217 NONAME
	_ZN28TPhoneCmdParamCallHeaderData8SetLine2Ei @ 218 NONAME
	_ZN28TPhoneCmdParamCallHeaderDataC1Ev @ 219 NONAME
	_ZN28TPhoneCmdParamCallHeaderDataC2Ev @ 220 NONAME
	_ZN28TPhoneCmdParamCallHeaderDataD1Ev @ 221 NONAME
	_ZN28TPhoneCmdParamCallHeaderDataD2Ev @ 222 NONAME
	_ZN30CPhoneMainErrorMessagesHandler8InstanceEv @ 223 NONAME
	_ZN31TPhoneCmdParamAudioAvailability17SetBTAccAvailableEi @ 224 NONAME
	_ZN31TPhoneCmdParamAudioAvailability20SetWiredAccAvailableEi @ 225 NONAME
	_ZN31TPhoneCmdParamAudioAvailabilityC1Ev @ 226 NONAME
	_ZN31TPhoneCmdParamAudioAvailabilityC2Ev @ 227 NONAME
	_ZN33TPhoneCmdParamIncallIndicatorData12SetCallStateEi @ 228 NONAME
	_ZN33TPhoneCmdParamIncallIndicatorData12SetCipheringEi @ 229 NONAME
	_ZN33TPhoneCmdParamIncallIndicatorData12SetEmergencyEi @ 230 NONAME
	_ZN33TPhoneCmdParamIncallIndicatorData22SetLittleBubbleVisibleEi @ 231 NONAME
	_ZN33TPhoneCmdParamIncallIndicatorData28SetCipheringIndicatorAllowedEi @ 232 NONAME
	_ZN33TPhoneCmdParamIncallIndicatorData7SetModeEi @ 233 NONAME
	_ZN33TPhoneCmdParamIncallIndicatorData7SetMuteEi @ 234 NONAME
	_ZN33TPhoneCmdParamIncallIndicatorData8SetLine2Ei @ 235 NONAME
	_ZN33TPhoneCmdParamIncallIndicatorDataC1Ev @ 236 NONAME
	_ZN33TPhoneCmdParamIncallIndicatorDataC2Ev @ 237 NONAME
	_ZN33TPhoneCmdParamNumberEntryObserver11SetObserverE9TCallBack @ 238 NONAME
	_ZN33TPhoneCmdParamNumberEntryObserver8ObserverEv @ 239 NONAME
	_ZN33TPhoneCmdParamNumberEntryObserverC1Ev @ 240 NONAME
	_ZN33TPhoneCmdParamNumberEntryObserverC2Ev @ 241 NONAME
	_ZN37TPhoneCmdParamEmergencyCallHeaderData12SetCipheringEi @ 242 NONAME
	_ZN37TPhoneCmdParamEmergencyCallHeaderData12SetLabelTextERK7TDesC16 @ 243 NONAME
	_ZN37TPhoneCmdParamEmergencyCallHeaderData13SetHeaderTextERK7TDesC16 @ 244 NONAME
	_ZN37TPhoneCmdParamEmergencyCallHeaderData21SetOwnPhoneNumberTextERK7TDesC16 @ 245 NONAME
	_ZN37TPhoneCmdParamEmergencyCallHeaderData28SetCipheringIndicatorAllowedEi @ 246 NONAME
	_ZN37TPhoneCmdParamEmergencyCallHeaderDataC1Ev @ 247 NONAME
	_ZN37TPhoneCmdParamEmergencyCallHeaderDataC2Ev @ 248 NONAME
	_ZNK17CPhoneCenRepProxy4FindERK4TUidmmR6RArrayImE @ 249 NONAME
	_ZNK17CPhoneCenRepProxy6GetIntERK4TUidjRi @ 250 NONAME
	_ZNK17CPhoneCenRepProxy7GetRealERK4TUidjRd @ 251 NONAME
	_ZNK17CPhoneCenRepProxy9GetStringERK4TUidjR6TDes16 @ 252 NONAME
	_ZNK18TPhoneCmdParamNote10ResourceIdEv @ 253 NONAME
	_ZNK18TPhoneCmdParamNote14TextResourceIdEv @ 254 NONAME
	_ZNK18TPhoneCmdParamNote4TextEv @ 255 NONAME
	_ZNK18TPhoneCmdParamNote4ToneEv @ 256 NONAME
	_ZNK18TPhoneCmdParamNote4TypeEv @ 257 NONAME
	_ZNK18TPhoneCmdParamNote7TimeoutEv @ 258 NONAME
	_ZNK18TPhoneCommandParam7ParamIdEv @ 259 NONAME
	_ZNK19TPhoneCmdParamQuery10ContentCbaEv @ 260 NONAME
	_ZNK19TPhoneCmdParamQuery10DefaultCbaEv @ 261 NONAME
	_ZNK19TPhoneCmdParamQuery11QueryPromptEv @ 262 NONAME
	_ZNK19TPhoneCmdParamQuery14SendKeyEnabledEv @ 263 NONAME
	_ZNK19TPhoneCmdParamQuery15QueryResourceIdEv @ 264 NONAME
	_ZNK19TPhoneCmdParamQuery17CbaCommandMappingEi @ 265 NONAME
	_ZNK19TPhoneCmdParamQuery25ItemTextArrayForListQueryEv @ 266 NONAME
	_ZNK19TPhoneCmdParamQuery26GetCustomCommandForTimeOutERi @ 267 NONAME
	_ZNK19TPhoneCmdParamQuery4ToneEv @ 268 NONAME
	_ZNK19TPhoneCmdParamQuery7TimeOutEv @ 269 NONAME
	_ZNK19TPhoneCmdParamQuery8DataTextEv @ 270 NONAME
	_ZNK19TPhoneCmdParamQuery9QueryTypeEv @ 271 NONAME
	_ZNK20TPhoneCmdParamBitmap10MaskBitmapEv @ 272 NONAME
	_ZNK20TPhoneCmdParamBitmap6BitmapEv @ 273 NONAME
	_ZNK21TPhoneCmdParamAppInfo13CustomMessageEv @ 274 NONAME
	_ZNK21TPhoneCmdParamAppInfo15CustomMessageIdEv @ 275 NONAME
	_ZNK21TPhoneCmdParamAppInfo17MultipleInstancesEv @ 276 NONAME
	_ZNK21TPhoneCmdParamAppInfo5ParamEv @ 277 NONAME
	_ZNK21TPhoneCmdParamAppInfo6AppUidEv @ 278 NONAME
	_ZNK21TPhoneCmdParamAppInfo7ViewUidEv @ 279 NONAME
	_ZNK21TPhoneCmdParamBoolean7BooleanEv @ 280 NONAME
	_ZNK21TPhoneCmdParamDynMenu10ResourceIdEv @ 281 NONAME
	_ZNK21TPhoneCmdParamInteger7IntegerEv @ 282 NONAME
	_ZNK21TPhoneCmdParamPointer7PointerEv @ 283 NONAME
	_ZNK21TPhoneCmdParamSfiData4NameEv @ 284 NONAME
	_ZNK21TPhoneCmdParamSfiData6NumberEv @ 285 NONAME
	_ZNK22CPhoneCallThemeMonitor22CallImageThemeFilePathEv @ 286 NONAME
	_ZNK22CPhoneCallThemeMonitor22CallImageThemeSettingsEv @ 287 NONAME
	_ZNK22TPhoneCmdParamKeyEvent8KeyEventEv @ 288 NONAME
	_ZNK22TPhoneCmdParamKeyEvent9EventCodeEv @ 289 NONAME
	_ZNK22TPhoneCmdParamRingTone11RingingTypeEv @ 290 NONAME
	_ZNK22TPhoneCmdParamRingTone4TypeEv @ 291 NONAME
	_ZNK22TPhoneCmdParamRingTone6VolumeEv @ 292 NONAME
	_ZNK22TPhoneCmdParamRingTone8RingToneEv @ 293 NONAME
	_ZNK22TPhoneCmdParamRingTone9TextToSayEv @ 294 NONAME
	_ZNK24TPhoneCmdParamGlobalNote14TextResourceIdEv @ 295 NONAME
	_ZNK24TPhoneCmdParamGlobalNote18NotificationDialogEv @ 296 NONAME
	_ZNK24TPhoneCmdParamGlobalNote4TextEv @ 297 NONAME
	_ZNK24TPhoneCmdParamGlobalNote4TypeEv @ 298 NONAME
	_ZNK24TPhoneCmdParamGlobalNote7TimeoutEv @ 299 NONAME
	_ZNK24TPhoneCmdParamGlobalNote8ToneTypeEv @ 300 NONAME
	_ZNK24TPhoneCmdParamGlobalNote9CauseCodeEv @ 301 NONAME
	_ZNK24TPhoneCmdParamKeyCapture11CaptureTypeEv @ 302 NONAME
	_ZNK24TPhoneCmdParamKeyCapture3KeyEv @ 303 NONAME
	_ZNK24TPhoneCmdParamKeyCapture7KeyCodeEv @ 304 NONAME
	_ZNK25TPhoneCmdParamAudioOutput11AudioOutputEv @ 305 NONAME
	_ZNK25TPhoneCmdParamTransEffect4TypeEv @ 306 NONAME
	_ZNK26CPhoneResourceResolverBase17ResolveResourceIDERKi @ 307 NONAME
	_ZNK26CPhoneResourceResolverBase27IsTelephonyFeatureSupportedEi @ 308 NONAME
	_ZNK26TPhoneCmdParamProgressNote10ResourceIdEv @ 309 NONAME
	_ZNK26TPhoneCmdParamProgressNote8WaitTimeEv @ 310 NONAME
	_ZNK27TPhoneCmdParamCallStateData6CallIdEv @ 311 NONAME
	_ZNK27TPhoneCmdParamCallStateData9CallStateEv @ 312 NONAME
	_ZNK28TPhoneCmdParamCallHeaderData10CallerTextEv @ 313 NONAME
	_ZNK28TPhoneCmdParamCallHeaderData10NumberTypeEv @ 314 NONAME
	_ZNK28TPhoneCmdParamCallHeaderData11ContactLinkEv @ 315 NONAME
	_ZNK28TPhoneCmdParamCallHeaderData12HasThumbnailEv @ 316 NONAME
	_ZNK28TPhoneCmdParamCallHeaderData14ParticipantCLIEv @ 317 NONAME
	_ZNK28TPhoneCmdParamCallHeaderData14ShortLabelTextEv @ 318 NONAME
	_ZNK28TPhoneCmdParamCallHeaderData17RemotePhoneNumberEv @ 319 NONAME
	_ZNK28TPhoneCmdParamCallHeaderData24CLITextClippingDirectionEv @ 320 NONAME
	_ZNK28TPhoneCmdParamCallHeaderData25CNAPTextClippingDirectionEv @ 321 NONAME
	_ZNK28TPhoneCmdParamCallHeaderData25CipheringIndicatorAllowedEv @ 322 NONAME
	_ZNK28TPhoneCmdParamCallHeaderData5Line2Ev @ 323 NONAME
	_ZNK28TPhoneCmdParamCallHeaderData7CLITextEv @ 324 NONAME
	_ZNK28TPhoneCmdParamCallHeaderData7PictureEv @ 325 NONAME
	_ZNK28TPhoneCmdParamCallHeaderData8CNAPTextEv @ 326 NONAME
	_ZNK28TPhoneCmdParamCallHeaderData8CallTypeEv @ 327 NONAME
	_ZNK28TPhoneCmdParamCallHeaderData8DivertedEv @ 328 NONAME
	_ZNK28TPhoneCmdParamCallHeaderData9CallStateEv @ 329 NONAME
	_ZNK28TPhoneCmdParamCallHeaderData9CipheringEv @ 330 NONAME
	_ZNK28TPhoneCmdParamCallHeaderData9LabelTextEv @ 331 NONAME
	_ZNK28TPhoneCmdParamCallHeaderData9ServiceIdEv @ 332 NONAME
	_ZNK28TPhoneCmdParamCallHeaderData9ThumbnailEv @ 333 NONAME
	_ZNK31TPhoneCmdParamAudioAvailability16IsBTAccAvailableEv @ 334 NONAME
	_ZNK31TPhoneCmdParamAudioAvailability19IsWiredAccAvailableEv @ 335 NONAME
	_ZNK33TPhoneCmdParamIncallIndicatorData19LittleBubbleVisibleEv @ 336 NONAME
	_ZNK33TPhoneCmdParamIncallIndicatorData25CipheringIndicatorAllowedEv @ 337 NONAME
	_ZNK33TPhoneCmdParamIncallIndicatorData4ModeEv @ 338 NONAME
	_ZNK33TPhoneCmdParamIncallIndicatorData4MuteEv @ 339 NONAME
	_ZNK33TPhoneCmdParamIncallIndicatorData5Line2Ev @ 340 NONAME
	_ZNK33TPhoneCmdParamIncallIndicatorData9CallStateEv @ 341 NONAME
	_ZNK33TPhoneCmdParamIncallIndicatorData9CipheringEv @ 342 NONAME
	_ZNK33TPhoneCmdParamIncallIndicatorData9EmergencyEv @ 343 NONAME
	_ZNK37TPhoneCmdParamEmergencyCallHeaderData10HeaderTextEv @ 344 NONAME
	_ZNK37TPhoneCmdParamEmergencyCallHeaderData18OwnPhoneNumberTextEv @ 345 NONAME
	_ZNK37TPhoneCmdParamEmergencyCallHeaderData25CipheringIndicatorAllowedEv @ 346 NONAME
	_ZNK37TPhoneCmdParamEmergencyCallHeaderData9CipheringEv @ 347 NONAME
	_ZNK37TPhoneCmdParamEmergencyCallHeaderData9LabelTextEv @ 348 NONAME
	_ZTI11CPhoneTimer @ 349 NONAME
	_ZTI12CPhoneLogger @ 350 NONAME
	_ZTI13CPhoneStorage @ 351 NONAME
	_ZTI17CPhoneCenRepProxy @ 352 NONAME
	_ZTI17CPhonePubSubProxy @ 353 NONAME
	_ZTI18CPhoneMethodLogger @ 354 NONAME
	_ZTI20CPhoneClearBlacklist @ 355 NONAME
	_ZTI20CPhoneRecoverySystem @ 356 NONAME
	_ZTI22CPhoneCallThemeMonitor @ 357 NONAME
	_ZTI22CPhoneLibraryContainer @ 358 NONAME
	_ZTI24CPhoneCenRepEventHandler @ 359 NONAME
	_ZTI25CPhonePublishSubscriberAO @ 360 NONAME
	_ZTI26CPhoneMainResourceResolver @ 361 NONAME
	_ZTI26CPhoneResourceResolverBase @ 362 NONAME
	_ZTI30CPhoneMainErrorMessagesHandler @ 363 NONAME
	_ZTV11CPhoneTimer @ 364 NONAME
	_ZTV12CPhoneLogger @ 365 NONAME
	_ZTV13CPhoneStorage @ 366 NONAME
	_ZTV17CPhoneCenRepProxy @ 367 NONAME
	_ZTV17CPhonePubSubProxy @ 368 NONAME
	_ZTV18CPhoneMethodLogger @ 369 NONAME
	_ZTV20CPhoneClearBlacklist @ 370 NONAME
	_ZTV20CPhoneRecoverySystem @ 371 NONAME
	_ZTV22CPhoneCallThemeMonitor @ 372 NONAME
	_ZTV22CPhoneLibraryContainer @ 373 NONAME
	_ZTV24CPhoneCenRepEventHandler @ 374 NONAME
	_ZTV25CPhonePublishSubscriberAO @ 375 NONAME
	_ZTV26CPhoneMainResourceResolver @ 376 NONAME
	_ZTV26CPhoneResourceResolverBase @ 377 NONAME
	_ZTV30CPhoneMainErrorMessagesHandler @ 378 NONAME
	_ZThn4_N12CPhoneLoggerD0Ev @ 379 NONAME
	_ZThn4_N12CPhoneLoggerD1Ev @ 380 NONAME
	_ZThn4_N13CPhoneStorage19NeedToEnableKeylockEv @ 381 NONAME
	_ZThn4_N13CPhoneStorage22SetNeedToEnableKeylockEi @ 382 NONAME
	_ZThn4_N13CPhoneStorageD0Ev @ 383 NONAME
	_ZThn4_N13CPhoneStorageD1Ev @ 384 NONAME
	_ZThn4_N26CPhoneResourceResolverBaseD0Ev @ 385 NONAME
	_ZThn4_N26CPhoneResourceResolverBaseD1Ev @ 386 NONAME
	_ZThn4_NK26CPhoneResourceResolverBase17ResolveResourceIDERKi @ 387 NONAME

