EXPORTS
	??1CEmailExtension@@UAE@XZ @ 1 NONAME ; CEmailExtension::~CEmailExtension(void)
	?CancelAllRequestsL@CFSMailRequestHandler@@QAEXXZ @ 2 NONAME ; void CFSMailRequestHandler::CancelAllRequestsL(void)
	?SaveL@CFSMailMessagePart@@QAEXXZ @ 3 NONAME ; void CFSMailMessagePart::SaveL(void)
	?CreateMessageToSend@CFSMailBox@@QAEPAVCFSMailMessage@@XZ @ 4 NONAME ; class CFSMailMessage * CFSMailBox::CreateMessageToSend(void)
	?FindExtension@TEmailExtensions@@QBEHABVTUid@@@Z @ 5 NONAME ; int TEmailExtensions::FindExtension(class TUid const &) const
	?ClearBccRecipients@CFSMailMessageBase@@QAEXXZ @ 6 NONAME ; void CFSMailMessageBase::ClearBccRecipients(void)
	?SendMessageL@CFSMailBox@@QAEXAAVCFSMailMessage@@@Z @ 7 NONAME ; void CFSMailBox::SendMessageL(class CFSMailMessage &)
	?RemoveMessageL@CFSMailFolder@@QAEHVTFSMailMsgId@@AAVMFSMailRequestObserver@@@Z @ 8 NONAME ; int CFSMailFolder::RemoveMessageL(class TFSMailMsgId, class MFSMailRequestObserver &)
	?GetStandardFolderId@CFSMailBox@@QAE?AVTFSMailMsgId@@W4TFSFolderType@@@Z @ 9 NONAME ; class TFSMailMsgId CFSMailBox::GetStandardFolderId(enum TFSFolderType)
	?CancelSearch@CFSMailBox@@QAEXXZ @ 10 NONAME ; void CFSMailBox::CancelSearch(void)
	?ResetFlag@CFSMailMessageBase@@QAEXH@Z @ 11 NONAME ; void CFSMailMessageBase::ResetFlag(int)
	?IsMRInfoProcessorSet@CFSMailBoxBase@@QAEHXZ @ 12 NONAME ; int CFSMailBoxBase::IsMRInfoProcessorSet(void)
	??1CFSMailFolderBase@@UAE@XZ @ 13 NONAME ; CFSMailFolderBase::~CFSMailFolderBase(void)
	??0TEmailExtensions@@QAE@XZ @ 14 NONAME ; TEmailExtensions::TEmailExtensions(void)
	?SetFolderType@CFSMailFolderBase@@QAEXW4TFSFolderType@@@Z @ 15 NONAME ; void CFSMailFolderBase::SetFolderType(enum TFSFolderType)
	?SetUnseenCount@CFSMailFolderBase@@QAEXI@Z @ 16 NONAME ; void CFSMailFolderBase::SetUnseenCount(unsigned int)
	?GetNmMessageEnvelope@CFSMailMessageBase@@QAEPAVNmMessageEnvelope@@XZ @ 17 NONAME ; class NmMessageEnvelope * CFSMailMessageBase::GetNmMessageEnvelope(void)
	?GetName@CFSMailBoxBase@@QBEAAVTDesC16@@XZ @ 18 NONAME ; class TDesC16 & CFSMailBoxBase::GetName(void) const
	?SaveMessageL@CFSMailMessage@@QAEHAAVMFSMailRequestObserver@@@Z @ 19 NONAME ; int CFSMailMessage::SaveMessageL(class MFSMailRequestObserver &)
	?GetMailBoxStatus@CFSMailBox@@QAE?AW4TFSMailBoxStatus@@XZ @ 20 NONAME ; enum TFSMailBoxStatus CFSMailBox::GetMailBoxStatus(void)
	?AttachmentListL@CFSMailMessage@@QAEXAAV?$RPointerArray@VCFSMailMessagePart@@@@@Z @ 21 NONAME ; void CFSMailMessage::AttachmentListL(class RPointerArray<class CFSMailMessagePart> &)
	?SaveMessageL@CFSMailMessage@@QAEXXZ @ 22 NONAME ; void CFSMailMessage::SaveMessageL(void)
	?NewL@CFSMailBoxBase@@SAPAV1@VTFSMailMsgId@@@Z @ 23 NONAME ; class CFSMailBoxBase * CFSMailBoxBase::NewL(class TFSMailMsgId)
	?FetchMessagesPartsL@CFSMailMessagePart@@QAEHABV?$RArray@VTFSMailMsgId@@@@AAVMFSMailRequestObserver@@I@Z @ 24 NONAME ; int CFSMailMessagePart::FetchMessagesPartsL(class RArray<class TFSMailMsgId> const &, class MFSMailRequestObserver &, unsigned int)
	?SetReplyToAddress@CFSMailMessageBase@@QAEXPAVCFSMailAddress@@@Z @ 25 NONAME ; void CFSMailMessageBase::SetReplyToAddress(class CFSMailAddress *)
	?IsFlagSet@CFSMailMessageBase@@QBEHH@Z @ 26 NONAME ; int CFSMailMessageBase::IsFlagSet(int) const
	?NewL@CFSMailMessageBase@@SAPAV1@VTFSMailMsgId@@@Z @ 27 NONAME ; class CFSMailMessageBase * CFSMailMessageBase::NewL(class TFSMailMsgId)
	?GetBCCRecipients@CFSMailMessageBase@@QAE?AV?$RPointerArray@VCFSMailAddress@@@@XZ @ 28 NONAME ; class RPointerArray<class CFSMailAddress> CFSMailMessageBase::GetBCCRecipients(void)
	?AddPluginL@CFSMailRequestHandler@@QAEXVTUid@@PAVCFSMailPlugin@@@Z @ 29 NONAME ; void CFSMailRequestHandler::AddPluginL(class TUid, class CFSMailPlugin *)
	?SetContentDisposition@CFSMailMessagePart@@QAEXABVTDesC16@@@Z @ 30 NONAME ; void CFSMailMessagePart::SetContentDisposition(class TDesC16 const &)
	??1CFSMailMessageBase@@UAE@XZ @ 31 NONAME ; CFSMailMessageBase::~CFSMailMessageBase(void)
	?GetTempFileL@CFSMailRequestHandler@@QAE?AVRFile@@VTFSMailMsgId@@AAV?$TBuf@$0BAA@@@@Z @ 32 NONAME ; class RFile CFSMailRequestHandler::GetTempFileL(class TFSMailMsgId, class TBuf<256> &)
	?CurrentSyncState@CFSMailBox@@QBE?AW4TSSMailSyncState@@XZ @ 33 NONAME ; enum TSSMailSyncState CFSMailBox::CurrentSyncState(void) const
	?NewL@CFSMailFolderBase@@SAPAV1@VTFSMailMsgId@@@Z @ 34 NONAME ; class CFSMailFolderBase * CFSMailFolderBase::NewL(class TFSMailMsgId)
	?SetAttachmentNameL@CFSMailMessagePart@@QAEXABVTDesC16@@@Z @ 35 NONAME ; void CFSMailMessagePart::SetAttachmentNameL(class TDesC16 const &)
	?GetMessageCount@CFSMailFolderBase@@QBEIXZ @ 36 NONAME ; unsigned int CFSMailFolderBase::GetMessageCount(void) const
	?RemoveChildPartL@CFSMailMessagePart@@QAEXVTFSMailMsgId@@@Z @ 37 NONAME ; void CFSMailMessagePart::RemoveChildPartL(class TFSMailMsgId)
	?SaveMessagePartsL@CFSMailMessage@@QAEHAAVMFSMailRequestObserver@@@Z @ 38 NONAME ; int CFSMailMessage::SaveMessagePartsL(class MFSMailRequestObserver &)
	?MoveMessagesL@CFSMailBox@@QAEXABV?$RArray@VTFSMailMsgId@@@@VTFSMailMsgId@@1@Z @ 39 NONAME ; void CFSMailBox::MoveMessagesL(class RArray<class TFSMailMsgId> const &, class TFSMailMsgId, class TFSMailMsgId)
	?GetFolderName@CFSMailFolderBase@@QBEAAVTDesC16@@XZ @ 40 NONAME ; class TDesC16 & CFSMailFolderBase::GetFolderName(void) const
	?GetDisplayName@CFSMailAddress@@QBEAAVTDesC16@@XZ @ 41 NONAME ; class TDesC16 & CFSMailAddress::GetDisplayName(void) const
	?ConstructL@CFSMailFolderBase@@IAEXVTFSMailMsgId@@@Z @ 42 NONAME ; void CFSMailFolderBase::ConstructL(class TFSMailMsgId)
	?SetSubject@CFSMailMessageBase@@QAEXABVTDesC16@@@Z @ 43 NONAME ; void CFSMailMessageBase::SetSubject(class TDesC16 const &)
	?CreateReplyMessage@CFSMailBox@@QAEPAVCFSMailMessage@@VTFSMailMsgId@@HABVTDesC16@@@Z @ 44 NONAME ; class CFSMailMessage * CFSMailBox::CreateReplyMessage(class TFSMailMsgId, int, class TDesC16 const &)
	?CopyContentFileL@CFSMailMessagePart@@QAEXABVTDesC16@@@Z @ 45 NONAME ; void CFSMailMessagePart::CopyContentFileL(class TDesC16 const &)
	??1CFSMailBoxBase@@UAE@XZ @ 46 NONAME ; CFSMailBoxBase::~CFSMailBoxBase(void)
	?NewLC@CFSMailBox@@SAPAV1@VTFSMailMsgId@@@Z @ 47 NONAME ; class CFSMailBox * CFSMailBox::NewLC(class TFSMailMsgId)
	?GetParentFolderId@CFSMailFolderBase@@QBE?AVTFSMailMsgId@@XZ @ 48 NONAME ; class TFSMailMsgId CFSMailFolderBase::GetParentFolderId(void) const
	?ConstructL@CFSMailMessageBase@@IAEXABVNmMessageEnvelope@@@Z @ 49 NONAME ; void CFSMailMessageBase::ConstructL(class NmMessageEnvelope const &)
	?ReleaseExtension@CFSMailMessageBase@@UAEXPAVCEmailExtension@@@Z @ 50 NONAME ; void CFSMailMessageBase::ReleaseExtension(class CEmailExtension *)
	??_ECFSMailRequestHandler@@UAE@I@Z @ 51 NONAME ; CFSMailRequestHandler::~CFSMailRequestHandler(unsigned int)
	?NewLC@CFSMailFolder@@SAPAV1@VTFSMailMsgId@@@Z @ 52 NONAME ; class CFSMailFolder * CFSMailFolder::NewLC(class TFSMailMsgId)
	?NewL@CFSMailAddress@@SAPAV1@XZ @ 53 NONAME ; class CFSMailAddress * CFSMailAddress::NewL(void)
	?IsMessageL@CFSMailMessagePart@@UBEHXZ @ 54 NONAME ; int CFSMailMessagePart::IsMessageL(void) const
	?Uid@CEmailExtension@@QBE?AVTUid@@XZ @ 55 NONAME ; class TUid CEmailExtension::Uid(void) const
	?GetNmMessage@CFSMailMessage@@QAEPAVNmMessage@@XZ @ 56 NONAME ; class NmMessage * CFSMailMessage::GetNmMessage(void)
	?GetContentToBufferL@CFSMailMessagePart@@QAEXAAVTDes16@@I@Z @ 57 NONAME ; void CFSMailMessagePart::GetContentToBufferL(class TDes16 &, unsigned int)
	?AddNewAttachmentL@CFSMailMessagePart@@QAEPAV1@ABVTDesC16@@VTFSMailMsgId@@0@Z @ 58 NONAME ; class CFSMailMessagePart * CFSMailMessagePart::AddNewAttachmentL(class TDesC16 const &, class TFSMailMsgId, class TDesC16 const &)
	?BlockCopyFromL@CFSMailFolderBase@@QAEXV?$RArray@W4TFSFolderType@@@@W4TFSMailBoxStatus@@@Z @ 59 NONAME ; void CFSMailFolderBase::BlockCopyFromL(class RArray<enum TFSFolderType>, enum TFSMailBoxStatus)
	?GetSender@CFSMailMessageBase@@QBEPAVCFSMailAddress@@XZ @ 60 NONAME ; class CFSMailAddress * CFSMailMessageBase::GetSender(void) const
	?ClearSearchResultCache@CFSMailBox@@QAEXXZ @ 61 NONAME ; void CFSMailBox::ClearSearchResultCache(void)
	?CancelRequestL@CFSMailRequestHandler@@QAEXH@Z @ 62 NONAME ; void CFSMailRequestHandler::CancelRequestL(int)
	?ExtensionL@CFSMailBox@@UAEPAVCEmailExtension@@ABVTUid@@@Z @ 63 NONAME ; class CEmailExtension * CFSMailBox::ExtensionL(class TUid const &)
	?GetMailBoxId@CFSMailMessageBase@@QBE?AVTFSMailMsgId@@XZ @ 64 NONAME ; class TFSMailMsgId CFSMailMessageBase::GetMailBoxId(void) const
	?ExtensionL@CExtendableEmail@@UAEPAVCEmailExtension@@ABVTUid@@@Z @ 65 NONAME ; class CEmailExtension * CExtendableEmail::ExtensionL(class TUid const &)
	?ListFolders@CFSMailBox@@QAEXVTFSMailMsgId@@AAV?$RPointerArray@VCFSMailFolder@@@@@Z @ 66 NONAME ; void CFSMailBox::ListFolders(class TFSMailMsgId, class RPointerArray<class CFSMailFolder> &)
	?NewL@CFSMailMessage@@SAPAV1@ABVNmMessage@@@Z @ 67 NONAME ; class CFSMailMessage * CFSMailMessage::NewL(class NmMessage const &)
	?HtmlBodyPartL@CFSMailMessage@@QAEPAVCFSMailMessagePart@@W4TFSMailMessagePartDataSource@2@@Z @ 68 NONAME ; class CFSMailMessagePart * CFSMailMessage::HtmlBodyPartL(enum CFSMailMessagePart::TFSMailMessagePartDataSource)
	?ContentDescription@CFSMailMessagePart@@QAEABVTDesC16@@XZ @ 69 NONAME ; class TDesC16 const & CFSMailMessagePart::ContentDescription(void)
	?SendMessageL@CFSMailBox@@QAEHAAVCFSMailMessage@@AAVMFSMailRequestObserver@@@Z @ 70 NONAME ; int CFSMailBox::SendMessageL(class CFSMailMessage &, class MFSMailRequestObserver &)
	?GetFolderType@CFSMailFolderBase@@QBE?AW4TFSFolderType@@XZ @ 71 NONAME ; enum TFSFolderType CFSMailFolderBase::GetFolderType(void) const
	?GetEmailAddress@CFSMailAddress@@QBEAAVTDesC16@@XZ @ 72 NONAME ; class TDesC16 & CFSMailAddress::GetEmailAddress(void) const
	?FSMailSortCriteria2NM@NmConverter@@SA?AVNmMailSortCriteria@@VTFSMailSortCriteria@@@Z @ 73 NONAME ; class NmMailSortCriteria NmConverter::FSMailSortCriteria2NM(class TFSMailSortCriteria)
	?NewL@CFSMailBox@@SAPAV1@VTFSMailMsgId@@@Z @ 74 NONAME ; class CFSMailBox * CFSMailBox::NewL(class TFSMailMsgId)
	?CreateMessageToSendL@CFSMailBox@@QAEHAAVMFSMailRequestObserver@@@Z @ 75 NONAME ; int CFSMailBox::CreateMessageToSendL(class MFSMailRequestObserver &)
	?FetchMessagesL@CFSMailFolder@@QAEHABV?$RArray@VTFSMailMsgId@@@@W4TFSMailDetails@@AAVMFSMailRequestObserver@@@Z @ 76 NONAME ; int CFSMailFolder::FetchMessagesL(class RArray<class TFSMailMsgId> const &, enum TFSMailDetails, class MFSMailRequestObserver &)
	?ContentID@CFSMailMessagePart@@QAEABVTDesC16@@XZ @ 77 NONAME ; class TDesC16 const & CFSMailMessagePart::ContentID(void)
	?RemoveChildPartL@CFSMailMessagePart@@QAEHVTFSMailMsgId@@AAVMFSMailRequestObserver@@@Z @ 78 NONAME ; int CFSMailMessagePart::RemoveChildPartL(class TFSMailMsgId, class MFSMailRequestObserver &)
	??1CFSMailFolder@@UAE@XZ @ 79 NONAME ; CFSMailFolder::~CFSMailFolder(void)
	?toQDateTime@NmConverter@@SA?AVQDateTime@@ABVTTime@@@Z @ 80 NONAME ; class QDateTime NmConverter::toQDateTime(class TTime const &)
	?AddNewAttachmentL@CFSMailMessage@@QAEHABVTDesC16@@AAVMFSMailRequestObserver@@@Z @ 81 NONAME ; int CFSMailMessage::AddNewAttachmentL(class TDesC16 const &, class MFSMailRequestObserver &)
	?AppendBCCRecipient@CFSMailMessageBase@@QAEXPAVCFSMailAddress@@@Z @ 82 NONAME ; void CFSMailMessageBase::AppendBCCRecipient(class CFSMailAddress *)
	?ExtensionL@CFSMailFolder@@UAEPAVCEmailExtension@@ABVTUid@@@Z @ 83 NONAME ; class CEmailExtension * CFSMailFolder::ExtensionL(class TUid const &)
	?IsMRInfoSet@CFSMailMessagePart@@QAEHXZ @ 84 NONAME ; int CFSMailMessagePart::IsMRInfoSet(void)
	??1CFSMailIterator@@UAE@XZ @ 85 NONAME ; CFSMailIterator::~CFSMailIterator(void)
	?GetNmMailbox@CFSMailBoxBase@@QAEPAVNmMailbox@@XZ @ 86 NONAME ; class NmMailbox * CFSMailBoxBase::GetNmMailbox(void)
	?SetContentClass@CFSMailMessagePart@@QAEXABVTDesC16@@@Z @ 87 NONAME ; void CFSMailMessagePart::SetContentClass(class TDesC16 const &)
	?GetNmFolder@CFSMailFolderBase@@QAEPAVNmFolder@@XZ @ 88 NONAME ; class NmFolder * CFSMailFolderBase::GetNmFolder(void)
	?GetFolderId@CFSMailMessageBase@@QBE?AVTFSMailMsgId@@XZ @ 89 NONAME ; class TFSMailMsgId CFSMailMessageBase::GetFolderId(void) const
	?ReadOnlyPartSize@CFSMailMessagePart@@QBEIXZ @ 90 NONAME ; unsigned int CFSMailMessagePart::ReadOnlyPartSize(void) const
	?BlockMoveFromL@CFSMailFolderBase@@QAEXV?$RArray@W4TFSFolderType@@@@W4TFSMailBoxStatus@@@Z @ 91 NONAME ; void CFSMailFolderBase::BlockMoveFromL(class RArray<enum TFSFolderType>, enum TFSMailBoxStatus)
	?ContentDisposition@CFSMailMessagePart@@QAEABVTDesC16@@XZ @ 92 NONAME ; class TDesC16 const & CFSMailMessagePart::ContentDisposition(void)
	?CreateReplyMessageL@CFSMailBox@@QAEHVTFSMailMsgId@@HAAVMFSMailRequestObserver@@ABVTDesC16@@@Z @ 93 NONAME ; int CFSMailBox::CreateReplyMessageL(class TFSMailMsgId, int, class MFSMailRequestObserver &, class TDesC16 const &)
	?NewLC@CFSMailAddress@@SAPAV1@XZ @ 94 NONAME ; class CFSMailAddress * CFSMailAddress::NewLC(void)
	?NewL@CFSMailRequestHandler@@SAPAV1@AAV?$RPointerArray@VCImplementationInformation@@@@AAV?$RPointerArray@VCFSMailPlugin@@@@@Z @ 95 NONAME ; class CFSMailRequestHandler * CFSMailRequestHandler::NewL(class RPointerArray<class CImplementationInformation> &, class RPointerArray<class CFSMailPlugin> &)
	?FetchLoadState@CFSMailMessagePart@@QBE?AW4TFSPartFetchState@@XZ @ 96 NONAME ; enum TFSPartFetchState CFSMailMessagePart::FetchLoadState(void) const
	?ChildPartsL@CFSMailMessagePart@@QAEXAAV?$RPointerArray@VCFSMailMessagePart@@@@W4TFSMailMessagePartDataSource@1@@Z @ 97 NONAME ; void CFSMailMessagePart::ChildPartsL(class RPointerArray<class CFSMailMessagePart> &, enum CFSMailMessagePart::TFSMailMessagePartDataSource)
	?SetDisplayName@CFSMailAddress@@QAEXABVTDesC16@@@Z @ 98 NONAME ; void CFSMailAddress::SetDisplayName(class TDesC16 const &)
	?toTTime@NmConverter@@SA?AVTTime@@ABVQDateTime@@@Z @ 99 NONAME ; class TTime NmConverter::toTTime(class QDateTime const &)
	?SetMailBoxId@CFSMailMessageBase@@QAEXVTFSMailMsgId@@@Z @ 100 NONAME ; void CFSMailMessageBase::SetMailBoxId(class TFSMailMsgId)
	?RequestHandler@CFSMailMessageBase@@QAEAAVCFSMailRequestHandler@@XZ @ 101 NONAME ; class CFSMailRequestHandler & CFSMailMessageBase::RequestHandler(void)
	?ReleaseExtension@CFSMailFolder@@UAEXPAVCEmailExtension@@@Z @ 102 NONAME ; void CFSMailFolder::ReleaseExtension(class CEmailExtension *)
	?GetFlags@CFSMailMessageBase@@QBEHXZ @ 103 NONAME ; int CFSMailMessageBase::GetFlags(void) const
	?nmIdToMailMsgId@NmConverter@@SA?AVTFSMailMsgId@@VNmId@@@Z @ 104 NONAME ; class TFSMailMsgId NmConverter::nmIdToMailMsgId(class NmId)
	?CopyMessagesL@CFSMailBox@@QAEXABV?$RArray@VTFSMailMsgId@@@@AAV2@VTFSMailMsgId@@2@Z @ 105 NONAME ; void CFSMailBox::CopyMessagesL(class RArray<class TFSMailMsgId> const &, class RArray<class TFSMailMsgId> &, class TFSMailMsgId, class TFSMailMsgId)
	?ClearToRecipients@CFSMailMessageBase@@QAEXXZ @ 106 NONAME ; void CFSMailMessageBase::ClearToRecipients(void)
	?ReleaseExtension@CExtendableEmail@@UAEXPAVCEmailExtension@@@Z @ 107 NONAME ; void CExtendableEmail::ReleaseExtension(class CEmailExtension *)
	?ChildPartL@CFSMailMessagePart@@QAEPAV1@VTFSMailMsgId@@@Z @ 108 NONAME ; class CFSMailMessagePart * CFSMailMessagePart::ChildPartL(class TFSMailMsgId)
	?GetId@CFSMailBoxBase@@QBE?AVTFSMailMsgId@@XZ @ 109 NONAME ; class TFSMailMsgId CFSMailBoxBase::GetId(void) const
	?PreviousL@CFSMailIterator@@UAEHVTFSMailMsgId@@IAAV?$RPointerArray@VCFSMailMessage@@@@@Z @ 110 NONAME ; int CFSMailIterator::PreviousL(class TFSMailMsgId, unsigned int, class RPointerArray<class CFSMailMessage> &)
	?RefreshNowL@CFSMailBox@@QAEHXZ @ 111 NONAME ; int CFSMailBox::RefreshNowL(void)
	?ContentDispositionParameters@CFSMailMessagePart@@QAEAAVCDesC16Array@@XZ @ 112 NONAME ; class CDesC16Array & CFSMailMessagePart::ContentDispositionParameters(void)
	?ListFolders@CFSMailBox@@QAEAAV?$RPointerArray@VCFSMailFolder@@@@XZ @ 113 NONAME ; class RPointerArray<class CFSMailFolder> & CFSMailBox::ListFolders(void)
	??1CFSMailMessage@@UAE@XZ @ 114 NONAME ; CFSMailMessage::~CFSMailMessage(void)
	?PlainTextBodyPartL@CFSMailMessage@@QAEPAVCFSMailMessagePart@@W4TFSMailMessagePartDataSource@2@@Z @ 115 NONAME ; class CFSMailMessagePart * CFSMailMessage::PlainTextBodyPartL(enum CFSMailMessagePart::TFSMailMessagePartDataSource)
	??0CExtendableEmail@@IAE@XZ @ 116 NONAME ; CExtendableEmail::CExtendableEmail(void)
	?SetName@CFSMailBoxBase@@QAEXABVTDesC16@@@Z @ 117 NONAME ; void CFSMailBoxBase::SetName(class TDesC16 const &)
	?GoOfflineL@CFSMailBox@@QAEXXZ @ 118 NONAME ; void CFSMailBox::GoOfflineL(void)
	?SupportsMoveFromL@CFSMailFolder@@QAEHW4TFSFolderType@@@Z @ 119 NONAME ; int CFSMailFolder::SupportsMoveFromL(enum TFSFolderType)
	?NewChildPartL@CFSMailMessagePart@@QAEPAV1@VTFSMailMsgId@@ABVTDesC16@@@Z @ 120 NONAME ; class CFSMailMessagePart * CFSMailMessagePart::NewChildPartL(class TFSMailMsgId, class TDesC16 const &)
	?toRPointerArray@NmConverter@@SA?AV?$RPointerArray@VCFSMailAddress@@@@ABV?$QList@VNmAddress@@@@@Z @ 121 NONAME ; class RPointerArray<class CFSMailAddress> NmConverter::toRPointerArray(class QList<class NmAddress> const &)
	?UpdateMessageFlagsL@CFSMailBox@@QAEHVTFSMailMsgId@@AAV?$RPointerArray@VCFSMailMessage@@@@AAVMFSMailRequestObserver@@@Z @ 122 NONAME ; int CFSMailBox::UpdateMessageFlagsL(class TFSMailMsgId, class RPointerArray<class CFSMailMessage> &, class MFSMailRequestObserver &)
	?SetFolderId@CFSMailMessageBase@@QAEXVTFSMailMsgId@@@Z @ 123 NONAME ; void CFSMailMessageBase::SetFolderId(class TFSMailMsgId)
	?Remove@TEmailExtensions@@QAEXPBVCEmailExtension@@@Z @ 124 NONAME ; void TEmailExtensions::Remove(class CEmailExtension const *)
	?AddNewAttachmentL@CFSMailMessage@@QAEPAVCFSMailMessagePart@@AAVRFile@@ABVTDesC8@@@Z @ 125 NONAME ; class CFSMailMessagePart * CFSMailMessage::AddNewAttachmentL(class RFile &, class TDesC8 const &)
	?ConstructL@CFSMailMessageBase@@IAEXVTFSMailMsgId@@@Z @ 126 NONAME ; void CFSMailMessageBase::ConstructL(class TFSMailMsgId)
	?GetLocalTextContentLC@CFSMailMessagePart@@QAEPAVHBufC16@@XZ @ 127 NONAME ; class HBufC16 * CFSMailMessagePart::GetLocalTextContentLC(void)
	?GetMRInfo@CFSMailMessagePart@@QAEAAVMMRInfoObject@@XZ @ 128 NONAME ; class MMRInfoObject & CFSMailMessagePart::GetMRInfo(void)
	?GetDate@CFSMailMessageBase@@QBE?AVTTime@@XZ @ 129 NONAME ; class TTime CFSMailMessageBase::GetDate(void) const
	?PreviousL@CFSMailIterator@@UAEHABVTDesC16@@IAAV?$RPointerArray@VCFSMailMessage@@@@@Z @ 130 NONAME ; int CFSMailIterator::PreviousL(class TDesC16 const &, unsigned int, class RPointerArray<class CFSMailMessage> &)
	?ReleaseExtension@CFSMailBox@@UAEXPAVCEmailExtension@@@Z @ 131 NONAME ; void CFSMailBox::ReleaseExtension(class CEmailExtension *)
	?CreateForwardMessage@CFSMailBox@@QAEPAVCFSMailMessage@@VTFSMailMsgId@@ABVTDesC16@@@Z @ 132 NONAME ; class CFSMailMessage * CFSMailBox::CreateForwardMessage(class TFSMailMsgId, class TDesC16 const &)
	?SetContentIDL@CFSMailMessagePart@@QAEXABVTDesC16@@@Z @ 133 NONAME ; void CFSMailMessagePart::SetContentIDL(class TDesC16 const &)
	?NewLC@CFSMailMessage@@SAPAV1@VTFSMailMsgId@@@Z @ 134 NONAME ; class CFSMailMessage * CFSMailMessage::NewLC(class TFSMailMsgId)
	?MRInfoProcessorL@CFSMailBoxBase@@QAEAAVMMRInfoProcessor@@XZ @ 135 NONAME ; class MMRInfoProcessor & CFSMailBoxBase::MRInfoProcessorL(void)
	?NewL@CFSMailAddress@@SAPAV1@ABVNmAddress@@@Z @ 136 NONAME ; class CFSMailAddress * CFSMailAddress::NewL(class NmAddress const &)
	?GetUnreadCount@CFSMailFolderBase@@QBEIXZ @ 137 NONAME ; unsigned int CFSMailFolderBase::GetUnreadCount(void) const
	?SetSender@CFSMailMessageBase@@QAEXPAVCFSMailAddress@@@Z @ 138 NONAME ; void CFSMailMessageBase::SetSender(class CFSMailAddress *)
	?FindBodyPartL@CFSMailMessagePart@@QAEPAV1@ABVTDesC16@@W4TFSMailMessagePartDataSource@1@@Z @ 139 NONAME ; class CFSMailMessagePart * CFSMailMessagePart::FindBodyPartL(class TDesC16 const &, enum CFSMailMessagePart::TFSMailMessagePartDataSource)
	?CreateForwardMessageL@CFSMailBox@@QAEHVTFSMailMsgId@@AAVMFSMailRequestObserver@@ABVTDesC16@@@Z @ 140 NONAME ; int CFSMailBox::CreateForwardMessageL(class TFSMailMsgId, class MFSMailRequestObserver &, class TDesC16 const &)
	?SetMailBoxId@CFSMailFolderBase@@QAEXVTFSMailMsgId@@@Z @ 141 NONAME ; void CFSMailFolderBase::SetMailBoxId(class TFSMailMsgId)
	?OwnMailAddress@CFSMailBoxBase@@QAEAAVCFSMailAddress@@XZ @ 142 NONAME ; class CFSMailAddress & CFSMailBoxBase::OwnMailAddress(void)
	?SetContent@CFSMailMessagePart@@QAEXAAVTDes16@@@Z @ 143 NONAME ; void CFSMailMessagePart::SetContent(class TDes16 &)
	?RemoveMessageL@CFSMailFolder@@QAEXVTFSMailMsgId@@@Z @ 144 NONAME ; void CFSMailFolder::RemoveMessageL(class TFSMailMsgId)
	?NewLC@CFSMailMessageBase@@SAPAV1@VTFSMailMsgId@@@Z @ 145 NONAME ; class CFSMailMessageBase * CFSMailMessageBase::NewLC(class TFSMailMsgId)
	?CompleteRequest@CFSMailRequestHandler@@QAEXH@Z @ 146 NONAME ; void CFSMailRequestHandler::CompleteRequest(int)
	?GetFolderId@CFSMailFolderBase@@QBE?AVTFSMailMsgId@@XZ @ 147 NONAME ; class TFSMailMsgId CFSMailFolderBase::GetFolderId(void) const
	?SetMRInfo@CFSMailMessagePart@@QAEXPAVMMRInfoObject@@@Z @ 148 NONAME ; void CFSMailMessagePart::SetMRInfo(class MMRInfoObject *)
	??0CFSMailRequestHandler@@IAE@XZ @ 149 NONAME ; CFSMailRequestHandler::CFSMailRequestHandler(void)
	?GoOnlineL@CFSMailBox@@QAEXXZ @ 150 NONAME ; void CFSMailBox::GoOnlineL(void)
	?SetMessageCount@CFSMailFolderBase@@QAEXI@Z @ 151 NONAME ; void CFSMailFolderBase::SetMessageCount(unsigned int)
	?NewLC@CFSMailMessagePart@@SAPAV1@VTFSMailMsgId@@0@Z @ 152 NONAME ; class CFSMailMessagePart * CFSMailMessagePart::NewLC(class TFSMailMsgId, class TFSMailMsgId)
	??1CFSMailMessagePart@@UAE@XZ @ 153 NONAME ; CFSMailMessagePart::~CFSMailMessagePart(void)
	?NewLC@CFSMailMessagePart@@SAPAV1@ABVNmId@@ABVNmMessagePart@@@Z @ 154 NONAME ; class CFSMailMessagePart * CFSMailMessagePart::NewLC(class NmId const &, class NmMessagePart const &)
	??1TEmailExtensions@@QAE@XZ @ 155 NONAME ; TEmailExtensions::~TEmailExtensions(void)
	?ContentTypeParameters@CFSMailMessagePart@@QAEAAVCDesC16Array@@XZ @ 156 NONAME ; class CDesC16Array & CFSMailMessagePart::ContentTypeParameters(void)
	?GetNmMessagePart@CFSMailMessagePart@@QAEPAVNmMessagePart@@XZ @ 157 NONAME ; class NmMessagePart * CFSMailMessagePart::GetNmMessagePart(void)
	??1CFSMailAddress@@UAE@XZ @ 158 NONAME ; CFSMailAddress::~CFSMailAddress(void)
	?SetParentFolderId@CFSMailFolderBase@@QAEXVTFSMailMsgId@@@Z @ 159 NONAME ; void CFSMailFolderBase::SetParentFolderId(class TFSMailMsgId)
	?AttachmentNameL@CFSMailMessagePart@@QAEAAVTDesC16@@XZ @ 160 NONAME ; class TDesC16 & CFSMailMessagePart::AttachmentNameL(void)
	?GetToRecipients@CFSMailMessageBase@@QAE?AV?$RPointerArray@VCFSMailAddress@@@@XZ @ 161 NONAME ; class RPointerArray<class CFSMailAddress> CFSMailMessageBase::GetToRecipients(void)
	?SetContentDescription@CFSMailMessagePart@@QAEXABVTDesC16@@@Z @ 162 NONAME ; void CFSMailMessagePart::SetContentDescription(class TDesC16 const &)
	?NMMailSortCriteria2FS@NmConverter@@SA?AVTFSMailSortCriteria@@VNmMailSortCriteria@@@Z @ 163 NONAME ; class TFSMailSortCriteria NmConverter::NMMailSortCriteria2FS(class NmMailSortCriteria)
	?GetContentClass@CFSMailMessagePart@@QAEABVTDesC16@@XZ @ 164 NONAME ; class TDesC16 const & CFSMailMessagePart::GetContentClass(void)
	?GetContentType@CFSMailMessagePart@@QBEABVTDesC16@@XZ @ 165 NONAME ; class TDesC16 const & CFSMailMessagePart::GetContentType(void) const
	?SetOwnMailAddressL@CFSMailBoxBase@@QAEXPAVCFSMailAddress@@@Z @ 166 NONAME ; void CFSMailBoxBase::SetOwnMailAddressL(class CFSMailAddress *)
	?GetPluginByUid@CFSMailRequestHandler@@QAEPAVCFSMailPlugin@@VTFSMailMsgId@@@Z @ 167 NONAME ; class CFSMailPlugin * CFSMailRequestHandler::GetPluginByUid(class TFSMailMsgId)
	?GetSubFolderCount@CFSMailFolderBase@@QBEIXZ @ 168 NONAME ; unsigned int CFSMailFolderBase::GetSubFolderCount(void) const
	?SetMRInfoProcessorL@CFSMailBoxBase@@QAEXPAVMMRInfoProcessor@@@Z @ 169 NONAME ; void CFSMailBoxBase::SetMRInfoProcessorL(class MMRInfoProcessor *)
	?FetchMessagePartL@CFSMailMessagePart@@QAEHVTFSMailMsgId@@AAVMFSMailRequestObserver@@I@Z @ 170 NONAME ; int CFSMailMessagePart::FetchMessagePartL(class TFSMailMsgId, class MFSMailRequestObserver &, unsigned int)
	?ContentSize@CFSMailMessagePart@@QBEIXZ @ 171 NONAME ; unsigned int CFSMailMessagePart::ContentSize(void) const
	?InitAsyncRequestL@CFSMailRequestHandler@@QAE?AVTFSPendingRequest@@VTUid@@AAVMFSMailRequestObserver@@@Z @ 172 NONAME ; class TFSPendingRequest CFSMailRequestHandler::InitAsyncRequestL(class TUid, class MFSMailRequestObserver &)
	?toQString@NmConverter@@SA?AVQString@@ABVTDesC16@@@Z @ 173 NONAME ; class QString NmConverter::toQString(class TDesC16 const &)
	?GetNmAddress@CFSMailAddress@@QAE?AVNmAddress@@XZ @ 174 NONAME ; class NmAddress CFSMailAddress::GetNmAddress(void)
	?NewLC@CFSMailRequestHandler@@SAPAV1@AAV?$RPointerArray@VCImplementationInformation@@@@AAV?$RPointerArray@VCFSMailPlugin@@@@@Z @ 175 NONAME ; class CFSMailRequestHandler * CFSMailRequestHandler::NewLC(class RPointerArray<class CImplementationInformation> &, class RPointerArray<class CFSMailPlugin> &)
	?NewL@CFSMailFolder@@SAPAV1@VTFSMailMsgId@@@Z @ 176 NONAME ; class CFSMailFolder * CFSMailFolder::NewL(class TFSMailMsgId)
	?SetFetchedContentSize@CFSMailMessagePart@@QAEXI@Z @ 177 NONAME ; void CFSMailMessagePart::SetFetchedContentSize(unsigned int)
	?RemoveAllRequests@CFSMailRequestHandler@@AAEXXZ @ 178 NONAME ; void CFSMailRequestHandler::RemoveAllRequests(void)
	?SetMessagePartsStatus@CFSMailMessagePart@@QAEXW4TFSPartFetchState@@@Z @ 179 NONAME ; void CFSMailMessagePart::SetMessagePartsStatus(enum TFSPartFetchState)
	?SearchL@CFSMailBox@@QAEXABV?$RPointerArray@VTDesC16@@@@ABVTFSMailSortCriteria@@AAVMFSMailBoxSearchObserver@@@Z @ 180 NONAME ; void CFSMailBox::SearchL(class RPointerArray<class TDesC16> const &, class TFSMailSortCriteria const &, class MFSMailBoxSearchObserver &)
	?SetMessageId@CFSMailMessageBase@@IAEXVTFSMailMsgId@@@Z @ 181 NONAME ; void CFSMailMessageBase::SetMessageId(class TFSMailMsgId)
	?SetContentType@CFSMailMessagePart@@QAEXABVTDesC16@@@Z @ 182 NONAME ; void CFSMailMessagePart::SetContentType(class TDesC16 const &)
	??_ECExtendableEmail@@UAE@I@Z @ 183 NONAME ; CExtendableEmail::~CExtendableEmail(unsigned int)
	?NextL@CFSMailIterator@@UAEHABVTDesC16@@IAAV?$RPointerArray@VCFSMailMessage@@@@@Z @ 184 NONAME ; int CFSMailIterator::NextL(class TDesC16 const &, unsigned int, class RPointerArray<class CFSMailMessage> &)
	?ListMessagesL@CFSMailFolder@@QAEPAVMFSMailIterator@@W4TFSMailDetails@@ABV?$RArray@VTFSMailSortCriteria@@@@@Z @ 185 NONAME ; class MFSMailIterator * CFSMailFolder::ListMessagesL(enum TFSMailDetails, class RArray<class TFSMailSortCriteria> const &)
	?NewLC@CFSMailBoxBase@@SAPAV1@VTFSMailMsgId@@@Z @ 186 NONAME ; class CFSMailBoxBase * CFSMailBoxBase::NewLC(class TFSMailMsgId)
	?AppendAttachmentsL@CFSMailMessagePart@@QAEXAAV?$RPointerArray@VCFSMailMessagePart@@@@@Z @ 187 NONAME ; void CFSMailMessagePart::AppendAttachmentsL(class RPointerArray<class CFSMailMessagePart> &)
	?SetFolderName@CFSMailFolderBase@@QAEXABVTDesC16@@@Z @ 188 NONAME ; void CFSMailFolderBase::SetFolderName(class TDesC16 const &)
	?AppendToRecipient@CFSMailMessageBase@@QAEXPAVCFSMailAddress@@@Z @ 189 NONAME ; void CFSMailMessageBase::AppendToRecipient(class CFSMailAddress *)
	?AddNewAttachmentL@CFSMailMessage@@QAEPAVCFSMailMessagePart@@ABVTDesC16@@VTFSMailMsgId@@@Z @ 190 NONAME ; class CFSMailMessagePart * CFSMailMessage::AddNewAttachmentL(class TDesC16 const &, class TFSMailMsgId)
	?SetSettingsUid@CFSMailBoxBase@@QAEXVTUid@@@Z @ 191 NONAME ; void CFSMailBoxBase::SetSettingsUid(class TUid)
	??0CEmailExtension@@IAE@ABVTUid@@@Z @ 192 NONAME ; CEmailExtension::CEmailExtension(class TUid const &)
	?GetUnseenCount@CFSMailFolderBase@@QBEIXZ @ 193 NONAME ; unsigned int CFSMailFolderBase::GetUnseenCount(void) const
	?SetReadOnlyPartSize@CFSMailMessagePart@@QAEXI@Z @ 194 NONAME ; void CFSMailMessagePart::SetReadOnlyPartSize(unsigned int)
	?SetDate@CFSMailMessageBase@@QAEXVTTime@@@Z @ 195 NONAME ; void CFSMailMessageBase::SetDate(class TTime)
	?NewL@CFSMailMessage@@SAPAV1@VTFSMailMsgId@@@Z @ 196 NONAME ; class CFSMailMessage * CFSMailMessage::NewL(class TFSMailMsgId)
	?mailMsgIdToNmId@NmConverter@@SA?AVNmId@@VTFSMailMsgId@@@Z @ 197 NONAME ; class NmId NmConverter::mailMsgIdToNmId(class TFSMailMsgId)
	?SetEmailAddress@CFSMailAddress@@QAEXABVTDesC16@@@Z @ 198 NONAME ; void CFSMailAddress::SetEmailAddress(class TDesC16 const &)
	?GetContentFileL@CFSMailMessagePart@@QAE?AVRFile@@H@Z @ 199 NONAME ; class RFile CFSMailMessagePart::GetContentFileL(int)
	?NextL@CFSMailIterator@@UAEHVTFSMailMsgId@@IAAV?$RPointerArray@VCFSMailMessage@@@@@Z @ 200 NONAME ; int CFSMailIterator::NextL(class TFSMailMsgId, unsigned int, class RPointerArray<class CFSMailMessage> &)
	?SetUnreadCount@CFSMailFolderBase@@QAEXI@Z @ 201 NONAME ; void CFSMailFolderBase::SetUnreadCount(unsigned int)
	?SetRCLInfo@CFSMailBoxBase@@QAEXVTUid@@I@Z @ 202 NONAME ; void CFSMailBoxBase::SetRCLInfo(class TUid, unsigned int)
	??1CExtendableEmail@@UAE@XZ @ 203 NONAME ; CExtendableEmail::~CExtendableEmail(void)
	?qstringToHBufCLC@NmConverter@@SAPAVHBufC16@@ABVQString@@@Z @ 204 NONAME ; class HBufC16 * NmConverter::qstringToHBufCLC(class QString const &)
	?NewLC@CFSMailFolderBase@@SAPAV1@VTFSMailMsgId@@@Z @ 205 NONAME ; class CFSMailFolderBase * CFSMailFolderBase::NewLC(class TFSMailMsgId)
	?AppendCCRecipient@CFSMailMessageBase@@QAEXPAVCFSMailAddress@@@Z @ 206 NONAME ; void CFSMailMessageBase::AppendCCRecipient(class CFSMailAddress *)
	?HasCapability@CFSMailBox@@QBEHW4TFSMailBoxCapabilities@@@Z @ 207 NONAME ; int CFSMailBox::HasCapability(enum TFSMailBoxCapabilities) const
	?GetMessageId@CFSMailMessageBase@@QBE?AVTFSMailMsgId@@XZ @ 208 NONAME ; class TFSMailMsgId CFSMailMessageBase::GetMessageId(void) const
	?GetSubject@CFSMailMessageBase@@QBEAAVTDesC16@@XZ @ 209 NONAME ; class TDesC16 & CFSMailMessageBase::GetSubject(void) const
	?NewL@CFSMailIterator@@SAPAV1@AAVMFSMailIterator@@PAVCFSMailRequestHandler@@@Z @ 210 NONAME ; class CFSMailIterator * CFSMailIterator::NewL(class MFSMailIterator &, class CFSMailRequestHandler *)
	?RefreshNowL@CFSMailBox@@QAEHAAVMFSMailRequestObserver@@@Z @ 211 NONAME ; int CFSMailBox::RefreshNowL(class MFSMailRequestObserver &)
	?Extension@TEmailExtensions@@QBEPAVCEmailExtension@@H@Z @ 212 NONAME ; class CEmailExtension * TEmailExtensions::Extension(int) const
	??1CFSMailRequestHandler@@UAE@XZ @ 213 NONAME ; CFSMailRequestHandler::~CFSMailRequestHandler(void)
	?DecRef@CEmailExtension@@QAEIXZ @ 214 NONAME ; unsigned int CEmailExtension::DecRef(void)
	?SetSubFolderCount@CFSMailFolderBase@@QAEXI@Z @ 215 NONAME ; void CFSMailFolderBase::SetSubFolderCount(unsigned int)
	?AddL@TEmailExtensions@@QAEXPAVCEmailExtension@@@Z @ 216 NONAME ; void TEmailExtensions::AddL(class CEmailExtension *)
	?ClearCcRecipients@CFSMailMessageBase@@QAEXXZ @ 217 NONAME ; void CFSMailMessageBase::ClearCcRecipients(void)
	?GetPartId@CFSMailMessagePart@@QBE?AVTFSMailMsgId@@XZ @ 218 NONAME ; class TFSMailMsgId CFSMailMessagePart::GetPartId(void) const
	?ExtensionL@CFSMailMessageBase@@UAEPAVCEmailExtension@@ABVTUid@@@Z @ 219 NONAME ; class CEmailExtension * CFSMailMessageBase::ExtensionL(class TUid const &)
	?GetReplyToAddress@CFSMailMessageBase@@QAEABVCFSMailAddress@@XZ @ 220 NONAME ; class CFSMailAddress const & CFSMailMessageBase::GetReplyToAddress(void)
	?IncRef@CEmailExtension@@QAEXXZ @ 221 NONAME ; void CEmailExtension::IncRef(void)
	?GetMailBoxId@CFSMailFolderBase@@QBE?AVTFSMailMsgId@@XZ @ 222 NONAME ; class TFSMailMsgId CFSMailFolderBase::GetMailBoxId(void) const
	??1CFSMailBox@@UAE@XZ @ 223 NONAME ; CFSMailBox::~CFSMailBox(void)
	?FetchedContentSize@CFSMailMessagePart@@QBEIXZ @ 224 NONAME ; unsigned int CFSMailMessagePart::FetchedContentSize(void) const
	?GetSubFoldersL@CFSMailFolder@@QAEXAAV?$RPointerArray@VCFSMailFolder@@@@@Z @ 225 NONAME ; void CFSMailFolder::GetSubFoldersL(class RPointerArray<class CFSMailFolder> &)
	?SetFlag@CFSMailMessageBase@@QAEXH@Z @ 226 NONAME ; void CFSMailMessageBase::SetFlag(int)
	?ConstructL@CFSMailRequestHandler@@IAEXV?$RPointerArray@VCImplementationInformation@@@@V?$RPointerArray@VCFSMailPlugin@@@@@Z @ 227 NONAME ; void CFSMailRequestHandler::ConstructL(class RPointerArray<class CImplementationInformation>, class RPointerArray<class CFSMailPlugin>)
	?NewLC@CFSMailIterator@@SAPAV1@AAVMFSMailIterator@@PAVCFSMailRequestHandler@@@Z @ 228 NONAME ; class CFSMailIterator * CFSMailIterator::NewLC(class MFSMailIterator &, class CFSMailRequestHandler *)
	?MoveMessagesL@CFSMailBox@@QAEHAAVMFSMailRequestObserver@@ABV?$RArray@VTFSMailMsgId@@@@VTFSMailMsgId@@2@Z @ 229 NONAME ; int CFSMailBox::MoveMessagesL(class MFSMailRequestObserver &, class RArray<class TFSMailMsgId> const &, class TFSMailMsgId, class TFSMailMsgId)
	??_ECEmailExtension@@UAE@I@Z @ 230 NONAME ; CEmailExtension::~CEmailExtension(unsigned int)
	?SetContentSize@CFSMailMessagePart@@QAEXI@Z @ 231 NONAME ; void CFSMailMessagePart::SetContentSize(unsigned int)
	?GetCCRecipients@CFSMailMessageBase@@QAE?AV?$RPointerArray@VCFSMailAddress@@@@XZ @ 232 NONAME ; class RPointerArray<class CFSMailAddress> CFSMailMessageBase::GetCCRecipients(void)
	?NewL@CFSMailMessagePart@@SAPAV1@VTFSMailMsgId@@0@Z @ 233 NONAME ; class CFSMailMessagePart * CFSMailMessagePart::NewL(class TFSMailMsgId, class TFSMailMsgId)

