EXPORTS
	_ZN13CVSController4NewLEP21MVSControllerObserver @ 1 NONAME
	_ZN14CVsFrameBuffer4NewLEi @ 2 NONAME
	_ZN14CVsFrameBufferD0Ev @ 3 NONAME
	_ZN14CVsFrameBufferD1Ev @ 4 NONAME
	_ZN14CVsFrameBufferD2Ev @ 5 NONAME
	_ZN16CVSMMFDataBuffer4NewLEi @ 6 NONAME
	_ZN16CVSMMFDataBuffer4NewLEv @ 7 NONAME
	_ZN16CVSMMFDataBufferD0Ev @ 8 NONAME
	_ZN16CVSMMFDataBufferD1Ev @ 9 NONAME
	_ZN16CVSMMFDataBufferD2Ev @ 10 NONAME
	_ZTI14CVsFrameBuffer @ 11 NONAME ; #<TI>#
	_ZTI15CVSDataProvider @ 12 NONAME ; #<TI>#
	_ZTI16CVSControllerImp @ 13 NONAME ; #<TI>#
	_ZTI16CVSDataSourceImp @ 14 NONAME ; #<TI>#
	_ZTI16CVSMMFDataBuffer @ 15 NONAME ; #<TI>#
	_ZTI17CVSFrameRateTimer @ 16 NONAME ; #<TI>#
	_ZTI18CSyncCameraReserve @ 17 NONAME ; #<TI>#
	_ZTI19CVSProviderSwitchAO @ 18 NONAME ; #<TI>#
	_ZTI21CVSCameraDataProvider @ 19 NONAME ; #<TI>#
	_ZTI23CVSDataSourceObserverAO @ 20 NONAME ; #<TI>#
	_ZTI24CProviderErrorNotifierAO @ 21 NONAME ; #<TI>#
	_ZTI25CVSStillImageDataProvider @ 22 NONAME ; #<TI>#
	_ZTI28CVSOnboardCameraDataProvider @ 23 NONAME ; #<TI>#
	_ZTV14CVsFrameBuffer @ 24 NONAME ; #<VT>#
	_ZTV15CVSDataProvider @ 25 NONAME ; #<VT>#
	_ZTV16CVSControllerImp @ 26 NONAME ; #<VT>#
	_ZTV16CVSDataSourceImp @ 27 NONAME ; #<VT>#
	_ZTV16CVSMMFDataBuffer @ 28 NONAME ; #<VT>#
	_ZTV17CVSFrameRateTimer @ 29 NONAME ; #<VT>#
	_ZTV18CSyncCameraReserve @ 30 NONAME ; #<VT>#
	_ZTV19CVSProviderSwitchAO @ 31 NONAME ; #<VT>#
	_ZTV21CVSCameraDataProvider @ 32 NONAME ; #<VT>#
	_ZTV23CVSDataSourceObserverAO @ 33 NONAME ; #<VT>#
	_ZTV24CProviderErrorNotifierAO @ 34 NONAME ; #<VT>#
	_ZTV25CVSStillImageDataProvider @ 35 NONAME ; #<VT>#
	_ZTV28CVSOnboardCameraDataProvider @ 36 NONAME ; #<VT>#

