EXPORTS
	?trUtf8@CntDefaultViewManager@@SA?AVQString@@PBD0@Z @ 1 NONAME ; class QString CntDefaultViewManager::trUtf8(char const *, char const *)
	?activate@CntBaseSelectionView@@UAEXV?$QMap@HVQVariant@@@@@Z @ 2 NONAME ; void CntBaseSelectionView::activate(class QMap<int, class QVariant>)
	?setViewNavigator@CntDefaultViewManager@@QAEXPAVCntViewNavigator@@@Z @ 3 NONAME ; void CntDefaultViewManager::setViewNavigator(class CntViewNavigator *)
	?tr@CntActionPopup@@SA?AVQString@@PBD0@Z @ 4 NONAME ; class QString CntActionPopup::tr(char const *, char const *)
	?currentViewId@CntDefaultViewManager@@QAEHXZ @ 5 NONAME ; int CntDefaultViewManager::currentViewId(void)
	?cleanup@CntDefaultViewManager@@AAEXXZ @ 6 NONAME ; void CntDefaultViewManager::cleanup(void)
	??1CntMainWindow@@UAE@XZ @ 7 NONAME ; CntMainWindow::~CntMainWindow(void)
	?viewActivated@CntContactCardView@@IAEXPAVCntAbstractViewManager@@V?$QMap@HVQVariant@@@@@Z @ 8 NONAME ; void CntContactCardView::viewActivated(class CntAbstractViewManager *, class QMap<int, class QVariant>)
	?view@CntEditView@@UBEPAVHbView@@XZ @ 9 NONAME ; class HbView * CntEditView::view(void) const
	?qt_metacall@CntBaseSelectionView@@UAEHW4Call@QMetaObject@@HPAPAX@Z @ 10 NONAME ; int CntBaseSelectionView::qt_metacall(enum QMetaObject::Call, int, void * *)
	?trUtf8@CntGroupMemberView@@SA?AVQString@@PBD0H@Z @ 11 NONAME ; class QString CntGroupMemberView::trUtf8(char const *, char const *, int)
	?d_func@CntGroupMemberView@@AAEPAVCntGroupMemberViewPrivate@@XZ @ 12 NONAME ; class CntGroupMemberViewPrivate * CntGroupMemberView::d_func(void)
	?tr@CntMainWindow@@SA?AVQString@@PBD0@Z @ 13 NONAME ; class QString CntMainWindow::tr(char const *, char const *)
	?staticMetaObject@CntBaseSelectionView@@2UQMetaObject@@B @ 14 NONAME ; struct QMetaObject const CntBaseSelectionView::staticMetaObject
	?d_func@CntEditView@@AAEPAVCntEditViewPrivate@@XZ @ 15 NONAME ; class CntEditViewPrivate * CntEditView::d_func(void)
	?changesDiscarded@CntEditView@@IAEXXZ @ 16 NONAME ; void CntEditView::changesDiscarded(void)
	?view@CntGroupMemberView@@UBEPAVHbView@@XZ @ 17 NONAME ; class HbView * CntGroupMemberView::view(void) const
	??_ECntDefaultViewManager@@UAE@I@Z @ 18 NONAME ; CntDefaultViewManager::~CntDefaultViewManager(unsigned int)
	??_ECntBaseSelectionView@@UAE@I@Z @ 19 NONAME ; CntBaseSelectionView::~CntBaseSelectionView(unsigned int)
	?view@CntBaseSelectionView@@UBEPAVHbView@@XZ @ 20 NONAME ; class HbView * CntBaseSelectionView::view(void) const
	??1CntDefaultViewFactory@@UAE@XZ @ 21 NONAME ; CntDefaultViewFactory::~CntDefaultViewFactory(void)
	??_ECntDefaultViewFactory@@UAE@I@Z @ 22 NONAME ; CntDefaultViewFactory::~CntDefaultViewFactory(unsigned int)
	?trUtf8@CntDefaultViewManager@@SA?AVQString@@PBD0H@Z @ 23 NONAME ; class QString CntDefaultViewManager::trUtf8(char const *, char const *, int)
	?staticMetaObject@CntGroupMemberView@@2UQMetaObject@@B @ 24 NONAME ; struct QMetaObject const CntGroupMemberView::staticMetaObject
	?qt_metacast@CntActionPopup@@UAEPAXPBD@Z @ 25 NONAME ; void * CntActionPopup::qt_metacast(char const *)
	?deleteOldView@CntDefaultViewManager@@AAEXXZ @ 26 NONAME ; void CntDefaultViewManager::deleteOldView(void)
	?trUtf8@CntMainWindow@@SA?AVQString@@PBD0H@Z @ 27 NONAME ; class QString CntMainWindow::trUtf8(char const *, char const *, int)
	?trUtf8@CntEditView@@SA?AVQString@@PBD0H@Z @ 28 NONAME ; class QString CntEditView::trUtf8(char const *, char const *, int)
	??1CntEditView@@UAE@XZ @ 29 NONAME ; CntEditView::~CntEditView(void)
	?qt_metacast@CntBaseSelectionView@@UAEPAXPBD@Z @ 30 NONAME ; void * CntBaseSelectionView::qt_metacast(char const *)
	?metaObject@CntBaseSelectionView@@UBEPBUQMetaObject@@XZ @ 31 NONAME ; struct QMetaObject const * CntBaseSelectionView::metaObject(void) const
	?engine@CntDefaultViewManager@@QAEAAVCntAbstractEngine@@XZ @ 32 NONAME ; class CntAbstractEngine & CntDefaultViewManager::engine(void)
	?back@CntDefaultViewManager@@UAEXV?$QMap@HVQVariant@@@@_N@Z @ 33 NONAME ; void CntDefaultViewManager::back(class QMap<int, class QVariant>, bool)
	??0CntKeyGrabber@@QAE@PAVHbMainWindow@@PAVQObject@@@Z @ 34 NONAME ; CntKeyGrabber::CntKeyGrabber(class HbMainWindow *, class QObject *)
	?qt_metacall@CntViewNavigator@@UAEHW4Call@QMetaObject@@HPAPAX@Z @ 35 NONAME ; int CntViewNavigator::qt_metacall(enum QMetaObject::Call, int, void * *)
	?activate@CntContactCardView@@UAEXV?$QMap@HVQVariant@@@@@Z @ 36 NONAME ; void CntContactCardView::activate(class QMap<int, class QVariant>)
	?tr@CntKeyGrabber@@SA?AVQString@@PBD0H@Z @ 37 NONAME ; class QString CntKeyGrabber::tr(char const *, char const *, int)
	?tr@CntDefaultViewManager@@SA?AVQString@@PBD0H@Z @ 38 NONAME ; class QString CntDefaultViewManager::tr(char const *, char const *, int)
	?viewId@CntEditView@@UBEHXZ @ 39 NONAME ; int CntEditView::viewId(void) const
	??1CntGroupMemberView@@UAE@XZ @ 40 NONAME ; CntGroupMemberView::~CntGroupMemberView(void)
	?tr@CntGroupMemberView@@SA?AVQString@@PBD0H@Z @ 41 NONAME ; class QString CntGroupMemberView::tr(char const *, char const *, int)
	?qt_metacast@CntContactCardView@@UAEPAXPBD@Z @ 42 NONAME ; void * CntContactCardView::qt_metacast(char const *)
	?viewClosed@CntBaseSelectionView@@IAEXXZ @ 43 NONAME ; void CntBaseSelectionView::viewClosed(void)
	??1CntKeyGrabber@@UAE@XZ @ 44 NONAME ; CntKeyGrabber::~CntKeyGrabber(void)
	?showActionPopup@CntActionPopup@@QAE_NVQString@@@Z @ 45 NONAME ; bool CntActionPopup::showActionPopup(class QString)
	?trUtf8@CntActionPopup@@SA?AVQString@@PBD0@Z @ 46 NONAME ; class QString CntActionPopup::trUtf8(char const *, char const *)
	?tr@CntBaseSelectionView@@SA?AVQString@@PBD0H@Z @ 47 NONAME ; class QString CntBaseSelectionView::tr(char const *, char const *, int)
	?metaObject@CntContactCardView@@UBEPBUQMetaObject@@XZ @ 48 NONAME ; struct QMetaObject const * CntContactCardView::metaObject(void) const
	??0CntViewNavigator@@QAE@PAVQObject@@@Z @ 49 NONAME ; CntViewNavigator::CntViewNavigator(class QObject *)
	?d_func@CntContactCardView@@ABEPBVCntContactCardViewPrivate@@XZ @ 50 NONAME ; class CntContactCardViewPrivate const * CntContactCardView::d_func(void) const
	?trUtf8@CntBaseSelectionView@@SA?AVQString@@PBD0H@Z @ 51 NONAME ; class QString CntBaseSelectionView::trUtf8(char const *, char const *, int)
	?getStaticMetaObject@CntBaseSelectionView@@SAABUQMetaObject@@XZ @ 52 NONAME ; struct QMetaObject const & CntBaseSelectionView::getStaticMetaObject(void)
	??0CntDefaultViewManager@@QAE@PAVHbMainWindow@@@Z @ 53 NONAME ; CntDefaultViewManager::CntDefaultViewManager(class HbMainWindow *)
	??_ECntGroupMemberView@@UAE@I@Z @ 54 NONAME ; CntGroupMemberView::~CntGroupMemberView(unsigned int)
	?actionPopupCancelPressed@CntActionPopup@@IAEXXZ @ 55 NONAME ; void CntActionPopup::actionPopupCancelPressed(void)
	?getStaticMetaObject@CntActionPopup@@SAABUQMetaObject@@XZ @ 56 NONAME ; struct QMetaObject const & CntActionPopup::getStaticMetaObject(void)
	?next@CntViewNavigator@@QAEXABHAAV?$QFlags@W4ViewSwitchFlag@Hb@@@@@Z @ 57 NONAME ; void CntViewNavigator::next(int const &, class QFlags<enum Hb::ViewSwitchFlag> &)
	?createView@CntDefaultViewFactory@@UAEPAVCntAbstractView@@H@Z @ 58 NONAME ; class CntAbstractView * CntDefaultViewFactory::createView(int)
	?viewId@CntGroupMemberView@@UBEHXZ @ 59 NONAME ; int CntGroupMemberView::viewId(void) const
	?qt_metacast@CntEditView@@UAEPAXPBD@Z @ 60 NONAME ; void * CntEditView::qt_metacast(char const *)
	??0CntContactCardView@@QAE@_N@Z @ 61 NONAME ; CntContactCardView::CntContactCardView(bool)
	?contactRemoved@CntEditView@@IAEX_N@Z @ 62 NONAME ; void CntEditView::contactRemoved(bool)
	?d_func@CntActionPopup@@ABEPBVCntActionPopupPrivate@@XZ @ 63 NONAME ; class CntActionPopupPrivate const * CntActionPopup::d_func(void) const
	?trUtf8@CntContactCardView@@SA?AVQString@@PBD0@Z @ 64 NONAME ; class QString CntContactCardView::trUtf8(char const *, char const *)
	?metaObject@CntActionPopup@@UBEPBUQMetaObject@@XZ @ 65 NONAME ; struct QMetaObject const * CntActionPopup::metaObject(void) const
	?staticMetaObject@CntDefaultViewManager@@2UQMetaObject@@B @ 66 NONAME ; struct QMetaObject const CntDefaultViewManager::staticMetaObject
	?removeException@CntViewNavigator@@QAEXABH@Z @ 67 NONAME ; void CntViewNavigator::removeException(int const &)
	?trUtf8@CntViewNavigator@@SA?AVQString@@PBD0@Z @ 68 NONAME ; class QString CntViewNavigator::trUtf8(char const *, char const *)
	?isDefault@CntGroupMemberView@@UBE_NXZ @ 69 NONAME ; bool CntGroupMemberView::isDefault(void) const
	?getStaticMetaObject@CntKeyGrabber@@SAABUQMetaObject@@XZ @ 70 NONAME ; struct QMetaObject const & CntKeyGrabber::getStaticMetaObject(void)
	?metaObject@CntMainWindow@@UBEPBUQMetaObject@@XZ @ 71 NONAME ; struct QMetaObject const * CntMainWindow::metaObject(void) const
	??_ECntMainWindow@@UAE@I@Z @ 72 NONAME ; CntMainWindow::~CntMainWindow(unsigned int)
	?metaObject@CntDefaultViewManager@@UBEPBUQMetaObject@@XZ @ 73 NONAME ; struct QMetaObject const * CntDefaultViewManager::metaObject(void) const
	?changeView@CntDefaultViewManager@@UAEXV?$QMap@HVQVariant@@@@@Z @ 74 NONAME ; void CntDefaultViewManager::changeView(class QMap<int, class QVariant>)
	?qt_metacast@CntGroupMemberView@@UAEPAXPBD@Z @ 75 NONAME ; void * CntGroupMemberView::qt_metacast(char const *)
	??_ECntContactCardView@@UAE@I@Z @ 76 NONAME ; CntContactCardView::~CntContactCardView(unsigned int)
	?staticMetaObject@CntViewNavigator@@2UQMetaObject@@B @ 77 NONAME ; struct QMetaObject const CntViewNavigator::staticMetaObject
	?activate@CntEditView@@UAEXV?$QMap@HVQVariant@@@@@Z @ 78 NONAME ; void CntEditView::activate(class QMap<int, class QVariant>)
	?qt_metacall@CntContactCardView@@UAEHW4Call@QMetaObject@@HPAPAX@Z @ 79 NONAME ; int CntContactCardView::qt_metacall(enum QMetaObject::Call, int, void * *)
	?qt_metacall@CntMainWindow@@UAEHW4Call@QMetaObject@@HPAPAX@Z @ 80 NONAME ; int CntMainWindow::qt_metacall(enum QMetaObject::Call, int, void * *)
	?trUtf8@CntMainWindow@@SA?AVQString@@PBD0@Z @ 81 NONAME ; class QString CntMainWindow::trUtf8(char const *, char const *)
	?trUtf8@CntKeyGrabber@@SA?AVQString@@PBD0H@Z @ 82 NONAME ; class QString CntKeyGrabber::trUtf8(char const *, char const *, int)
	?staticMetaObject@CntMainWindow@@2UQMetaObject@@B @ 83 NONAME ; struct QMetaObject const CntMainWindow::staticMetaObject
	?isDefault@CntContactCardView@@UBE_NXZ @ 84 NONAME ; bool CntContactCardView::isDefault(void) const
	??1CntContactCardView@@UAE@XZ @ 85 NONAME ; CntContactCardView::~CntContactCardView(void)
	?trUtf8@CntGroupMemberView@@SA?AVQString@@PBD0@Z @ 86 NONAME ; class QString CntGroupMemberView::trUtf8(char const *, char const *)
	?qt_metacall@CntActionPopup@@UAEHW4Call@QMetaObject@@HPAPAX@Z @ 87 NONAME ; int CntActionPopup::qt_metacall(enum QMetaObject::Call, int, void * *)
	??0CntBaseSelectionView@@QAE@XZ @ 88 NONAME ; CntBaseSelectionView::CntBaseSelectionView(void)
	?tr@CntKeyGrabber@@SA?AVQString@@PBD0@Z @ 89 NONAME ; class QString CntKeyGrabber::tr(char const *, char const *)
	??0CntMainWindow@@QAE@PAVQWidget@@H@Z @ 90 NONAME ; CntMainWindow::CntMainWindow(class QWidget *, int)
	?setEngine@CntGroupMemberView@@UAEXAAVCntAbstractEngine@@@Z @ 91 NONAME ; void CntGroupMemberView::setEngine(class CntAbstractEngine &)
	??1CntActionPopup@@UAE@XZ @ 92 NONAME ; CntActionPopup::~CntActionPopup(void)
	?viewId@CntContactCardView@@UBEHXZ @ 93 NONAME ; int CntContactCardView::viewId(void) const
	?removeEffect@CntViewNavigator@@QAEXABH@Z @ 94 NONAME ; void CntViewNavigator::removeEffect(int const &)
	?getStaticMetaObject@CntContactCardView@@SAABUQMetaObject@@XZ @ 95 NONAME ; struct QMetaObject const & CntContactCardView::getStaticMetaObject(void)
	?staticMetaObject@CntActionPopup@@2UQMetaObject@@B @ 96 NONAME ; struct QMetaObject const CntActionPopup::staticMetaObject
	?staticMetaObject@CntEditView@@2UQMetaObject@@B @ 97 NONAME ; struct QMetaObject const CntEditView::staticMetaObject
	?staticMetaObject@CntKeyGrabber@@2UQMetaObject@@B @ 98 NONAME ; struct QMetaObject const CntKeyGrabber::staticMetaObject
	?viewOpened@CntBaseSelectionView@@IAEXPAVCntAbstractViewManager@@V?$QMap@HVQVariant@@@@@Z @ 99 NONAME ; void CntBaseSelectionView::viewOpened(class CntAbstractViewManager *, class QMap<int, class QVariant>)
	??0CntDefaultViewFactory@@QAE@AAVCntExtensionManager@@@Z @ 100 NONAME ; CntDefaultViewFactory::CntDefaultViewFactory(class CntExtensionManager &)
	?setEngine@CntEditView@@UAEXAAVCntAbstractEngine@@@Z @ 101 NONAME ; void CntEditView::setEngine(class CntAbstractEngine &)
	?backPressed@CntContactCardView@@IAEXH@Z @ 102 NONAME ; void CntContactCardView::backPressed(int)
	?isDefault@CntEditView@@UBE_NXZ @ 103 NONAME ; bool CntEditView::isDefault(void) const
	?qt_metacall@CntKeyGrabber@@UAEHW4Call@QMetaObject@@HPAPAX@Z @ 104 NONAME ; int CntKeyGrabber::qt_metacall(enum QMetaObject::Call, int, void * *)
	??_ECntViewNavigator@@UAE@I@Z @ 105 NONAME ; CntViewNavigator::~CntViewNavigator(unsigned int)
	?d_func@CntGroupMemberView@@ABEPBVCntGroupMemberViewPrivate@@XZ @ 106 NONAME ; class CntGroupMemberViewPrivate const * CntGroupMemberView::d_func(void) const
	?trUtf8@CntContactCardView@@SA?AVQString@@PBD0H@Z @ 107 NONAME ; class QString CntContactCardView::trUtf8(char const *, char const *, int)
	?metaObject@CntKeyGrabber@@UBEPBUQMetaObject@@XZ @ 108 NONAME ; struct QMetaObject const * CntKeyGrabber::metaObject(void) const
	?addException@CntViewNavigator@@QAEXABH0@Z @ 109 NONAME ; void CntViewNavigator::addException(int const &, int const &)
	?getStaticMetaObject@CntGroupMemberView@@SAABUQMetaObject@@XZ @ 110 NONAME ; struct QMetaObject const & CntGroupMemberView::getStaticMetaObject(void)
	?closeApp@CntDefaultViewManager@@MAEXXZ @ 111 NONAME ; void CntDefaultViewManager::closeApp(void)
	??0CntGroupMemberView@@QAE@XZ @ 112 NONAME ; CntGroupMemberView::CntGroupMemberView(void)
	?deactivate@CntGroupMemberView@@UAEXXZ @ 113 NONAME ; void CntGroupMemberView::deactivate(void)
	??_ECntKeyGrabber@@UAE@I@Z @ 114 NONAME ; CntKeyGrabber::~CntKeyGrabber(unsigned int)
	?deactivate@CntBaseSelectionView@@UAEXXZ @ 115 NONAME ; void CntBaseSelectionView::deactivate(void)
	?d_func@CntEditView@@ABEPBVCntEditViewPrivate@@XZ @ 116 NONAME ; class CntEditViewPrivate const * CntEditView::d_func(void) const
	?setViewFactory@CntDefaultViewManager@@QAEXPAVCntAbstractViewFactory@@@Z @ 117 NONAME ; void CntDefaultViewManager::setViewFactory(class CntAbstractViewFactory *)
	?trUtf8@CntActionPopup@@SA?AVQString@@PBD0H@Z @ 118 NONAME ; class QString CntActionPopup::trUtf8(char const *, char const *, int)
	?tr@CntViewNavigator@@SA?AVQString@@PBD0@Z @ 119 NONAME ; class QString CntViewNavigator::tr(char const *, char const *)
	?getStaticMetaObject@CntViewNavigator@@SAABUQMetaObject@@XZ @ 120 NONAME ; struct QMetaObject const & CntViewNavigator::getStaticMetaObject(void)
	?tr@CntViewNavigator@@SA?AVQString@@PBD0H@Z @ 121 NONAME ; class QString CntViewNavigator::tr(char const *, char const *, int)
	?tr@CntActionPopup@@SA?AVQString@@PBD0H@Z @ 122 NONAME ; class QString CntActionPopup::tr(char const *, char const *, int)
	?qt_metacall@CntGroupMemberView@@UAEHW4Call@QMetaObject@@HPAPAX@Z @ 123 NONAME ; int CntGroupMemberView::qt_metacall(enum QMetaObject::Call, int, void * *)
	?metaObject@CntGroupMemberView@@UBEPBUQMetaObject@@XZ @ 124 NONAME ; struct QMetaObject const * CntGroupMemberView::metaObject(void) const
	?qt_metacast@CntDefaultViewManager@@UAEPAXPBD@Z @ 125 NONAME ; void * CntDefaultViewManager::qt_metacast(char const *)
	?qt_metacall@CntDefaultViewManager@@UAEHW4Call@QMetaObject@@HPAPAX@Z @ 126 NONAME ; int CntDefaultViewManager::qt_metacall(enum QMetaObject::Call, int, void * *)
	??0CntEditView@@QAE@XZ @ 127 NONAME ; CntEditView::CntEditView(void)
	?qt_metacast@CntViewNavigator@@UAEPAXPBD@Z @ 128 NONAME ; void * CntViewNavigator::qt_metacast(char const *)
	?view@CntContactCardView@@UBEPAVHbView@@XZ @ 129 NONAME ; class HbView * CntContactCardView::view(void) const
	?addToContacts@CntContactCardView@@IAEXXZ @ 130 NONAME ; void CntContactCardView::addToContacts(void)
	?setEngine@CntBaseSelectionView@@UAEXAAVCntAbstractEngine@@@Z @ 131 NONAME ; void CntBaseSelectionView::setEngine(class CntAbstractEngine &)
	?tr@CntContactCardView@@SA?AVQString@@PBD0H@Z @ 132 NONAME ; class QString CntContactCardView::tr(char const *, char const *, int)
	?addRoot@CntViewNavigator@@QAEXABH@Z @ 133 NONAME ; void CntViewNavigator::addRoot(int const &)
	?tr@CntContactCardView@@SA?AVQString@@PBD0@Z @ 134 NONAME ; class QString CntContactCardView::tr(char const *, char const *)
	?tr@CntEditView@@SA?AVQString@@PBD0@Z @ 135 NONAME ; class QString CntEditView::tr(char const *, char const *)
	?d_func@CntContactCardView@@AAEPAVCntContactCardViewPrivate@@XZ @ 136 NONAME ; class CntContactCardViewPrivate * CntContactCardView::d_func(void)
	?metaObject@CntViewNavigator@@UBEPBUQMetaObject@@XZ @ 137 NONAME ; struct QMetaObject const * CntViewNavigator::metaObject(void) const
	?activate@CntGroupMemberView@@UAEXV?$QMap@HVQVariant@@@@@Z @ 138 NONAME ; void CntGroupMemberView::activate(class QMap<int, class QVariant>)
	?staticMetaObject@CntContactCardView@@2UQMetaObject@@B @ 139 NONAME ; struct QMetaObject const CntContactCardView::staticMetaObject
	?trUtf8@CntBaseSelectionView@@SA?AVQString@@PBD0@Z @ 140 NONAME ; class QString CntBaseSelectionView::trUtf8(char const *, char const *)
	?tr@CntBaseSelectionView@@SA?AVQString@@PBD0@Z @ 141 NONAME ; class QString CntBaseSelectionView::tr(char const *, char const *)
	?trUtf8@CntKeyGrabber@@SA?AVQString@@PBD0@Z @ 142 NONAME ; class QString CntKeyGrabber::trUtf8(char const *, char const *)
	?switchView@CntDefaultViewManager@@AAEXV?$QMap@HVQVariant@@@@V?$QFlags@W4ViewSwitchFlag@Hb@@@@@Z @ 143 NONAME ; void CntDefaultViewManager::switchView(class QMap<int, class QVariant>, class QFlags<enum Hb::ViewSwitchFlag>)
	?deactivate@CntEditView@@UAEXXZ @ 144 NONAME ; void CntEditView::deactivate(void)
	?addEffect@CntViewNavigator@@QAEXABH0@Z @ 145 NONAME ; void CntViewNavigator::addEffect(int const &, int const &)
	??_ECntActionPopup@@UAE@I@Z @ 146 NONAME ; CntActionPopup::~CntActionPopup(unsigned int)
	?d_func@CntActionPopup@@AAEPAVCntActionPopupPrivate@@XZ @ 147 NONAME ; class CntActionPopupPrivate * CntActionPopup::d_func(void)
	?metaObject@CntEditView@@UBEPBUQMetaObject@@XZ @ 148 NONAME ; struct QMetaObject const * CntEditView::metaObject(void) const
	?contactUpdated@CntEditView@@IAEXH@Z @ 149 NONAME ; void CntEditView::contactUpdated(int)
	??1CntDefaultViewManager@@UAE@XZ @ 150 NONAME ; CntDefaultViewManager::~CntDefaultViewManager(void)
	?deactivate@CntContactCardView@@UAEXXZ @ 151 NONAME ; void CntContactCardView::deactivate(void)
	?tr@CntGroupMemberView@@SA?AVQString@@PBD0@Z @ 152 NONAME ; class QString CntGroupMemberView::tr(char const *, char const *)
	?getStaticMetaObject@CntDefaultViewManager@@SAABUQMetaObject@@XZ @ 153 NONAME ; struct QMetaObject const & CntDefaultViewManager::getStaticMetaObject(void)
	?trUtf8@CntViewNavigator@@SA?AVQString@@PBD0H@Z @ 154 NONAME ; class QString CntViewNavigator::trUtf8(char const *, char const *, int)
	?tr@CntEditView@@SA?AVQString@@PBD0H@Z @ 155 NONAME ; class QString CntEditView::tr(char const *, char const *, int)
	?qt_metacall@CntEditView@@UAEHW4Call@QMetaObject@@HPAPAX@Z @ 156 NONAME ; int CntEditView::qt_metacall(enum QMetaObject::Call, int, void * *)
	?getStaticMetaObject@CntEditView@@SAABUQMetaObject@@XZ @ 157 NONAME ; struct QMetaObject const & CntEditView::getStaticMetaObject(void)
	?trUtf8@CntEditView@@SA?AVQString@@PBD0@Z @ 158 NONAME ; class QString CntEditView::trUtf8(char const *, char const *)
	??1CntViewNavigator@@UAE@XZ @ 159 NONAME ; CntViewNavigator::~CntViewNavigator(void)
	?qt_metacast@CntMainWindow@@UAEPAXPBD@Z @ 160 NONAME ; void * CntMainWindow::qt_metacast(char const *)
	?isDefault@CntBaseSelectionView@@UBE_NXZ @ 161 NONAME ; bool CntBaseSelectionView::isDefault(void) const
	?back@CntViewNavigator@@QAEABHAAV?$QFlags@W4ViewSwitchFlag@Hb@@@@_N@Z @ 162 NONAME ; int const & CntViewNavigator::back(class QFlags<enum Hb::ViewSwitchFlag> &, bool)
	?setEngine@CntContactCardView@@UAEXAAVCntAbstractEngine@@@Z @ 163 NONAME ; void CntContactCardView::setEngine(class CntAbstractEngine &)
	??1CntBaseSelectionView@@UAE@XZ @ 164 NONAME ; CntBaseSelectionView::~CntBaseSelectionView(void)
	?tr@CntMainWindow@@SA?AVQString@@PBD0H@Z @ 165 NONAME ; class QString CntMainWindow::tr(char const *, char const *, int)
	?createPluginView@CntDefaultViewFactory@@AAEPAVCntAbstractView@@H@Z @ 166 NONAME ; class CntAbstractView * CntDefaultViewFactory::createPluginView(int)
	??_ECntEditView@@UAE@I@Z @ 167 NONAME ; CntEditView::~CntEditView(unsigned int)
	??0CntActionPopup@@QAE@PAVQContact@QtMobility@@@Z @ 168 NONAME ; CntActionPopup::CntActionPopup(class QtMobility::QContact *)
	?backPressed@CntGroupMemberView@@IAEXXZ @ 169 NONAME ; void CntGroupMemberView::backPressed(void)
	?executeContactAction@CntActionPopup@@IAEXAAVQContact@QtMobility@@VQContactDetail@3@VQString@@@Z @ 170 NONAME ; void CntActionPopup::executeContactAction(class QtMobility::QContact &, class QtMobility::QContactDetail, class QString)
	?getStaticMetaObject@CntMainWindow@@SAABUQMetaObject@@XZ @ 171 NONAME ; struct QMetaObject const & CntMainWindow::getStaticMetaObject(void)
	?eventFilter@CntKeyGrabber@@MAE_NPAVQObject@@PAVQEvent@@@Z @ 172 NONAME ; bool CntKeyGrabber::eventFilter(class QObject *, class QEvent *)
	?qt_metacast@CntKeyGrabber@@UAEPAXPBD@Z @ 173 NONAME ; void * CntKeyGrabber::qt_metacast(char const *)
	?tr@CntDefaultViewManager@@SA?AVQString@@PBD0@Z @ 174 NONAME ; class QString CntDefaultViewManager::tr(char const *, char const *)
	?removeCurrentView@CntDefaultViewManager@@AAEXXZ @ 175 NONAME ; void CntDefaultViewManager::removeCurrentView(void)

