EXPORTS
	_ZN13MpSongScanner10cancelScanEv @ 1 NONAME
	_ZN13MpSongScanner11qt_metacallEN11QMetaObject4CallEiPPv @ 2 NONAME
	_ZN13MpSongScanner11qt_metacastEPKc @ 3 NONAME
	_ZN13MpSongScanner11scanStartedEv @ 4 NONAME
	_ZN13MpSongScanner12scanFinishedEii @ 5 NONAME
	_ZN13MpSongScanner15handleDiskEventE13MpxDiskEvents @ 6 NONAME
	_ZN13MpSongScanner15handleScanEndedEii @ 7 NONAME
	_ZN13MpSongScanner15isAutomaticScanEv @ 8 NONAME
	_ZN13MpSongScanner16scanCountChangedEi @ 9 NONAME
	_ZN13MpSongScanner16staticMetaObjectE @ 10 NONAME DATA 16
	_ZN13MpSongScanner19getStaticMetaObjectEv @ 11 NONAME
	_ZN13MpSongScanner4scanEb @ 12 NONAME
	_ZN13MpSongScannerC1EP30MpMpxHarvesterFrameworkWrapperP7QObject @ 13 NONAME
	_ZN13MpSongScannerC2EP30MpMpxHarvesterFrameworkWrapperP7QObject @ 14 NONAME
	_ZN13MpSongScannerD0Ev @ 15 NONAME
	_ZN13MpSongScannerD1Ev @ 16 NONAME
	_ZN13MpSongScannerD2Ev @ 17 NONAME
	_ZN15MpEngineFactory11qt_metacallEN11QMetaObject4CallEiPPv @ 18 NONAME
	_ZN15MpEngineFactory11qt_metacastEPKc @ 19 NONAME
	_ZN15MpEngineFactory12sharedEngineEv @ 20 NONAME
	_ZN15MpEngineFactory16staticMetaObjectE @ 21 NONAME DATA 16
	_ZN15MpEngineFactory18createSharedEngineEjN8MpEngine10EngineModeE @ 22 NONAME
	_ZN15MpEngineFactory19getStaticMetaObjectEv @ 23 NONAME
	_ZN15MpEngineFactory20createIsolatedEngineEN8MpEngine10EngineModeE @ 24 NONAME
	_ZN15MpEngineFactory5closeEv @ 25 NONAME
	_ZN15MpEngineFactory8instanceEv @ 26 NONAME
	_ZN15MpEngineFactoryC1Ev @ 27 NONAME
	_ZN15MpEngineFactoryC2Ev @ 28 NONAME
	_ZN15MpEngineFactoryD0Ev @ 29 NONAME
	_ZN15MpEngineFactoryD1Ev @ 30 NONAME
	_ZN15MpEngineFactoryD2Ev @ 31 NONAME
	_ZN8MpEngine10initializeEjNS_10EngineModeE @ 32 NONAME
	_ZN8MpEngine10setBalanceEi @ 33 NONAME
	_ZN8MpEngine10setShuffleEb @ 34 NONAME
	_ZN8MpEngine10shuffleAllEv @ 35 NONAME
	_ZN8MpEngine10usbBlockedEb @ 36 NONAME
	_ZN8MpEngine11applyPresetEi @ 37 NONAME
	_ZN8MpEngine11deleteSongsER5QListIiE @ 38 NONAME
	_ZN8MpEngine11presetNamesEv @ 39 NONAME
	_ZN8MpEngine11previewItemEi @ 40 NONAME
	_ZN8MpEngine11qt_metacallEN11QMetaObject4CallEiPPv @ 41 NONAME
	_ZN8MpEngine11qt_metacastEPKc @ 42 NONAME
	_ZN8MpEngine11setLoudnessEb @ 43 NONAME
	_ZN8MpEngine11setPositionEi @ 44 NONAME
	_ZN8MpEngine11skipForwardEv @ 45 NONAME
	_ZN8MpEngine11songScannerEv @ 46 NONAME
	_ZN8MpEngine11stopSeekingEv @ 47 NONAME
	_ZN8MpEngine12activePresetEv @ 48 NONAME
	_ZN8MpEngine12getMaxVolumeEv @ 49 NONAME
	_ZN8MpEngine12getMuteStateEv @ 50 NONAME
	_ZN8MpEngine12playEmbeddedE7QString @ 51 NONAME
	_ZN8MpEngine12playEmbeddedERK14XQSharableFile @ 52 NONAME
	_ZN8MpEngine12playbackDataEv @ 53 NONAME
	_ZN8MpEngine12skipBackwardEv @ 54 NONAME
	_ZN8MpEngine12songsDeletedEb @ 55 NONAME
	_ZN8MpEngine13corruptedStopEv @ 56 NONAME
	_ZN8MpEngine13deleteStartedE18TCollectionContexti @ 57 NONAME
	_ZN8MpEngine13findPlaylistsER11QStringList @ 58 NONAME
	_ZN8MpEngine13playlistSavedEb @ 59 NONAME
	_ZN8MpEngine14collectionDataEv @ 60 NONAME
	_ZN8MpEngine14createPlaylistER7QStringR5QListIiEP19MpMpxCollectionData @ 61 NONAME
	_ZN8MpEngine14decreaseVolumeEv @ 62 NONAME
	_ZN8MpEngine14equalizerReadyEv @ 63 NONAME
	_ZN8MpEngine14findAlbumSongsEi @ 64 NONAME
	_ZN8MpEngine14handleUsbEventE12MpxUsbEvents @ 65 NONAME
	_ZN8MpEngine14increaseVolumeEv @ 66 NONAME
	_ZN8MpEngine14libraryUpdatedEv @ 67 NONAME
	_ZN8MpEngine14openCollectionE18TCollectionContext @ 68 NONAME
	_ZN8MpEngine14playAlbumSongsEiiP19MpMpxCollectionData @ 69 NONAME
	_ZN8MpEngine14refreshLibraryEb @ 70 NONAME
	_ZN8MpEngine14renamePlaylistER7QString @ 71 NONAME
	_ZN8MpEngine14renamePlaylistER7QStringi @ 72 NONAME
	_ZN8MpEngine14saveToPlaylistEiR5QListIiE @ 73 NONAME
	_ZN8MpEngine15aboutToAddSongsEi @ 74 NONAME
	_ZN8MpEngine15handleDiskEventE13MpxDiskEvents @ 75 NONAME
	_ZN8MpEngine15handleScanEndedEii @ 76 NONAME
	_ZN8MpEngine15reorderPlaylistEiiii @ 77 NONAME
	_ZN8MpEngine16disableEqualizerEv @ 78 NONAME
	_ZN8MpEngine16loadActivityDataERK10QByteArray @ 79 NONAME
	_ZN8MpEngine16playlistsRenamedEb @ 80 NONAME
	_ZN8MpEngine16reopenCollectionEv @ 81 NONAME
	_ZN8MpEngine16saveActivityDataER10QByteArray @ 82 NONAME
	_ZN8MpEngine16startSeekForwardEv @ 83 NONAME
	_ZN8MpEngine16staticMetaObjectE @ 84 NONAME DATA 16
	_ZN8MpEngine17handleDeleteEndedEb @ 85 NONAME
	_ZN8MpEngine17handleScanStartedEv @ 86 NONAME
	_ZN8MpEngine17restorePathFailedEv @ 87 NONAME
	_ZN8MpEngine17startSeekBackwardEv @ 88 NONAME
	_ZN8MpEngine17verifyUsbBlockingEb @ 89 NONAME
	_ZN8MpEngine18autoRefreshLibraryEb @ 90 NONAME
	_ZN8MpEngine18openCollectionItemEi @ 91 NONAME
	_ZN8MpEngine19getStaticMetaObjectEv @ 92 NONAME
	_ZN8MpEngine19handleCorruptedStopEb @ 93 NONAME
	_ZN8MpEngine19handleDeleteStartedE18TCollectionContexti @ 94 NONAME
	_ZN8MpEngine19retrieveSongDetailsEi @ 95 NONAME
	_ZN8MpEngine20checkForSystemEventsEv @ 96 NONAME
	_ZN8MpEngine20handleEqualizerReadyEv @ 97 NONAME
	_ZN8MpEngine20handleUsbMtpEndEventEv @ 98 NONAME
	_ZN8MpEngine20libraryAboutToUpdateEv @ 99 NONAME
	_ZN8MpEngine20libraryUpdateStartedEv @ 100 NONAME
	_ZN8MpEngine21handleUsbMtpNotActiveEv @ 101 NONAME
	_ZN8MpEngine21saveToCurrentPlaylistER5QListIiEP19MpMpxCollectionData @ 102 NONAME
	_ZN8MpEngine21unableToCotinueDueUSBEv @ 103 NONAME
	_ZN8MpEngine21volumePropertyChangedEN8MpCommon16MpVolumePropertyEi @ 104 NONAME
	_ZN8MpEngine22changeUsbBlockingStateENS_16UsbBlockingStateE @ 105 NONAME
	_ZN8MpEngine22handleUsbMtpStartEventEv @ 106 NONAME
	_ZN8MpEngine22openIsolatedCollectionE18TCollectionContext @ 107 NONAME
	_ZN8MpEngine23cancelCollectionRequestEv @ 108 NONAME
	_ZN8MpEngine24collectionPlaylistOpenedEv @ 109 NONAME
	_ZN8MpEngine24containerContentsChangedEv @ 110 NONAME
	_ZN8MpEngine24isolatedCollectionOpenedEP19MpMpxCollectionData @ 111 NONAME
	_ZN8MpEngine25releaseIsolatedCollectionEv @ 112 NONAME
	_ZN8MpEngine25usbSynchronizationStartedEv @ 113 NONAME
	_ZN8MpEngine26usbSynchronizationFinishedEv @ 114 NONAME
	_ZN8MpEngine28handleUsbMassStorageEndEventEv @ 115 NONAME
	_ZN8MpEngine30handleUsbMassStorageStartEventEv @ 116 NONAME
	_ZN8MpEngine4backEv @ 117 NONAME
	_ZN8MpEngine4muteEv @ 118 NONAME
	_ZN8MpEngine4playEv @ 119 NONAME
	_ZN8MpEngine4stopEv @ 120 NONAME
	_ZN8MpEngine5pauseEv @ 121 NONAME
	_ZN8MpEngine6unmuteEv @ 122 NONAME
	_ZN8MpEngine7balanceEv @ 123 NONAME
	_ZN8MpEngine8loudnessEv @ 124 NONAME
	_ZN8MpEngine8songDataEv @ 125 NONAME
	_ZN8MpEngine9getVolumeEv @ 126 NONAME
	_ZN8MpEngine9playPauseEv @ 127 NONAME
	_ZN8MpEngine9setRepeatEb @ 128 NONAME
	_ZN8MpEngine9setVolumeEi @ 129 NONAME
	_ZN8MpEngineC1Ev @ 130 NONAME
	_ZN8MpEngineC2Ev @ 131 NONAME
	_ZN8MpEngineD0Ev @ 132 NONAME
	_ZN8MpEngineD1Ev @ 133 NONAME
	_ZN8MpEngineD2Ev @ 134 NONAME
	_ZNK13MpSongScanner10metaObjectEv @ 135 NONAME
	_ZNK15MpEngineFactory10metaObjectEv @ 136 NONAME
	_ZNK8MpEngine10metaObjectEv @ 137 NONAME
	_ZTI13MpSongScanner @ 138 NONAME
	_ZTI15MpEngineFactory @ 139 NONAME
	_ZTI8MpEngine @ 140 NONAME
	_ZTV13MpSongScanner @ 141 NONAME
	_ZTV15MpEngineFactory @ 142 NONAME
	_ZTV8MpEngine @ 143 NONAME
	_ZN13MpSongScanner17handleScanStartedEv @ 144 NONAME
	_ZN8MpEngine30handleCollectionPlaylistOpenedEv @ 145 NONAME

