EXPORTS
	_ZN14GlxDetailsIcon11qt_metacallEN11QMetaObject4CallEiPPv @ 1 NONAME
	_ZN14GlxDetailsIcon11qt_metacastEPKc @ 2 NONAME
	_ZN14GlxDetailsIcon11setItemIconERK6HbIcon @ 3 NONAME
	_ZN14GlxDetailsIcon15mousePressEventEP24QGraphicsSceneMouseEvent @ 4 NONAME
	_ZN14GlxDetailsIcon16staticMetaObjectE @ 5 NONAME DATA 16
	_ZN14GlxDetailsIcon16updateFavouritesEv @ 6 NONAME
	_ZN14GlxDetailsIcon17mouseReleaseEventEP24QGraphicsSceneMouseEvent @ 7 NONAME
	_ZN14GlxDetailsIcon19getStaticMetaObjectEv @ 8 NONAME
	_ZN14GlxDetailsIconC1EP13QGraphicsItem @ 9 NONAME
	_ZN14GlxDetailsIconC2EP13QGraphicsItem @ 10 NONAME
	_ZN14GlxDetailsIconD0Ev @ 11 NONAME
	_ZN14GlxDetailsIconD1Ev @ 12 NONAME
	_ZN14GlxDetailsIconD2Ev @ 13 NONAME
	_ZN18GlxDetailsTextEdit11qt_metacallEN11QMetaObject4CallEiPPv @ 14 NONAME
	_ZN18GlxDetailsTextEdit11qt_metacastEPKc @ 15 NONAME
	_ZN18GlxDetailsTextEdit11setItemTextERK7QString @ 16 NONAME
	_ZN18GlxDetailsTextEdit12editorTappedEv @ 17 NONAME
	_ZN18GlxDetailsTextEdit12gestureEventEP13QGestureEvent @ 18 NONAME
	_ZN18GlxDetailsTextEdit16staticMetaObjectE @ 19 NONAME DATA 16
	_ZN18GlxDetailsTextEdit19getStaticMetaObjectEv @ 20 NONAME
	_ZN18GlxDetailsTextEdit19setTextItemReadOnlyEb @ 21 NONAME
	_ZN18GlxDetailsTextEditC1EP13QGraphicsItem @ 22 NONAME
	_ZN18GlxDetailsTextEditC2EP13QGraphicsItem @ 23 NONAME
	_ZN18GlxDetailsTextEditD0Ev @ 24 NONAME
	_ZN18GlxDetailsTextEditD1Ev @ 25 NONAME
	_ZN18GlxDetailsTextEditD2Ev @ 26 NONAME
	_ZNK14GlxDetailsIcon10metaObjectEv @ 27 NONAME
	_ZNK18GlxDetailsTextEdit10metaObjectEv @ 28 NONAME
	_ZTI14GlxDetailsIcon @ 29 NONAME
	_ZTI18GlxDetailsTextEdit @ 30 NONAME
	_ZTV14GlxDetailsIcon @ 31 NONAME
	_ZTV18GlxDetailsTextEdit @ 32 NONAME
	_ZThn16_N14GlxDetailsIconD0Ev @ 33 NONAME
	_ZThn16_N14GlxDetailsIconD1Ev @ 34 NONAME
	_ZThn16_N18GlxDetailsTextEditD0Ev @ 35 NONAME
	_ZThn16_N18GlxDetailsTextEditD1Ev @ 36 NONAME
	_ZThn8_N14GlxDetailsIcon15mousePressEventEP24QGraphicsSceneMouseEvent @ 37 NONAME
	_ZThn8_N14GlxDetailsIcon17mouseReleaseEventEP24QGraphicsSceneMouseEvent @ 38 NONAME
	_ZThn8_N14GlxDetailsIconD0Ev @ 39 NONAME
	_ZThn8_N14GlxDetailsIconD1Ev @ 40 NONAME
	_ZThn8_N18GlxDetailsTextEditD0Ev @ 41 NONAME
	_ZThn8_N18GlxDetailsTextEditD1Ev @ 42 NONAME

