EXPORTS
	?HandleKeyMessageL@CPhoneStateIncoming@@UAEXW4TPhoneKeyEventMessages@MPhoneKeyEvents@@W4TKeyCode@@@Z @ 1 NONAME ; void CPhoneStateIncoming::HandleKeyMessageL(enum MPhoneKeyEvents::TPhoneKeyEventMessages, enum TKeyCode)
	?IsNumberEntryUsedL@CPhoneNumberEntryManager@@QBEHXZ @ 2 NONAME ; int CPhoneNumberEntryManager::IsNumberEntryUsedL(void) const
	?HandleNumberEntryClearedL@CPhoneState@@UAEXXZ @ 3 NONAME ; void CPhoneState::HandleNumberEntryClearedL(void)
	?HandleKeyMessageL@CPhoneStateCallSetup@@UAEXW4TPhoneKeyEventMessages@MPhoneKeyEvents@@W4TKeyCode@@@Z @ 4 NONAME ; void CPhoneStateCallSetup::HandleKeyMessageL(enum MPhoneKeyEvents::TPhoneKeyEventMessages, enum TKeyCode)
	?CallFetchedNumberL@CPhoneStateInCall@@MAEXABVTDesC16@@@Z @ 5 NONAME ; void CPhoneStateInCall::CallFetchedNumberL(class TDesC16 const &)
	?HandlePhoneStartupL@CPhoneState@@UAEXXZ @ 6 NONAME ; void CPhoneState::HandlePhoneStartupL(void)
	?HandlePhoneFocusLostEventL@CPhoneStateIdle@@UAEXXZ @ 7 NONAME ; void CPhoneStateIdle::HandlePhoneFocusLostEventL(void)
	?HandleIdleL@CPhoneStateInCall@@IAEXH@Z @ 8 NONAME ; void CPhoneStateInCall::HandleIdleL(int)
	?ShowQueryL@CPhoneState@@IAEXH@Z @ 9 NONAME ; void CPhoneState::ShowQueryL(int)
	?DisplayCallTerminationNoteL@CPhoneState@@IAEXXZ @ 10 NONAME ; void CPhoneState::DisplayCallTerminationNoteL(void)
	?EngineInfo@CPhoneUIController@@QAEPAVMPEEngineInfo@@XZ @ 11 NONAME ; class MPEEngineInfo * CPhoneUIController::EngineInfo(void)
	??0CPhoneStateInCall@@IAE@PAVMPhoneStateMachine@@PAVMPhoneViewCommandHandle@@PAVMPhoneCustomization@@@Z @ 12 NONAME ; CPhoneStateInCall::CPhoneStateInCall(class MPhoneStateMachine *, class MPhoneViewCommandHandle *, class MPhoneCustomization *)
	?PhoneEngine@CPhoneStateMachine@@UAEPAVMPEPhoneModel@@XZ @ 13 NONAME ; class MPEPhoneModel * CPhoneStateMachine::PhoneEngine(void)
	?CallFromNumberEntryL@CPhoneNumberEntryManager@@QAEXXZ @ 14 NONAME ; void CPhoneNumberEntryManager::CallFromNumberEntryL(void)
	??1CPhoneStateCallSetup@@UAE@XZ @ 15 NONAME ; CPhoneStateCallSetup::~CPhoneStateCallSetup(void)
	?UpdateUiCommands@CPhoneState@@IAEXXZ @ 16 NONAME ; void CPhoneState::UpdateUiCommands(void)
	?SetToolbarButtonLoudspeakerEnabled@CPhoneState@@IAEXXZ @ 17 NONAME ; void CPhoneState::SetToolbarButtonLoudspeakerEnabled(void)
	?Instance@CPhoneStateHandle@@SAPAV1@XZ @ 18 NONAME ; class CPhoneStateHandle * CPhoneStateHandle::Instance(void)
	?HandleNumberEntryClearedL@CPhoneStateIdle@@MAEXXZ @ 19 NONAME ; void CPhoneStateIdle::HandleNumberEntryClearedL(void)
	?HandleCommandL@CPhoneState@@UAEHH@Z @ 20 NONAME ; int CPhoneState::HandleCommandL(int)
	?DialL@CPhoneStateIdle@@MAEXABVTDesC16@@W4TPhoneNumberType@1@W4TDialInitiationMethod@1@@Z @ 21 NONAME ; void CPhoneStateIdle::DialL(class TDesC16 const &, enum CPhoneStateIdle::TPhoneNumberType, enum CPhoneStateIdle::TDialInitiationMethod)
	?HandlePhoneEngineMessageL@CPhoneStateIdle@@UAEXHH@Z @ 22 NONAME ; void CPhoneStateIdle::HandlePhoneEngineMessageL(int, int)
	?HandleDialingL@CPhoneStateIdle@@MAEXH@Z @ 23 NONAME ; void CPhoneStateIdle::HandleDialingL(int)
	?ClearNumberEntryContentCacheIfContentStored@CPhoneNumberEntryManager@@QAEXXZ @ 24 NONAME ; void CPhoneNumberEntryManager::ClearNumberEntryContentCacheIfContentStored(void)
	?ChangeState@CPhoneStateMachine@@UAEXH@Z @ 25 NONAME ; void CPhoneStateMachine::ChangeState(int)
	?IsSimStateNotPresentWithSecurityModeEnabled@CPhoneState@@IAEHXZ @ 26 NONAME ; int CPhoneState::IsSimStateNotPresentWithSecurityModeEnabled(void)
	?HandlePhoneEngineMessageL@CPhoneState@@UAEXHH@Z @ 27 NONAME ; void CPhoneState::HandlePhoneEngineMessageL(int, int)
	?HandleNumberEntryClearedL@CPhoneStateIncoming@@UAEXXZ @ 28 NONAME ; void CPhoneStateIncoming::HandleNumberEntryClearedL(void)
	?HandleKeyEventL@CPhoneUIController@@UAE?AW4TKeyResponse@@ABUTKeyEvent@@W4TEventCode@@@Z @ 29 NONAME ; enum TKeyResponse CPhoneUIController::HandleKeyEventL(struct TKeyEvent const &, enum TEventCode)
	?HandleRemConCommandL@CPhoneStateIdle@@MAEHW4TRemConCoreApiOperationId@@W4TRemConCoreApiButtonAction@@@Z @ 30 NONAME ; int CPhoneStateIdle::HandleRemConCommandL(enum TRemConCoreApiOperationId, enum TRemConCoreApiButtonAction)
	?HandleAudioPlayStoppedL@CPhoneStateIncoming@@MAEXXZ @ 31 NONAME ; void CPhoneStateIncoming::HandleAudioPlayStoppedL(void)
	?RemoveNumberEntryIfVisibilityIsFalseL@CPhoneNumberEntryManager@@QAEXXZ @ 32 NONAME ; void CPhoneNumberEntryManager::RemoveNumberEntryIfVisibilityIsFalseL(void)
	?IsNumberEntryContentStored@CPhoneNumberEntryManager@@QAEHXZ @ 33 NONAME ; int CPhoneNumberEntryManager::IsNumberEntryContentStored(void)
	?ShowNumberBusyNoteL@CPhoneState@@IAEXXZ @ 34 NONAME ; void CPhoneState::ShowNumberBusyNoteL(void)
	?NumberEntryClearL@CPhoneNumberEntryManager@@QBEXXZ @ 35 NONAME ; void CPhoneNumberEntryManager::NumberEntryClearL(void) const
	?DisconnectCallL@CPhoneState@@IAEHXZ @ 36 NONAME ; int CPhoneState::DisconnectCallL(void)
	?HandleNumberEntryClearedL@CPhoneStateCallSetup@@MAEXXZ @ 37 NONAME ; void CPhoneStateCallSetup::HandleNumberEntryClearedL(void)
	?HandleDisconnectingL@CPhoneState@@IAEXH@Z @ 38 NONAME ; void CPhoneState::HandleDisconnectingL(int)
	?HandleAudioMuteChangedL@CPhoneState@@IAEXXZ @ 39 NONAME ; void CPhoneState::HandleAudioMuteChangedL(void)
	?HandleCommandL@CPhoneStateIncoming@@UAEHH@Z @ 40 NONAME ; int CPhoneStateIncoming::HandleCommandL(int)
	?UpdateSingleActiveCallL@CPhoneState@@IAEXH@Z @ 41 NONAME ; void CPhoneState::UpdateSingleActiveCallL(int)
	?SimState@CPhoneState@@IBE?AW4TPESimState@@XZ @ 42 NONAME ; enum TPESimState CPhoneState::SimState(void) const
	?HandleKeyEventL@CPhoneStateCallSetup@@UAEXABUTKeyEvent@@W4TEventCode@@@Z @ 43 NONAME ; void CPhoneStateCallSetup::HandleKeyEventL(struct TKeyEvent const &, enum TEventCode)
	?NewL@CPhoneStateStartup@@SAPAV1@PAVMPhoneStateMachine@@PAVMPhoneViewCommandHandle@@PAVMPhoneCustomization@@@Z @ 44 NONAME ; class CPhoneStateStartup * CPhoneStateStartup::NewL(class MPhoneStateMachine *, class MPhoneViewCommandHandle *, class MPhoneCustomization *)
	?IsSimOk@CPhoneState@@QAEHXZ @ 45 NONAME ; int CPhoneState::IsSimOk(void)
	?HandleCommandL@CPhoneStateIdle@@UAEHH@Z @ 46 NONAME ; int CPhoneStateIdle::HandleCommandL(int)
	?ViewCommandHandle@CPhoneStateHandle@@QAEPAVMPhoneViewCommandHandle@@XZ @ 47 NONAME ; class MPhoneViewCommandHandle * CPhoneStateHandle::ViewCommandHandle(void)
	?DialMultimediaCallL@CPhoneStateIdle@@IAEXXZ @ 48 NONAME ; void CPhoneStateIdle::DialMultimediaCallL(void)
	?DisconnectOutgoingCallL@CPhoneStateInCall@@IAEXXZ @ 49 NONAME ; void CPhoneStateInCall::DisconnectOutgoingCallL(void)
	??1CPhoneStateInCall@@UAE@XZ @ 50 NONAME ; CPhoneStateInCall::~CPhoneStateInCall(void)
	?ConstructL@CPhoneStateInCall@@MAEXXZ @ 51 NONAME ; void CPhoneStateInCall::ConstructL(void)
	?HandleError@CPhoneUIController@@UAEXABUTPEErrorInfo@@@Z @ 52 NONAME ; void CPhoneUIController::HandleError(struct TPEErrorInfo const &)
	?IsVideoCallRingingL@CPhoneStateInCall@@MAEHXZ @ 53 NONAME ; int CPhoneStateInCall::IsVideoCallRingingL(void)
	?ClearNumberEntryContentCache@CPhoneNumberEntryManager@@QAEXXZ @ 54 NONAME ; void CPhoneNumberEntryManager::ClearNumberEntryContentCache(void)
	?IsCustomizedDialerVisibleL@CPhoneNumberEntryManager@@QBEHXZ @ 55 NONAME ; int CPhoneNumberEntryManager::IsCustomizedDialerVisibleL(void) const
	?HandleDtmfKeyToneL@CPhoneStateStartup@@EAEXABUTKeyEvent@@W4TEventCode@@@Z @ 56 NONAME ; void CPhoneStateStartup::HandleDtmfKeyToneL(struct TKeyEvent const &, enum TEventCode)
	?EikonEnv@CPhoneStateMachine@@QBEPAVCEikonEnv@@XZ @ 57 NONAME ; class CEikonEnv * CPhoneStateMachine::EikonEnv(void) const
	?ShowTextQueryL@CPhoneState@@IAEXHHHPAVTDes16@@H@Z @ 58 NONAME ; void CPhoneState::ShowTextQueryL(int, int, int, class TDes16 *, int)
	?DialMultimediaCallL@CPhoneState@@IAEXXZ @ 59 NONAME ; void CPhoneState::DialMultimediaCallL(void)
	?NewL@CPhoneUIController@@SAPAV1@PAVMPhoneViewCommandHandle@@@Z @ 60 NONAME ; class CPhoneUIController * CPhoneUIController::NewL(class MPhoneViewCommandHandle *)
	?HandleCommandL@CPhoneStateCallSetup@@UAEHH@Z @ 61 NONAME ; int CPhoneStateCallSetup::HandleCommandL(int)
	?HandleErrorL@CPhoneState@@UAEXABUTPEErrorInfo@@@Z @ 62 NONAME ; void CPhoneState::HandleErrorL(struct TPEErrorInfo const &)
	??1CPhoneUIController@@UAE@XZ @ 63 NONAME ; CPhoneUIController::~CPhoneUIController(void)
	?HandleAudioOutputChangedL@CPhoneState@@IAEXXZ @ 64 NONAME ; void CPhoneState::HandleAudioOutputChangedL(void)
	?HandleKeyEventL@CPhoneState@@UAEXABUTKeyEvent@@W4TEventCode@@@Z @ 65 NONAME ; void CPhoneState::HandleKeyEventL(struct TKeyEvent const &, enum TEventCode)
	?RemoveDialogsAndSendPhoneToBackgroundL@CPhoneState@@IAEXXZ @ 66 NONAME ; void CPhoneState::RemoveDialogsAndSendPhoneToBackgroundL(void)
	?StoreNumberEntryContentL@CPhoneNumberEntryManager@@QAEXXZ @ 67 NONAME ; void CPhoneNumberEntryManager::StoreNumberEntryContentL(void)
	?SendGlobalErrorNoteL@CPhoneState@@QAEXHH@Z @ 68 NONAME ; void CPhoneState::SendGlobalErrorNoteL(int, int)
	?CreatePhoneEngineL@CPhoneStateMachine@@UAEPAVMPEPhoneModel@@AAVMEngineMonitor@@@Z @ 69 NONAME ; class MPEPhoneModel * CPhoneStateMachine::CreatePhoneEngineL(class MEngineMonitor &)
	?ConstructL@CPhoneStateIncoming@@MAEXXZ @ 70 NONAME ; void CPhoneStateIncoming::ConstructL(void)
	?UpdateCallHeaderAndUiCommandsL@CPhoneState@@IAEXH@Z @ 71 NONAME ; void CPhoneState::UpdateCallHeaderAndUiCommandsL(int)
	?IsVideoCall@CPhoneState@@IAEHH@Z @ 72 NONAME ; int CPhoneState::IsVideoCall(int)
	?IsAutoLockOn@CPhoneState@@UBEHXZ @ 73 NONAME ; int CPhoneState::IsAutoLockOn(void) const
	?HandleKeyEventL@CPhoneStateIdle@@UAEXABUTKeyEvent@@W4TEventCode@@@Z @ 74 NONAME ; void CPhoneStateIdle::HandleKeyEventL(struct TKeyEvent const &, enum TEventCode)
	?SendGlobalWarningNoteL@CPhoneState@@IAEXHH@Z @ 75 NONAME ; void CPhoneState::SendGlobalWarningNoteL(int, int)
	?HandlePhoneStartupL@CPhoneStateStartup@@UAEXXZ @ 76 NONAME ; void CPhoneStateStartup::HandlePhoneStartupL(void)
	?IsVideoCallActiveL@CPhoneStateInCall@@MAEHXZ @ 77 NONAME ; int CPhoneStateInCall::IsVideoCallActiveL(void)
	?StateMachine@CPhoneStateHandle@@QAEPAVMPhoneStateMachine@@XZ @ 78 NONAME ; class MPhoneStateMachine * CPhoneStateHandle::StateMachine(void)
	?EndUiUpdate@CPhoneState@@IAEXXZ @ 79 NONAME ; void CPhoneState::EndUiUpdate(void)
	?HandleKeyMessageL@CPhoneStateInCall@@UAEXW4TPhoneKeyEventMessages@MPhoneKeyEvents@@W4TKeyCode@@@Z @ 80 NONAME ; void CPhoneStateInCall::HandleKeyMessageL(enum MPhoneKeyEvents::TPhoneKeyEventMessages, enum TKeyCode)
	?SetRingingTonePlaybackL@CPhoneState@@IAEXH@Z @ 81 NONAME ; void CPhoneState::SetRingingTonePlaybackL(int)
	?BeginUiUpdateLC@CPhoneState@@IAEXXZ @ 82 NONAME ; void CPhoneState::BeginUiUpdateLC(void)
	?DecreaseAudioVolumeL@CPhoneState@@IAEXXZ @ 83 NONAME ; void CPhoneState::DecreaseAudioVolumeL(void)
	?ProcessCommandL@CPhoneState@@UAEHH@Z @ 84 NONAME ; int CPhoneState::ProcessCommandL(int)
	?PhoneEngineInfo@CPhoneStateMachine@@UAEPAVMPEEngineInfo@@XZ @ 85 NONAME ; class MPEEngineInfo * CPhoneStateMachine::PhoneEngineInfo(void)
	??0CPhoneStateStartup@@IAE@PAVMPhoneStateMachine@@PAVMPhoneViewCommandHandle@@PAVMPhoneCustomization@@@Z @ 86 NONAME ; CPhoneStateStartup::CPhoneStateStartup(class MPhoneStateMachine *, class MPhoneViewCommandHandle *, class MPhoneCustomization *)
	?SetCallId@CPhoneStateMachine@@UAEXH@Z @ 87 NONAME ; void CPhoneStateMachine::SetCallId(int)
	?ProcessCommandL@CPhoneUIController@@UAEHH@Z @ 88 NONAME ; int CPhoneUIController::ProcessCommandL(int)
	?DisplayCallHeaderL@CPhoneState@@QAEXHW4TNumberEntrySetRule@1@@Z @ 89 NONAME ; void CPhoneState::DisplayCallHeaderL(int, enum CPhoneState::TNumberEntrySetRule)
	??0CPhoneStateIdle@@IAE@PAVMPhoneStateMachine@@PAVMPhoneViewCommandHandle@@PAVMPhoneCustomization@@@Z @ 90 NONAME ; CPhoneStateIdle::CPhoneStateIdle(class MPhoneStateMachine *, class MPhoneViewCommandHandle *, class MPhoneCustomization *)
	?SendPhoneEngineMessage@CPhoneStateMachine@@UAEXH@Z @ 91 NONAME ; void CPhoneStateMachine::SendPhoneEngineMessage(int)
	?IsNumberEntryVisibleL@CPhoneNumberEntryManager@@QBEHXZ @ 92 NONAME ; int CPhoneNumberEntryManager::IsNumberEntryVisibleL(void) const
	??0CPhoneStateCallSetup@@IAE@PAVMPhoneStateMachine@@PAVMPhoneViewCommandHandle@@PAVMPhoneCustomization@@@Z @ 93 NONAME ; CPhoneStateCallSetup::CPhoneStateCallSetup(class MPhoneStateMachine *, class MPhoneViewCommandHandle *, class MPhoneCustomization *)
	??0CPhoneState@@QAE@PAVMPhoneStateMachine@@PAVMPhoneViewCommandHandle@@PAVMPhoneCustomization@@@Z @ 94 NONAME ; CPhoneState::CPhoneState(class MPhoneStateMachine *, class MPhoneViewCommandHandle *, class MPhoneCustomization *)
	?HandleDtmfKeyToneL@CPhoneState@@UAEXABUTKeyEvent@@W4TEventCode@@@Z @ 95 NONAME ; void CPhoneState::HandleDtmfKeyToneL(struct TKeyEvent const &, enum TEventCode)
	?HandleKeyMessageL@CPhoneStateIdle@@UAEXW4TPhoneKeyEventMessages@MPhoneKeyEvents@@W4TKeyCode@@@Z @ 96 NONAME ; void CPhoneStateIdle::HandleKeyMessageL(enum MPhoneKeyEvents::TPhoneKeyEventMessages, enum TKeyCode)
	?HandleCommandL@CPhoneUIController@@UAEHH@Z @ 97 NONAME ; int CPhoneUIController::HandleCommandL(int)
	?HandleSendCommandL@CPhoneStateIdle@@MAEXXZ @ 98 NONAME ; void CPhoneStateIdle::HandleSendCommandL(void)
	?SetNumberEntryVisibilityL@CPhoneNumberEntryManager@@QAEXH@Z @ 99 NONAME ; void CPhoneNumberEntryManager::SetNumberEntryVisibilityL(int)
	?HandlePhoneEngineMessageL@CPhoneStateInCall@@UAEXHH@Z @ 100 NONAME ; void CPhoneStateInCall::HandlePhoneEngineMessageL(int, int)
	?PhoneStorage@CPhoneStateMachine@@UAEPAVMPhoneStorage@@XZ @ 101 NONAME ; class MPhoneStorage * CPhoneStateMachine::PhoneStorage(void)
	??1CPhoneState@@UAE@XZ @ 102 NONAME ; CPhoneState::~CPhoneState(void)
	?DialVoiceCallL@CPhoneState@@QAEXXZ @ 103 NONAME ; void CPhoneState::DialVoiceCallL(void)
	?HandlePhoneEngineMessageL@CPhoneStateCallSetup@@UAEXHH@Z @ 104 NONAME ; void CPhoneStateCallSetup::HandlePhoneEngineMessageL(int, int)
	??1CPhoneStateMachine@@UAE@XZ @ 105 NONAME ; CPhoneStateMachine::~CPhoneStateMachine(void)
	?SetVisibilityIfNumberEntryUsedL@CPhoneNumberEntryManager@@QAEHH@Z @ 106 NONAME ; int CPhoneNumberEntryManager::SetVisibilityIfNumberEntryUsedL(int)
	?ConstructL@CPhoneStateCallSetup@@MAEXXZ @ 107 NONAME ; void CPhoneStateCallSetup::ConstructL(void)
	?HandleMessage@CPhoneUIController@@UAEXHH@Z @ 108 NONAME ; void CPhoneUIController::HandleMessage(int, int)
	?ConstructL@CPhoneStateStartup@@MAEXXZ @ 109 NONAME ; void CPhoneStateStartup::ConstructL(void)
	?HandleKeyMessageL@CPhoneStateStartup@@UAEXW4TPhoneKeyEventMessages@MPhoneKeyEvents@@W4TKeyCode@@@Z @ 110 NONAME ; void CPhoneStateStartup::HandleKeyMessageL(enum MPhoneKeyEvents::TPhoneKeyEventMessages, enum TKeyCode)
	?ShowNoteL@CPhoneState@@IAEXH@Z @ 111 NONAME ; void CPhoneState::ShowNoteL(int)
	?HandlePropertyChangedL@CPhoneState@@UAEXABVTUid@@IH@Z @ 112 NONAME ; void CPhoneState::HandlePropertyChangedL(class TUid const &, unsigned int, int)
	?State@CPhoneStateMachine@@UAEPAVMPhoneState@@XZ @ 113 NONAME ; class MPhoneState * CPhoneStateMachine::State(void)
	?SetHandsfreeModeL@CPhoneState@@IAEXH@Z @ 114 NONAME ; void CPhoneState::SetHandsfreeModeL(int)
	?IsCustomizedDialerVisibleL@CPhoneState@@QBEHXZ @ 115 NONAME ; int CPhoneState::IsCustomizedDialerVisibleL(void) const
	?HandleNumberEntryClearedL@CPhoneStateInCall@@MAEXXZ @ 116 NONAME ; void CPhoneStateInCall::HandleNumberEntryClearedL(void)
	?PhoneNumberFromEntryLC@CPhoneNumberEntryManager@@QBEPAVHBufC16@@XZ @ 117 NONAME ; class HBufC16 * CPhoneNumberEntryManager::PhoneNumberFromEntryLC(void) const
	??0CPhoneStateIncoming@@IAE@PAVMPhoneStateMachine@@PAVMPhoneViewCommandHandle@@PAVMPhoneCustomization@@@Z @ 118 NONAME ; CPhoneStateIncoming::CPhoneStateIncoming(class MPhoneStateMachine *, class MPhoneViewCommandHandle *, class MPhoneCustomization *)
	??1CPhoneStateIncoming@@UAE@XZ @ 119 NONAME ; CPhoneStateIncoming::~CPhoneStateIncoming(void)
	?SendGlobalInfoNoteL@CPhoneState@@QAEXHH@Z @ 120 NONAME ; void CPhoneState::SendGlobalInfoNoteL(int, int)
	?DeleteTouchPaneButtons@CPhoneState@@IAEXXZ @ 121 NONAME ; void CPhoneState::DeleteTouchPaneButtons(void)
	?ProcessCommandL@CPhoneStateIdle@@UAEHH@Z @ 122 NONAME ; int CPhoneStateIdle::ProcessCommandL(int)
	?HandlePhoneEngineMessageL@CPhoneStateStartup@@UAEXHH@Z @ 123 NONAME ; void CPhoneStateStartup::HandlePhoneEngineMessageL(int, int)
	?HandleKeyEventL@CPhoneStateIncoming@@UAEXABUTKeyEvent@@W4TEventCode@@@Z @ 124 NONAME ; void CPhoneStateIncoming::HandleKeyEventL(struct TKeyEvent const &, enum TEventCode)
	?HandleKeyEventL@CPhoneStateStartup@@UAEXABUTKeyEvent@@W4TEventCode@@@Z @ 125 NONAME ; void CPhoneStateStartup::HandleKeyEventL(struct TKeyEvent const &, enum TEventCode)
	?IncreaseAudioVolumeL@CPhoneState@@IAEXXZ @ 126 NONAME ; void CPhoneState::IncreaseAudioVolumeL(void)
	?ConstructL@CPhoneStateIdle@@MAEXXZ @ 127 NONAME ; void CPhoneStateIdle::ConstructL(void)
	?CheckIfShowCallTerminationNote@CPhoneState@@MAEHXZ @ 128 NONAME ; int CPhoneState::CheckIfShowCallTerminationNote(void)
	?SetEikonEnv@CPhoneState@@UAEXPAVCEikonEnv@@@Z @ 129 NONAME ; void CPhoneState::SetEikonEnv(class CEikonEnv *)
	?StartShowSecurityNoteL@CPhoneState@@IAEXXZ @ 130 NONAME ; void CPhoneState::StartShowSecurityNoteL(void)
	?SetBTHandsfreeModeL@CPhoneState@@IAEXH@Z @ 131 NONAME ; void CPhoneState::SetBTHandsfreeModeL(int)
	?HandlePhoneEngineMessageL@CPhoneStateIncoming@@UAEXHH@Z @ 132 NONAME ; void CPhoneStateIncoming::HandlePhoneEngineMessageL(int, int)
	?HandleCommandL@CPhoneStateInCall@@UAEHH@Z @ 133 NONAME ; int CPhoneStateInCall::HandleCommandL(int)
	?SetDefaultFlagsL@CPhoneState@@IAEXXZ @ 134 NONAME ; void CPhoneState::SetDefaultFlagsL(void)
	?DialVoiceCallL@CPhoneStateIdle@@IAEXXZ @ 135 NONAME ; void CPhoneStateIdle::DialVoiceCallL(void)
	?GetRingingCallL@CPhoneStateInCall@@MAEHXZ @ 136 NONAME ; int CPhoneStateInCall::GetRingingCallL(void)
	?EikonEnv@CPhoneState@@QBEPAVCEikonEnv@@XZ @ 137 NONAME ; class CEikonEnv * CPhoneState::EikonEnv(void) const
	?UpdateCallHeader@CPhoneState@@IAEXH@Z @ 138 NONAME ; void CPhoneState::UpdateCallHeader(int)
	?SetBackButtonActive@CPhoneState@@IAEXH@Z @ 139 NONAME ; void CPhoneState::SetBackButtonActive(int)
	?DisplayIncomingCallL@CPhoneStateIdle@@IAEXH@Z @ 140 NONAME ; void CPhoneStateIdle::DisplayIncomingCallL(int)
	??1CPhoneStateIdle@@UAE@XZ @ 141 NONAME ; CPhoneStateIdle::~CPhoneStateIdle(void)
	?HandleRemConCommandL@CPhoneState@@UAEHW4TRemConCoreApiOperationId@@W4TRemConCoreApiButtonAction@@@Z @ 142 NONAME ; int CPhoneState::HandleRemConCommandL(enum TRemConCoreApiOperationId, enum TRemConCoreApiButtonAction)
	?BaseConstructL@CPhoneState@@QAEXXZ @ 143 NONAME ; void CPhoneState::BaseConstructL(void)
	?HandlePhoneStartupL@CPhoneUIController@@UAEXXZ @ 144 NONAME ; void CPhoneUIController::HandlePhoneStartupL(void)
	?SetPhoneEngine@CPhoneStateMachine@@UAEXPAVMPEPhoneModel@@@Z @ 145 NONAME ; void CPhoneStateMachine::SetPhoneEngine(class MPEPhoneModel *)
	??0CPhoneStateMachine@@IAE@PAVMPhoneViewCommandHandle@@@Z @ 146 NONAME ; CPhoneStateMachine::CPhoneStateMachine(class MPhoneViewCommandHandle *)
	??1CPhoneStateStartup@@UAE@XZ @ 147 NONAME ; CPhoneStateStartup::~CPhoneStateStartup(void)
	?HandleKeyMessageL@CPhoneState@@UAEXW4TPhoneKeyEventMessages@MPhoneKeyEvents@@W4TKeyCode@@@Z @ 148 NONAME ; void CPhoneState::HandleKeyMessageL(enum MPhoneKeyEvents::TPhoneKeyEventMessages, enum TKeyCode)
	?OpenSoftRejectMessageEditorL@CPhoneState@@MAEXXZ @ 149 NONAME ; void CPhoneState::OpenSoftRejectMessageEditorL(void)

