EXPORTS
	?trUtf8@CCalenController@@SA?AVQString@@PBD0H@Z @ 1 NONAME ; class QString CCalenController::trUtf8(char const *, char const *, int)
	?checkMultipleCreation@CCalenController@@AAEXXZ @ 2 NONAME ; void CCalenController::checkMultipleCreation(void)
	??0CCalenController@@QAE@XZ @ 3 NONAME ; CCalenController::CCalenController(void)
	?handleServiceManagerSlot@CCalenController@@QAEXHABVQDateTime@@@Z @ 4 NONAME ; void CCalenController::handleServiceManagerSlot(int, class QDateTime const &)
	?staticMetaObject@CCalenController@@2UQMetaObject@@B @ 5 NONAME ; struct QMetaObject const CCalenController::staticMetaObject
	?qt_metacall@CCalenController@@UAEHW4Call@QMetaObject@@HPAPAX@Z @ 6 NONAME ; int CCalenController::qt_metacall(enum QMetaObject::Call, int, void * *)
	?qt_metacast@CCalenController@@UAEPAXPBD@Z @ 7 NONAME ; void * CCalenController::qt_metacast(char const *)
	?BroadcastNotification@CCalenController@@QAEXW4TCalenNotification@@@Z @ 8 NONAME ; void CCalenController::BroadcastNotification(enum TCalenNotification)
	?CancelNotifications@CCalenController@@QAEXPAVMCalenNotificationHandler@@@Z @ 9 NONAME ; void CCalenController::CancelNotifications(class MCalenNotificationHandler *)
	?eventFilter@CCalenController@@UAE_NPAVQObject@@PAVQEvent@@@Z @ 10 NONAME ; bool CCalenController::eventFilter(class QObject *, class QEvent *)
	?tr@CCalenController@@SA?AVQString@@PBD0@Z @ 11 NONAME ; class QString CCalenController::tr(char const *, char const *)
	?getStaticMetaObject@CCalenController@@SAABUQMetaObject@@XZ @ 12 NONAME ; struct QMetaObject const & CCalenController::getStaticMetaObject(void)
	?CustomisationManager@CCalenController@@QAEAAVCCalenCustomisationManager@@XZ @ 13 NONAME ; class CCalenCustomisationManager & CCalenController::CustomisationManager(void)
	?IssueCommandL@CCalenController@@QAEHH@Z @ 14 NONAME ; int CCalenController::IssueCommandL(int)
	?tr@CCalenController@@SA?AVQString@@PBD0H@Z @ 15 NONAME ; class QString CCalenController::tr(char const *, char const *, int)
	?Services@CCalenController@@QAEAAVMCalenServices@@XZ @ 16 NONAME ; class MCalenServices & CCalenController::Services(void)
	?OfferMenu@CCalenController@@QAEXPAVHbMenu@@@Z @ 17 NONAME ; void CCalenController::OfferMenu(class HbMenu *)
	?ReleaseCustomisations@CCalenController@@QAEXXZ @ 18 NONAME ; void CCalenController::ReleaseCustomisations(void)
	?SetDefaultContext@CCalenController@@AAEXXZ @ 19 NONAME ; void CCalenController::SetDefaultContext(void)
	??_ECCalenController@@UAE@I@Z @ 20 NONAME ; CCalenController::~CCalenController(unsigned int)
	?getFirstView@CCalenController@@QAEHXZ @ 21 NONAME ; int CCalenController::getFirstView(void)
	?metaObject@CCalenController@@UBEPBUQMetaObject@@XZ @ 22 NONAME ; struct QMetaObject const * CCalenController::metaObject(void) const
	?Infobar@CCalenController@@QAEPAVHbWidget@@XZ @ 23 NONAME ; class HbWidget * CCalenController::Infobar(void)
	?ViewManager@CCalenController@@QAEAAVCalenViewManager@@XZ @ 24 NONAME ; class CalenViewManager & CCalenController::ViewManager(void)
	?context@CCalenController@@QAEAAVMCalenContext@@XZ @ 25 NONAME ; class MCalenContext & CCalenController::context(void)
	?agendaInterface@CCalenController@@QAEPAVAgendaUtil@@XZ @ 26 NONAME ; class AgendaUtil * CCalenController::agendaInterface(void)
	?constructController@CCalenController@@QAEXXZ @ 27 NONAME ; void CCalenController::constructController(void)
	?MainWindow@CCalenController@@QAEAAVHbMainWindow@@XZ @ 28 NONAME ; class HbMainWindow & CCalenController::MainWindow(void)
	?Notifier@CCalenController@@QAEAAVCalenNotifier@@XZ @ 29 NONAME ; class CalenNotifier & CCalenController::Notifier(void)
	?InstanceL@CCalenController@@SAPAV1@XZ @ 30 NONAME ; class CCalenController * CCalenController::InstanceL(void)
	??1CCalenController@@UAE@XZ @ 31 NONAME ; CCalenController::~CCalenController(void)
	?InfobarTextL@CCalenController@@QAEPAVQString@@XZ @ 32 NONAME ; class QString * CCalenController::InfobarTextL(void)
	?Release@CCalenController@@QAEXXZ @ 33 NONAME ; void CCalenController::Release(void)
	?trUtf8@CCalenController@@SA?AVQString@@PBD0@Z @ 34 NONAME ; class QString CCalenController::trUtf8(char const *, char const *)
	?RegisterForNotificationsL@CCalenController@@QAEXPAVMCalenNotificationHandler@@W4TCalenNotification@@@Z @ 35 NONAME ; void CCalenController::RegisterForNotificationsL(class MCalenNotificationHandler *, enum TCalenNotification)
	?GetCommandHandlerL@CCalenController@@QAEPAVMCalenCommandHandler@@H@Z @ 36 NONAME ; class MCalenCommandHandler * CCalenController::GetCommandHandlerL(int)
	?RegisterForNotificationsL@CCalenController@@QAEXPAVMCalenNotificationHandler@@AAV?$RArray@W4TCalenNotification@@@@@Z @ 37 NONAME ; void CCalenController::RegisterForNotificationsL(class MCalenNotificationHandler *, class RArray<enum TCalenNotification> &)
	?NewServicesL@CCalenController@@UAEPAVMCalenServices@@XZ @ 38 NONAME ; class MCalenServices * CCalenController::NewServicesL(void)
	?emitAppReady@CCalenController@@QAEXXZ @ 39 NONAME ; void CCalenController::emitAppReady(void)
	?appReady@CCalenController@@IAEXXZ @ 40 NONAME ; void CCalenController::appReady(void)
	?raiseWindow@CCalenController@@AAEXXZ @ 41 NONAME ; void CCalenController::raiseWindow(void)

