EXPORTS
	_ZN16CCalenController10MainWindowEv @ 1 NONAME
	_ZN16CCalenController11ViewManagerEv @ 2 NONAME
	_ZN16CCalenController11eventFilterEP7QObjectP6QEvent @ 3 NONAME
	_ZN16CCalenController11qt_metacallEN11QMetaObject4CallEiPPv @ 4 NONAME
	_ZN16CCalenController11qt_metacastEPKc @ 5 NONAME
	_ZN16CCalenController12InfobarTextLEv @ 6 NONAME
	_ZN16CCalenController12NewServicesLEv @ 7 NONAME
	_ZN16CCalenController12getFirstViewEv @ 8 NONAME
	_ZN16CCalenController13IssueCommandLEi @ 9 NONAME
	_ZN16CCalenController15agendaInterfaceEv @ 10 NONAME
	_ZN16CCalenController16staticMetaObjectE @ 11 NONAME DATA 16
	_ZN16CCalenController17SetDefaultContextEv @ 12 NONAME
	_ZN16CCalenController18GetCommandHandlerLEi @ 13 NONAME
	_ZN16CCalenController19CancelNotificationsEP25MCalenNotificationHandler @ 14 NONAME
	_ZN16CCalenController19constructControllerEv @ 15 NONAME
	_ZN16CCalenController19getStaticMetaObjectEv @ 16 NONAME
	_ZN16CCalenController20CustomisationManagerEv @ 17 NONAME
	_ZN16CCalenController21BroadcastNotificationE18TCalenNotification @ 18 NONAME
	_ZN16CCalenController21ReleaseCustomisationsEv @ 19 NONAME
	_ZN16CCalenController21checkMultipleCreationEv @ 20 NONAME
	_ZN16CCalenController24handleServiceManagerSlotEiRK9QDateTime @ 21 NONAME
	_ZN16CCalenController25RegisterForNotificationsLEP25MCalenNotificationHandler18TCalenNotification @ 22 NONAME
	_ZN16CCalenController25RegisterForNotificationsLEP25MCalenNotificationHandlerR6RArrayI18TCalenNotificationE @ 23 NONAME
	_ZN16CCalenController7InfobarEv @ 24 NONAME
	_ZN16CCalenController7ReleaseEv @ 25 NONAME
	_ZN16CCalenController7contextEv @ 26 NONAME
	_ZN16CCalenController8NotifierEv @ 27 NONAME
	_ZN16CCalenController8ServicesEv @ 28 NONAME
	_ZN16CCalenController9InstanceLEv @ 29 NONAME
	_ZN16CCalenController9OfferMenuEP6HbMenu @ 30 NONAME
	_ZN16CCalenControllerC1Ev @ 31 NONAME
	_ZN16CCalenControllerC2Ev @ 32 NONAME
	_ZN16CCalenControllerD0Ev @ 33 NONAME
	_ZN16CCalenControllerD1Ev @ 34 NONAME
	_ZN16CCalenControllerD2Ev @ 35 NONAME
	_ZNK16CCalenController10metaObjectEv @ 36 NONAME
	_ZTI16CCalenController @ 37 NONAME
	_ZTV16CCalenController @ 38 NONAME
	_ZThn8_N16CCalenController12NewServicesLEv @ 39 NONAME
	_ZN16CCalenController12emitAppReadyEv @ 40 NONAME
	_ZN16CCalenController8appReadyEv @ 41 NONAME
	_ZN16CCalenController11raiseWindowEv @ 42 NONAME

