EXPORTS
	_ZN13IRQIsdsClient11isdsGetIRIDEv @ 1 NONAME
	_ZN13IRQIsdsClient11isdsPostLogERK7QString @ 2 NONAME
	_ZN13IRQIsdsClient11qt_metacallEN11QMetaObject4CallEiPPv @ 3 NONAME
	_ZN13IRQIsdsClient11qt_metacastEPKc @ 4 NONAME
	_ZN13IRQIsdsClient12iridReceivedE7QString @ 5 NONAME
	_ZN13IRQIsdsClient12openInstanceEv @ 6 NONAME
	_ZN13IRQIsdsClient13closeInstanceEv @ 7 NONAME
	_ZN13IRQIsdsClient14isdsMultSearchE7QStringS0_S0_S0_ @ 8 NONAME
	_ZN13IRQIsdsClient14isdsSyncPresetEiRK7QStringP14IRQFavoritesDB @ 9 NONAME
	_ZN13IRQIsdsClient14presetResponseEP9IRQPreset @ 10 NONAME
	_ZN13IRQIsdsClient16isdsIsLogoCachedEP9IRQPresetii @ 11 NONAME
	_ZN13IRQIsdsClient16staticMetaObjectE @ 12 NONAME DATA 16
	_ZN13IRQIsdsClient16syncPresetResultE18IRQSycPresetStatusP9IRQPreset @ 13 NONAME
	_ZN13IRQIsdsClient17isdsCancelRequestEv @ 14 NONAME
	_ZN13IRQIsdsClient17isdsListenRequestEib @ 15 NONAME
	_ZN13IRQIsdsClient17isdsSearchRequestERK7QString @ 16 NONAME
	_ZN13IRQIsdsClient18isdsChannelRequestEiRb @ 17 NONAME
	_ZN13IRQIsdsClient18operationExceptionE8IRQError @ 18 NONAME
	_ZN13IRQIsdsClient19channelItemsChangedEP5QListIP14IRQChannelItemE @ 19 NONAME
	_ZN13IRQIsdsClient19getStaticMetaObjectEv @ 20 NONAME
	_ZN13IRQIsdsClient19isdsCategoryRequestENS_25IRQIsdsClientInterfaceIDsERb @ 21 NONAME
	_ZN13IRQIsdsClient19isdsGetBrowseBannerER7QStringS1_ @ 22 NONAME
	_ZN13IRQIsdsClient19isdsIsChannelBannerEv @ 23 NONAME
	_ZN13IRQIsdsClient19isdsIsChannelCachedEi @ 24 NONAME
	_ZN13IRQIsdsClient20categoryItemsChangedEP5QListIP21IRQBrowseCategoryItemE @ 25 NONAME
	_ZN13IRQIsdsClient20isdsIsCategoryBannerEv @ 26 NONAME
	_ZN13IRQIsdsClient20isdsIsCategoryCachedENS_25IRQIsdsClientInterfaceIDsE @ 27 NONAME
	_ZN13IRQIsdsClient20presetLogoDownloadedEP9IRQPreset @ 28 NONAME
	_ZN13IRQIsdsClient23isdsLogoDownSendRequestEP9IRQPresetiii @ 29 NONAME
	_ZN13IRQIsdsClient23presetLogoDownloadErrorEv @ 30 NONAME
	_ZN13IRQIsdsClient25isdsLogoDownSendCacheLogoEv @ 31 NONAME
	_ZN13IRQIsdsClient26isdsLogoDownCheckCacheLogoERK7QStringRi @ 32 NONAME
	_ZN13IRQIsdsClient29isdsLogoDownCancelTransactionEv @ 33 NONAME
	_ZN13IRQIsdsClient4mRefE @ 34 NONAME DATA 4
	_ZN13IRQIsdsClient6mMutexE @ 35 NONAME DATA 4
	_ZN13IRQIsdsClient9mInstanceE @ 36 NONAME DATA 4
	_ZN13IRQIsdsClientC1Ev @ 37 NONAME
	_ZN13IRQIsdsClientC2Ev @ 38 NONAME
	_ZN13IRQIsdsClientD0Ev @ 39 NONAME
	_ZN13IRQIsdsClientD1Ev @ 40 NONAME
	_ZN13IRQIsdsClientD2Ev @ 41 NONAME
	_ZNK13IRQIsdsClient10metaObjectEv @ 42 NONAME
	_ZNK13IRQIsdsClient21isdsLogoDownIsRunningEv @ 43 NONAME
	_ZNK13IRQIsdsClient22isdsIsConstructSucceedEv @ 44 NONAME
	_ZTI13IRQIsdsClient @ 45 NONAME DATA 12
	_ZTV13IRQIsdsClient @ 46 NONAME DATA 56
