EXPORTS
	_ZN10IRQUtility10appendURLLERK9IRQPresetR13CIRIsdsPreset @ 1 NONAME
	_ZN10IRQUtility10isValidUrlERK7QString @ 2 NONAME
	_ZN10IRQUtility11openAdvLinkERK7QString @ 3 NONAME
	_ZN10IRQUtility12findAppByUidEi @ 4 NONAME
	_ZN10IRQUtility14launchAppByUidEi @ 5 NONAME
	_ZN10IRQUtility20convertSError2QErrorEiRi @ 6 NONAME
	_ZN10IRQUtility26convertCIRPreset2IRQPresetERK9CIRPresetR9IRQPreset @ 7 NONAME
	_ZN10IRQUtility29convertCIRIsdsPreset2IRQPrestERK13CIRIsdsPresetR9IRQPreset @ 8 NONAME
	_ZN10IRQUtility30convertIRQPreset2CIRIsdsPresetERK9IRQPresetR13CIRIsdsPreset @ 9 NONAME
	_ZN9IRQPreset11internalizeER11QDataStream @ 10 NONAME
	_ZN9IRQPreset12sortURLArrayEv @ 11 NONAME
	_ZN9IRQPreset13setUrlBitrateEjj @ 12 NONAME
	_ZN9IRQPreset19insertChannelServerERK19IRQChannelServerURL @ 13 NONAME
	_ZN9IRQPreset22clearChannelServerListEv @ 14 NONAME
	_ZN9IRQPresetC1Ev @ 15 NONAME
	_ZN9IRQPresetC2Ev @ 16 NONAME
	_ZN9IRQPresetD1Ev @ 17 NONAME
	_ZN9IRQPresetD2Ev @ 18 NONAME
	_ZN9IRQPresetaSERKS_ @ 19 NONAME
	_ZNK9IRQPreset11externalizeER11QDataStream @ 20 NONAME
	_ZNK9IRQPreset15getChannelUrlAtEiR7QString @ 21 NONAME
	_ZNK9IRQPreset17getChannelBitrateEjRj @ 22 NONAME
	_ZNK9IRQPreset17getURLsForBitrateEi @ 23 NONAME
	_ZNK9IRQPreset18getChannelURLCountEv @ 24 NONAME
	_ZNK9IRQPreset20getAvailableBitratesER5QListIiE @ 25 NONAME
	_ZNK9IRQPreset8isSortedEv @ 26 NONAME