EXPORTS
	?updateMaptileBySourceIdAndType@LocationDataLookupDb@@QAEXIIVQString@@@Z @ 1 NONAME ; void LocationDataLookupDb::updateMaptileBySourceIdAndType(unsigned int, unsigned int, class QString)
	?getEntries@LocationDataLookupDb@@QAEXAAV?$QList@VQLookupItem@@@@I@Z @ 2 NONAME ; void LocationDataLookupDb::getEntries(class QList<class QLookupItem> &, unsigned int)
	?updateEntryById@LocationDataLookupDb@@QAEXABVQLookupItem@@@Z @ 3 NONAME ; void LocationDataLookupDb::updateEntryById(class QLookupItem const &)
	?updateCalendarLocationById@LocationDataLookupDb@@QAEXIVQString@@@Z @ 4 NONAME ; void LocationDataLookupDb::updateCalendarLocationById(unsigned int, class QString)
	?findEntriesByLandmarkId@LocationDataLookupDb@@QAEXIAAV?$QList@VQLookupItem@@@@@Z @ 5 NONAME ; void LocationDataLookupDb::findEntriesByLandmarkId(unsigned int, class QList<class QLookupItem> &)
	?deleteCalendarEntry@LocationDataLookupDb@@QAEXI@Z @ 6 NONAME ; void LocationDataLookupDb::deleteCalendarEntry(unsigned int)
	?fillLookupEntry@LocationDataLookupDb@@AAEXAAVQSqlQuery@@AAVQLookupItem@@@Z @ 7 NONAME ; void LocationDataLookupDb::fillLookupEntry(class QSqlQuery &, class QLookupItem &)
	?open@LocationDataLookupDb@@QAE_NXZ @ 8 NONAME ; bool LocationDataLookupDb::open(void)
	?deleteEntryBySourceIdAndType@LocationDataLookupDb@@QAEXABVQLookupItem@@@Z @ 9 NONAME ; void LocationDataLookupDb::deleteEntryBySourceIdAndType(class QLookupItem const &)
	?getAddressDetails@LocationDataLookupDb@@QAE?AVQString@@II@Z @ 10 NONAME ; class QString LocationDataLookupDb::getAddressDetails(unsigned int, unsigned int)
	?updateEntryBySourceIdAndType@LocationDataLookupDb@@QAEXABVQLookupItem@@@Z @ 11 NONAME ; void LocationDataLookupDb::updateEntryBySourceIdAndType(class QLookupItem const &)
	??0LocationDataLookupDb@@QAE@PAVQObject@@@Z @ 12 NONAME ; LocationDataLookupDb::LocationDataLookupDb(class QObject *)
	?findEntryBySourceIdAndType@LocationDataLookupDb@@QAE_NAAVQLookupItem@@@Z @ 13 NONAME ; bool LocationDataLookupDb::findEntryBySourceIdAndType(class QLookupItem &)
	?getCount@LocationDataLookupDb@@QAEXAAV?$QList@H@@I@Z @ 14 NONAME ; void LocationDataLookupDb::getCount(class QList<int> &, unsigned int)
	??1LocationDataLookupDb@@UAE@XZ @ 15 NONAME ; LocationDataLookupDb::~LocationDataLookupDb(void)
	?createEntry@LocationDataLookupDb@@QAEXAAVQLookupItem@@@Z @ 16 NONAME ; void LocationDataLookupDb::createEntry(class QLookupItem &)
	?close@LocationDataLookupDb@@QAEXXZ @ 17 NONAME ; void LocationDataLookupDb::close(void)
	?findEntryById@LocationDataLookupDb@@QAE_NAAVQLookupItem@@@Z @ 18 NONAME ; bool LocationDataLookupDb::findEntryById(class QLookupItem &)
	??_ELocationDataLookupDb@@UAE@I@Z @ 19 NONAME ; LocationDataLookupDb::~LocationDataLookupDb(unsigned int)
	?updateEntryNameByIdAndType@LocationDataLookupDb@@QAEXIIVQString@@@Z @ 20 NONAME ; void LocationDataLookupDb::updateEntryNameByIdAndType(unsigned int, unsigned int, class QString)
	?getAllCalendarEntry@LocationDataLookupDb@@QAEXAAV?$QList@VQCalendarLocationDetails@@@@@Z @ 21 NONAME ; void LocationDataLookupDb::getAllCalendarEntry(class QList<class QCalendarLocationDetails> &)

