EXPORTS
	?deleteEntry@LookupMapTileDatabase@@QAEXAAVMaptileLookupItem@@@Z @ 1 NONAME ; void LookupMapTileDatabase::deleteEntry(class MaptileLookupItem &)
	?createEntry@LookupMapTileDatabase@@QAEXABVMaptileLookupItem@@@Z @ 2 NONAME ; void LookupMapTileDatabase::createEntry(class MaptileLookupItem const &)
	?tr@MapTileService@@SA?AVQString@@PBD0@Z @ 3 NONAME ; class QString MapTileService::tr(char const *, char const *)
	?readEntryFromMaptileDataBase@MapTileService@@AAEHHW4AddressType@1@AAVMaptileLookupItem@@AAH@Z @ 4 NONAME ; int MapTileService::readEntryFromMaptileDataBase(int, enum MapTileService::AddressType, class MaptileLookupItem &, int &)
	?getStaticMetaObject@MapTileService@@SAABUQMetaObject@@XZ @ 5 NONAME ; struct QMetaObject const & MapTileService::getStaticMetaObject(void)
	?maptileFetchingStatusUpdate@MapTileService@@IAEXHHH@Z @ 6 NONAME ; void MapTileService::maptileFetchingStatusUpdate(int, int, int)
	?getAllCalendarIds@LookupMapTileDatabase@@QAEXAAV?$QList@I@@@Z @ 7 NONAME ; void LookupMapTileDatabase::getAllCalendarIds(class QList<unsigned int> &)
	?qt_metacast@MapTileService@@UAEPAXPBD@Z @ 8 NONAME ; void * MapTileService::qt_metacast(char const *)
	??_ELookupMapTileDatabase@@UAE@I@Z @ 9 NONAME ; LookupMapTileDatabase::~LookupMapTileDatabase(unsigned int)
	?isLocationFeatureEnabled@MapTileService@@QAE_NW4AppType@1@@Z @ 10 NONAME ; bool MapTileService::isLocationFeatureEnabled(enum MapTileService::AppType)
	?resetEntry@LookupMapTileDatabase@@QAEXAAVMaptileLookupItem@@@Z @ 11 NONAME ; void LookupMapTileDatabase::resetEntry(class MaptileLookupItem &)
	?deleteMapTile@LookupMapTileDatabase@@QAEXABVMaptileLookupItem@@@Z @ 12 NONAME ; void LookupMapTileDatabase::deleteMapTile(class MaptileLookupItem const &)
	?trUtf8@MapTileService@@SA?AVQString@@PBD0H@Z @ 13 NONAME ; class QString MapTileService::trUtf8(char const *, char const *, int)
	??0MapTileService@@QAE@XZ @ 14 NONAME ; MapTileService::MapTileService(void)
	?tr@MapTileService@@SA?AVQString@@PBD0H@Z @ 15 NONAME ; class QString MapTileService::tr(char const *, char const *, int)
	?close@LookupMapTileDatabase@@QAEXXZ @ 16 NONAME ; void LookupMapTileDatabase::close(void)
	?findEntryByFilePath@LookupMapTileDatabase@@QAE_NABVQString@@@Z @ 17 NONAME ; bool LookupMapTileDatabase::findEntryByFilePath(class QString const &)
	?publishValue@MapTileService@@AAEXHW4AddressType@1@H@Z @ 18 NONAME ; void MapTileService::publishValue(int, enum MapTileService::AddressType, int)
	?findEntriesByMapTileFetchingState@LookupMapTileDatabase@@QAEXIAAV?$QList@VMaptileLookupItem@@@@@Z @ 19 NONAME ; void LookupMapTileDatabase::findEntriesByMapTileFetchingState(unsigned int, class QList<class MaptileLookupItem> &)
	?publishCalEntry@MapTileService@@AAEXH@Z @ 20 NONAME ; void MapTileService::publishCalEntry(int)
	?findNumberOfAddress@LookupMapTileDatabase@@QAEHAAH@Z @ 21 NONAME ; int LookupMapTileDatabase::findNumberOfAddress(int &)
	??_EMapTileService@@UAE@I@Z @ 22 NONAME ; MapTileService::~MapTileService(unsigned int)
	?getEntry@LookupMapTileDatabase@@QAE_NAAVMaptileLookupItem@@@Z @ 23 NONAME ; bool LookupMapTileDatabase::getEntry(class MaptileLookupItem &)
	??1MapTileService@@UAE@XZ @ 24 NONAME ; MapTileService::~MapTileService(void)
	?staticMetaObject@MapTileService@@2UQMetaObject@@B @ 25 NONAME ; struct QMetaObject const MapTileService::staticMetaObject
	??0LookupMapTileDatabase@@QAE@PAVQObject@@@Z @ 26 NONAME ; LookupMapTileDatabase::LookupMapTileDatabase(class QObject *)
	?open@LookupMapTileDatabase@@QAE_NXZ @ 27 NONAME ; bool LookupMapTileDatabase::open(void)
	??1LookupMapTileDatabase@@UAE@XZ @ 28 NONAME ; LookupMapTileDatabase::~LookupMapTileDatabase(void)
	?updateEntry@LookupMapTileDatabase@@QAEXABVMaptileLookupItem@@@Z @ 29 NONAME ; void LookupMapTileDatabase::updateEntry(class MaptileLookupItem const &)
	?findEntry@LookupMapTileDatabase@@QAE_NABVMaptileLookupItem@@@Z @ 30 NONAME ; bool LookupMapTileDatabase::findEntry(class MaptileLookupItem const &)
	?metaObject@MapTileService@@UBEPBUQMetaObject@@XZ @ 31 NONAME ; struct QMetaObject const * MapTileService::metaObject(void) const
	?getMapTileImage@MapTileService@@QAEHHW4AddressType@1@AAVQString@@V?$QFlags@W4Orientation@Qt@@@@@Z @ 32 NONAME ; int MapTileService::getMapTileImage(int, enum MapTileService::AddressType, class QString &, class QFlags<enum Qt::Orientation>)
	?setMaptileStatus@MapTileService@@QAEXXZ @ 33 NONAME ; void MapTileService::setMaptileStatus(void)
	?qt_metacall@MapTileService@@UAEHW4Call@QMetaObject@@HPAPAX@Z @ 34 NONAME ; int MapTileService::qt_metacall(enum QMetaObject::Call, int, void * *)
	?trUtf8@MapTileService@@SA?AVQString@@PBD0@Z @ 35 NONAME ; class QString MapTileService::trUtf8(char const *, char const *)
	?updateUserSetting@LookupMapTileDatabase@@QAEXABVMaptileLookupItem@@@Z @ 36 NONAME ; void LookupMapTileDatabase::updateUserSetting(class MaptileLookupItem const &)
	?keepExistingLocation@MapTileService@@QAEXHW4AddressType@1@_N@Z @ 37 NONAME ; void MapTileService::keepExistingLocation(int, enum MapTileService::AddressType, bool)

