EXPORTS
	_ZN11CCsDebugArr3PopEv @ 1 NONAME
	_ZN11CCsDebugArr4NewLEv @ 2 NONAME
	_ZN11CCsDebugArr4PushER8CCsDebug @ 3 NONAME
	_ZN11CCsDebugArr7IsEmptyEv @ 4 NONAME
	_ZN15CCsDebugWrapper16__LatencyMarkEndE11TRefByValueIK7TDesC16E @ 5 NONAME
	_ZN15CCsDebugWrapper19__LatencyMarkStartLE11TRefByValueIK7TDesC16E @ 6 NONAME
	_ZN20CCsConversationEntry10SetEntryIdEi @ 7 NONAME
	_ZN20CCsConversationEntry11CompareByIdERKS_S1_ @ 8 NONAME
	_ZN20CCsConversationEntry11SetContactLERK7TDesC16 @ 9 NONAME
	_ZN20CCsConversationEntry12InternalizeLER11RReadStream @ 10 NONAME
	_ZN20CCsConversationEntry12SetSendStateERKh @ 11 NONAME
	_ZN20CCsConversationEntry13SetTimeStampLEx @ 12 NONAME
	_ZN20CCsConversationEntry15SetDescriptionLERK7TDesC16 @ 13 NONAME
	_ZN20CCsConversationEntry16ChangeAttributesEtt @ 14 NONAME
	_ZN20CCsConversationEntry18SetConversationDirEh @ 15 NONAME
	_ZN20CCsConversationEntry21CompareByUnreadAttribERKS_S1_ @ 16 NONAME
	_ZN20CCsConversationEntry4NewLEv @ 17 NONAME
	_ZN20CCsConversationEntry7CompareERKS_S1_ @ 18 NONAME
	_ZN20CCsConversationEntry7SetTypeERKh @ 19 NONAME
	_ZN20CCsConversationEntryD0Ev @ 20 NONAME
	_ZN20CCsConversationEntryD1Ev @ 21 NONAME
	_ZN20CCsConversationEntryD2Ev @ 22 NONAME
	_ZN21CCsClientConversation12InternalizeLER11RReadStream @ 23 NONAME
	_ZN21CCsClientConversation12SetContactIdEl @ 24 NONAME
	_ZN21CCsClientConversation15SetDisplayNameLEPK7HBufC16 @ 25 NONAME
	_ZN21CCsClientConversation18CompareByTimeStampERKS_S1_ @ 26 NONAME
	_ZN21CCsClientConversation21SetConversationEntryLEPK20CCsConversationEntry @ 27 NONAME
	_ZN21CCsClientConversation21SetUnreadMessageCountEt @ 28 NONAME
	_ZN21CCsClientConversation22SetConversationEntryIdEi @ 29 NONAME
	_ZN21CCsClientConversation28CompareByConversationEntryIdERKS_S1_ @ 30 NONAME
	_ZN21CCsClientConversation4NewLEv @ 31 NONAME
	_ZN21CCsClientConversationD0Ev @ 32 NONAME
	_ZN21CCsClientConversationD1Ev @ 33 NONAME
	_ZN21CCsClientConversationD2Ev @ 34 NONAME
	_ZN8CCsDebug4NewLEv @ 35 NONAME
	_ZNK20CCsConversationEntry11DescriptionEv @ 36 NONAME
	_ZNK20CCsConversationEntry12ExternalizeLER12RWriteStream @ 37 NONAME
	_ZNK20CCsConversationEntry12GetSendStateEv @ 38 NONAME
	_ZNK20CCsConversationEntry14IsAttributeSetEt @ 39 NONAME
	_ZNK20CCsConversationEntry15ConversationDirEv @ 40 NONAME
	_ZNK20CCsConversationEntry6CloneLEv @ 41 NONAME
	_ZNK20CCsConversationEntry7ContactEv @ 42 NONAME
	_ZNK20CCsConversationEntry7EntryIdEv @ 43 NONAME
	_ZNK20CCsConversationEntry7GetTypeEv @ 44 NONAME
	_ZNK20CCsConversationEntry9TimeStampEv @ 45 NONAME
	_ZNK21CCsClientConversation12ExternalizeLER12RWriteStream @ 46 NONAME
	_ZNK21CCsClientConversation12GetContactIdEv @ 47 NONAME
	_ZNK21CCsClientConversation14GetDisplayNameEv @ 48 NONAME
	_ZNK21CCsClientConversation20GetConversationEntryEv @ 49 NONAME
	_ZNK21CCsClientConversation21GetUnreadMessageCountEv @ 50 NONAME
	_ZNK21CCsClientConversation22GetConversationEntryIdEv @ 51 NONAME
	_ZNK21CCsClientConversation6CloneLEv @ 52 NONAME
	_ZTI11CCsDebugArr @ 53 NONAME
	_ZTI20CCsConversationEntry @ 54 NONAME
	_ZTI21CCsClientConversation @ 55 NONAME
	_ZTV11CCsDebugArr @ 56 NONAME
	_ZTV20CCsConversationEntry @ 57 NONAME
	_ZTV21CCsClientConversation @ 58 NONAME

