EXPORTS
	?sendAsyncStatus@VideoCollectionWrapper@@QAEXHAAVQVariant@@@Z @ 1 NONAME ; void VideoCollectionWrapper::sendAsyncStatus(int, class QVariant &)
	?doSorting@VideoProxyModelGeneric@@QAEXHW4SortOrder@Qt@@_N@Z @ 2 NONAME ; void VideoProxyModelGeneric::doSorting(int, enum Qt::SortOrder, bool)
	?addItemsInAlbum@VideoProxyModelGeneric@@QAEHAAVTMPXItemId@@ABV?$QList@VTMPXItemId@@@@@Z @ 3 NONAME ; int VideoProxyModelGeneric::addItemsInAlbum(class TMPXItemId &, class QList<class TMPXItemId> const &)
	?trUtf8@VideoThumbnailData@@SA?AVQString@@PBD0@Z @ 4 NONAME ; class QString VideoThumbnailData::trUtf8(char const *, char const *)
	?tr@VideoProxyModelGeneric@@SA?AVQString@@PBD0H@Z @ 5 NONAME ; class QString VideoProxyModelGeneric::tr(char const *, char const *, int)
	?instance@VideoCollectionWrapper@@SAAAV1@XZ @ 6 NONAME ; class VideoCollectionWrapper & VideoCollectionWrapper::instance(void)
	?qt_metacall@VideoThumbnailData@@UAEHW4Call@QMetaObject@@HPAPAX@Z @ 7 NONAME ; int VideoThumbnailData::qt_metacall(enum QMetaObject::Call, int, void * *)
	?backgroundFetchingEnabled@VideoThumbnailData@@QAE_NXZ @ 8 NONAME ; bool VideoThumbnailData::backgroundFetchingEnabled(void)
	?removeItemsFromAlbum@VideoProxyModelGeneric@@QAEHAAVTMPXItemId@@ABV?$QList@VTMPXItemId@@@@@Z @ 9 NONAME ; int VideoProxyModelGeneric::removeItemsFromAlbum(class TMPXItemId &, class QList<class TMPXItemId> const &)
	?openItem@VideoProxyModelGeneric@@UAEHVTMPXItemId@@@Z @ 10 NONAME ; int VideoProxyModelGeneric::openItem(class TMPXItemId)
	?getMediaIdAtIndex@VideoProxyModelGeneric@@QBEABVTMPXItemId@@ABVQModelIndex@@@Z @ 11 NONAME ; class TMPXItemId const & VideoProxyModelGeneric::getMediaIdAtIndex(class QModelIndex const &) const
	??1VideoThumbnailData@@EAE@XZ @ 12 NONAME ; VideoThumbnailData::~VideoThumbnailData(void)
	??_EVideoThumbnailData@@UAE@I@Z @ 13 NONAME ; VideoThumbnailData::~VideoThumbnailData(unsigned int)
	?shortDetailsReady@VideoProxyModelGeneric@@IAEXVTMPXItemId@@@Z @ 14 NONAME ; void VideoProxyModelGeneric::shortDetailsReady(class TMPXItemId)
	?fetchItemDetails@VideoProxyModelGeneric@@QAEHABVQModelIndex@@@Z @ 15 NONAME ; int VideoProxyModelGeneric::fetchItemDetails(class QModelIndex const &)
	??1VideoProxyModelGeneric@@UAE@XZ @ 16 NONAME ; VideoProxyModelGeneric::~VideoProxyModelGeneric(void)
	?qt_metacast@VideoCollectionWrapper@@UAEPAXPBD@Z @ 17 NONAME ; void * VideoCollectionWrapper::qt_metacast(char const *)
	?disconnectSignals@VideoProxyModelGeneric@@MAEXXZ @ 18 NONAME ; void VideoProxyModelGeneric::disconnectSignals(void)
	?qt_metacast@VideoProxyModelGeneric@@UAEPAXPBD@Z @ 19 NONAME ; void * VideoProxyModelGeneric::qt_metacast(char const *)
	??0VideoProxyModelGeneric@@QAE@PAVQObject@@@Z @ 20 NONAME ; VideoProxyModelGeneric::VideoProxyModelGeneric(class QObject *)
	?deleteItems@VideoProxyModelGeneric@@QAEHABV?$QList@VQModelIndex@@@@@Z @ 21 NONAME ; int VideoProxyModelGeneric::deleteItems(class QList<class QModelIndex> const &)
	?instance@VideoThumbnailData@@SAAAV1@XZ @ 22 NONAME ; class VideoThumbnailData & VideoThumbnailData::instance(void)
	?qt_metacall@VideoProxyModelGeneric@@UAEHW4Call@QMetaObject@@HPAPAX@Z @ 23 NONAME ; int VideoProxyModelGeneric::qt_metacall(enum QMetaObject::Call, int, void * *)
	??0VideoCollectionWrapper@@AAE@XZ @ 24 NONAME ; VideoCollectionWrapper::VideoCollectionWrapper(void)
	?startBackgroundFetching@VideoThumbnailData@@QAEXPAVVideoProxyModelGeneric@@H@Z @ 25 NONAME ; void VideoThumbnailData::startBackgroundFetching(class VideoProxyModelGeneric *, int)
	?metaObject@VideoCollectionWrapper@@UBEPBUQMetaObject@@XZ @ 26 NONAME ; struct QMetaObject const * VideoCollectionWrapper::metaObject(void) const
	?setAlbumInUse@VideoProxyModelGeneric@@UAEXABVTMPXItemId@@@Z @ 27 NONAME ; void VideoProxyModelGeneric::setAlbumInUse(class TMPXItemId const &)
	?staticMetaObject@VideoProxyModelGeneric@@2UQMetaObject@@B @ 28 NONAME ; struct QMetaObject const VideoProxyModelGeneric::staticMetaObject
	?getStaticMetaObject@VideoCollectionWrapper@@SAABUQMetaObject@@XZ @ 29 NONAME ; struct QMetaObject const & VideoCollectionWrapper::getStaticMetaObject(void)
	?getStaticMetaObject@VideoProxyModelGeneric@@SAABUQMetaObject@@XZ @ 30 NONAME ; struct QMetaObject const & VideoProxyModelGeneric::getStaticMetaObject(void)
	?resolveAlbumName@VideoProxyModelGeneric@@QBE?AVQString@@ABV2@@Z @ 31 NONAME ; class QString VideoProxyModelGeneric::resolveAlbumName(class QString const &) const
	?lessThan@VideoProxyModelGeneric@@MBE_NABVQModelIndex@@0@Z @ 32 NONAME ; bool VideoProxyModelGeneric::lessThan(class QModelIndex const &, class QModelIndex const &) const
	?getCollectionsModel@VideoCollectionWrapper@@QAEPAVVideoProxyModelGeneric@@XZ @ 33 NONAME ; class VideoProxyModelGeneric * VideoCollectionWrapper::getCollectionsModel(void)
	?connectSignals@VideoProxyModelGeneric@@MAE_NXZ @ 34 NONAME ; bool VideoProxyModelGeneric::connectSignals(void)
	??_EVideoCollectionWrapper@@UAE@I@Z @ 35 NONAME ; VideoCollectionWrapper::~VideoCollectionWrapper(unsigned int)
	?getThumbnail@VideoThumbnailData@@QAEPBVQIcon@@ABVTMPXItemId@@@Z @ 36 NONAME ; class QIcon const * VideoThumbnailData::getThumbnail(class TMPXItemId const &)
	?back@VideoProxyModelGeneric@@QAEHXZ @ 37 NONAME ; int VideoProxyModelGeneric::back(void)
	?getStaticMetaObject@VideoThumbnailData@@SAABUQMetaObject@@XZ @ 38 NONAME ; struct QMetaObject const & VideoThumbnailData::getStaticMetaObject(void)
	?qt_metacall@VideoCollectionWrapper@@UAEHW4Call@QMetaObject@@HPAPAX@Z @ 39 NONAME ; int VideoCollectionWrapper::qt_metacall(enum QMetaObject::Call, int, void * *)
	?trUtf8@VideoThumbnailData@@SA?AVQString@@PBD0H@Z @ 40 NONAME ; class QString VideoThumbnailData::trUtf8(char const *, char const *, int)
	?setGenericIdFilter@VideoProxyModelGeneric@@UAEXABVTMPXItemId@@_N@Z @ 41 NONAME ; void VideoProxyModelGeneric::setGenericIdFilter(class TMPXItemId const &, bool)
	?enableBackgroundFetching@VideoThumbnailData@@QAEX_N@Z @ 42 NONAME ; void VideoThumbnailData::enableBackgroundFetching(bool)
	?trUtf8@VideoProxyModelGeneric@@SA?AVQString@@PBD0H@Z @ 43 NONAME ; class QString VideoProxyModelGeneric::trUtf8(char const *, char const *, int)
	?getMediaFilePathForId@VideoProxyModelGeneric@@QAE?AVQString@@ABVTMPXItemId@@@Z @ 44 NONAME ; class QString VideoProxyModelGeneric::getMediaFilePathForId(class TMPXItemId const &)
	?getGenericModel@VideoCollectionWrapper@@QAEPAVVideoProxyModelGeneric@@XZ @ 45 NONAME ; class VideoProxyModelGeneric * VideoCollectionWrapper::getGenericModel(void)
	?getSorting@VideoProxyModelGeneric@@QAEXAAHAAW4SortOrder@Qt@@@Z @ 46 NONAME ; void VideoProxyModelGeneric::getSorting(int &, enum Qt::SortOrder &)
	?tr@VideoCollectionWrapper@@SA?AVQString@@PBD0H@Z @ 47 NONAME ; class QString VideoCollectionWrapper::tr(char const *, char const *, int)
	?addNewAlbum@VideoProxyModelGeneric@@QAE?AVTMPXItemId@@ABVQString@@@Z @ 48 NONAME ; class TMPXItemId VideoProxyModelGeneric::addNewAlbum(class QString const &)
	?renameItem@VideoProxyModelGeneric@@QAEHABVTMPXItemId@@ABVQString@@@Z @ 49 NONAME ; int VideoProxyModelGeneric::renameItem(class TMPXItemId const &, class QString const &)
	?asyncStatus@VideoCollectionWrapper@@IAEXHAAVQVariant@@@Z @ 50 NONAME ; void VideoCollectionWrapper::asyncStatus(int, class QVariant &)
	?getOpenItem@VideoProxyModelGeneric@@UBE?AVTMPXItemId@@XZ @ 51 NONAME ; class TMPXItemId VideoProxyModelGeneric::getOpenItem(void) const
	?removeThumbnail@VideoThumbnailData@@QAE_NABVTMPXItemId@@@Z @ 52 NONAME ; bool VideoThumbnailData::removeThumbnail(class TMPXItemId const &)
	?trUtf8@VideoCollectionWrapper@@SA?AVQString@@PBD0@Z @ 53 NONAME ; class QString VideoCollectionWrapper::trUtf8(char const *, char const *)
	?thumbnailsFetched@VideoThumbnailData@@IAEXAAV?$QList@VTMPXItemId@@@@@Z @ 54 NONAME ; void VideoThumbnailData::thumbnailsFetched(class QList<class TMPXItemId> &)
	?trUtf8@VideoProxyModelGeneric@@SA?AVQString@@PBD0@Z @ 55 NONAME ; class QString VideoProxyModelGeneric::trUtf8(char const *, char const *)
	?metaObject@VideoThumbnailData@@UBEPBUQMetaObject@@XZ @ 56 NONAME ; struct QMetaObject const * VideoThumbnailData::metaObject(void) const
	?tr@VideoThumbnailData@@SA?AVQString@@PBD0H@Z @ 57 NONAME ; class QString VideoThumbnailData::tr(char const *, char const *, int)
	?indexOfId@VideoProxyModelGeneric@@QAE?AVQModelIndex@@ABVTMPXItemId@@@Z @ 58 NONAME ; class QModelIndex VideoProxyModelGeneric::indexOfId(class TMPXItemId const &)
	?initialize@VideoProxyModelGeneric@@UAEHPAVVideoListDataModel@@@Z @ 59 NONAME ; int VideoProxyModelGeneric::initialize(class VideoListDataModel *)
	?getAllVideosModel@VideoCollectionWrapper@@QAEPAVVideoProxyModelGeneric@@XZ @ 60 NONAME ; class VideoProxyModelGeneric * VideoCollectionWrapper::getAllVideosModel(void)
	?processSortingSlot@VideoProxyModelGeneric@@AAEXXZ @ 61 NONAME ; void VideoProxyModelGeneric::processSortingSlot(void)
	?qt_metacast@VideoThumbnailData@@UAEPAXPBD@Z @ 62 NONAME ; void * VideoThumbnailData::qt_metacast(char const *)
	?getCollectionContentModel@VideoCollectionWrapper@@QAEPAVVideoProxyModelGeneric@@XZ @ 63 NONAME ; class VideoProxyModelGeneric * VideoCollectionWrapper::getCollectionContentModel(void)
	?tr@VideoCollectionWrapper@@SA?AVQString@@PBD0@Z @ 64 NONAME ; class QString VideoCollectionWrapper::tr(char const *, char const *)
	?metaObject@VideoProxyModelGeneric@@UBEPBUQMetaObject@@XZ @ 65 NONAME ; struct QMetaObject const * VideoProxyModelGeneric::metaObject(void) const
	?filterAcceptsRow@VideoProxyModelGeneric@@MBE_NHABVQModelIndex@@@Z @ 66 NONAME ; bool VideoProxyModelGeneric::filterAcceptsRow(int, class QModelIndex const &) const
	?tr@VideoProxyModelGeneric@@SA?AVQString@@PBD0@Z @ 67 NONAME ; class QString VideoProxyModelGeneric::tr(char const *, char const *)
	?modelSorted@VideoProxyModelGeneric@@IAEXXZ @ 68 NONAME ; void VideoProxyModelGeneric::modelSorted(void)
	?enableThumbnailCreation@VideoThumbnailData@@QAEX_N@Z @ 69 NONAME ; void VideoThumbnailData::enableThumbnailCreation(bool)
	??_EVideoProxyModelGeneric@@UAE@I@Z @ 70 NONAME ; VideoProxyModelGeneric::~VideoProxyModelGeneric(unsigned int)
	?freeThumbnailData@VideoThumbnailData@@QAEXXZ @ 71 NONAME ; void VideoThumbnailData::freeThumbnailData(void)
	?processSorting@VideoProxyModelGeneric@@MAEXXZ @ 72 NONAME ; void VideoProxyModelGeneric::processSorting(void)
	?open@VideoProxyModelGeneric@@QAEHW4TCollectionLevels@VideoCollectionCommon@@@Z @ 73 NONAME ; int VideoProxyModelGeneric::open(enum VideoCollectionCommon::TCollectionLevels)
	?staticMetaObject@VideoCollectionWrapper@@2UQMetaObject@@B @ 74 NONAME ; struct QMetaObject const VideoCollectionWrapper::staticMetaObject
	?tr@VideoThumbnailData@@SA?AVQString@@PBD0@Z @ 75 NONAME ; class QString VideoThumbnailData::tr(char const *, char const *)
	??1VideoCollectionWrapper@@EAE@XZ @ 76 NONAME ; VideoCollectionWrapper::~VideoCollectionWrapper(void)
	?trUtf8@VideoCollectionWrapper@@SA?AVQString@@PBD0H@Z @ 77 NONAME ; class QString VideoCollectionWrapper::trUtf8(char const *, char const *, int)
	?staticMetaObject@VideoThumbnailData@@2UQMetaObject@@B @ 78 NONAME ; struct QMetaObject const VideoThumbnailData::staticMetaObject
	??0VideoThumbnailData@@AAE@XZ @ 79 NONAME ; VideoThumbnailData::VideoThumbnailData(void)
	?removeAlbums@VideoProxyModelGeneric@@QAEHABV?$QList@VQModelIndex@@@@@Z @ 80 NONAME ; int VideoProxyModelGeneric::removeAlbums(class QList<class QModelIndex> const &)

