EXPORTS
	_ZN11CAddComment4NewLERK16CDesC16ArrayFlatR13CMsvTestUtils @ 1 NONAME
	_ZN11CAddComment6StartLER14TRequestStatus @ 2 NONAME
	_ZN11CAddCommentD0Ev @ 3 NONAME
	_ZN11CAddCommentD1Ev @ 4 NONAME
	_ZN11CAddCommentD2Ev @ 5 NONAME
	_ZN11CTestScript11GetSectionLERK7TDesC16 @ 6 NONAME
	_ZN11CTestScript4NewLER3RFs @ 7 NONAME
	_ZN11CTestScript8GetLineLER5TBuf8ILi128EEi @ 8 NONAME
	_ZN11CTestScript9LoadFileLERK7TDesC16 @ 9 NONAME
	_ZN11CTestScriptD0Ev @ 10 NONAME
	_ZN11CTestScriptD1Ev @ 11 NONAME
	_ZN11CTestScriptD2Ev @ 12 NONAME
	_ZN12CSelectEntry4NewLERK7TDesC16RKlP18CMsvEntrySelectionR13CMsvTestUtils @ 13 NONAME
	_ZN12CSelectEntry4NewLERK7TDesC16RKlPlR13CMsvTestUtils @ 14 NONAME
	_ZN12CSelectEntry6StartLER14TRequestStatus @ 15 NONAME
	_ZN12CSelectEntryD0Ev @ 16 NONAME
	_ZN12CSelectEntryD1Ev @ 17 NONAME
	_ZN12CSelectEntryD2Ev @ 18 NONAME
	_ZN12CTestSection11AddCommandLERK5TBuf8ILi128EEii @ 19 NONAME
	_ZN12CTestSection11NextCommandEv @ 20 NONAME
	_ZN12CTestSection4NewLEiRK7TDesC16i @ 21 NONAME
	_ZN12CTestSectionD0Ev @ 22 NONAME
	_ZN12CTestSectionD1Ev @ 23 NONAME
	_ZN12CTestSectionD2Ev @ 24 NONAME
	_ZN13CCheckNewFlag6StartLER14TRequestStatus @ 25 NONAME
	_ZN13CCheckNewFlagC1EiiR18CMsvEntrySelectionR13CMsvTestUtils @ 26 NONAME
	_ZN13CCheckNewFlagC2EiiR18CMsvEntrySelectionR13CMsvTestUtils @ 27 NONAME
	_ZN13CGoClientSide6StartLER14TRequestStatus @ 28 NONAME
	_ZN13CGoClientSideC1ER13CMsvTestUtils @ 29 NONAME
	_ZN13CGoClientSideC2ER13CMsvTestUtils @ 30 NONAME
	_ZN13CGoServerSide6StartLER14TRequestStatus @ 31 NONAME
	_ZN13CGoServerSideC1ER13CMsvTestUtils @ 32 NONAME
	_ZN13CGoServerSideC2ER13CMsvTestUtils @ 33 NONAME
	_ZN13CMsvTestEntry11TestVisibleEi @ 34 NONAME
	_ZN13CMsvTestEntry12TestCompleteEi @ 35 NONAME
	_ZN13CMsvTestEntry6StartLER14TRequestStatus @ 36 NONAME
	_ZN13CMsvTestEntryC1ER14CMsvClientTest @ 37 NONAME
	_ZN13CMsvTestEntryC2ER14CMsvClientTest @ 38 NONAME
	_ZN14CCheckBodyText4NewLEiR7TDesC16R18CMsvEntrySelectionR13CMsvTestUtils @ 39 NONAME
	_ZN14CCheckBodyText6StartLER14TRequestStatus @ 40 NONAME
	_ZN14CCheckBodyTextD0Ev @ 41 NONAME
	_ZN14CCheckBodyTextD1Ev @ 42 NONAME
	_ZN14CCheckBodyTextD2Ev @ 43 NONAME
	_ZN14CCheckPriority6StartLER14TRequestStatus @ 44 NONAME
	_ZN14CCheckPriorityC1EiiR18CMsvEntrySelectionR13CMsvTestUtils @ 45 NONAME
	_ZN14CCheckPriorityC2EiiR18CMsvEntrySelectionR13CMsvTestUtils @ 46 NONAME
	_ZN14CCopySelection4RunLEv @ 47 NONAME
	_ZN14CCopySelection6StartLER14TRequestStatus @ 48 NONAME
	_ZN14CCopySelection8DoCancelEv @ 49 NONAME
	_ZN14CCopySelectionC1ER14CMsvClientTest @ 50 NONAME
	_ZN14CCopySelectionC2ER14CMsvClientTest @ 51 NONAME
	_ZN14CCopySelectionD0Ev @ 52 NONAME
	_ZN14CCopySelectionD1Ev @ 53 NONAME
	_ZN14CCopySelectionD2Ev @ 54 NONAME
	_ZN14CMoveSelection4RunLEv @ 55 NONAME
	_ZN14CMoveSelection6StartLER14TRequestStatus @ 56 NONAME
	_ZN14CMoveSelection8DoCancelEv @ 57 NONAME
	_ZN14CMoveSelectionC1ER14CMsvClientTest @ 58 NONAME
	_ZN14CMoveSelectionC2ER14CMsvClientTest @ 59 NONAME
	_ZN14CMoveSelectionD0Ev @ 60 NONAME
	_ZN14CMoveSelectionD1Ev @ 61 NONAME
	_ZN14CMoveSelectionD2Ev @ 62 NONAME
	_ZN14CMsvClientTest10ConstructLEv @ 63 NONAME
	_ZN14CMsvClientTest12MsvTestUtilsEv @ 64 NONAME
	_ZN14CMsvClientTest16CurrentOperationEv @ 65 NONAME
	_ZN14CMsvClientTest19SetCurrentOperationEP13CMsvOperation @ 66 NONAME
	_ZN14CMsvClientTest4NewLEP13CMsvTestUtilsR5RTest @ 67 NONAME
	_ZN14CMsvClientTest4NewLER13CMsvTestUtilsR5RTest @ 68 NONAME
	_ZN14CMsvClientTest5ResetEv @ 69 NONAME
	_ZN14CMsvClientTest8DoCancelEv @ 70 NONAME
	_ZN14CMsvClientTestC1EP13CMsvTestUtilsR5RTest @ 71 NONAME
	_ZN14CMsvClientTestC1ER13CMsvTestUtilsR5RTest @ 72 NONAME
	_ZN14CMsvClientTestC2EP13CMsvTestUtilsR5RTest @ 73 NONAME
	_ZN14CMsvClientTestC2ER13CMsvTestUtilsR5RTest @ 74 NONAME
	_ZN14CMsvClientTestD0Ev @ 75 NONAME
	_ZN14CMsvClientTestD1Ev @ 76 NONAME
	_ZN14CMsvClientTestD2Ev @ 77 NONAME
	_ZN14MBaseTestState12SetDebugInfoERK14TTestDebugInfo @ 78 NONAME
	_ZN14MBaseTestStateD0Ev @ 79 NONAME
	_ZN14MBaseTestStateD1Ev @ 80 NONAME
	_ZN14MBaseTestStateD2Ev @ 81 NONAME
	_ZN14TTestDebugInfo10LineNumberEv @ 82 NONAME
	_ZN14TTestDebugInfo13CommandNameLCEv @ 83 NONAME
	_ZN14TTestDebugInfo13SectionNameLCEv @ 84 NONAME
	_ZN14TTestDebugInfo17TestFailedStringLEi @ 85 NONAME
	_ZN14TTestDebugInfo17TestHarnessNameLCEv @ 86 NONAME
	_ZN14TTestDebugInfo17TestStartStringLCEv @ 87 NONAME
	_ZN14TTestDebugInfo18SetTestHarnessNameEi @ 88 NONAME
	_ZN14TTestDebugInfo20TestCompleteStringLCEv @ 89 NONAME
	_ZN14TTestDebugInfoC1ER11CTestScriptii @ 90 NONAME
	_ZN14TTestDebugInfoC1ER11CTestScriptiii @ 91 NONAME
	_ZN14TTestDebugInfoC1Ev @ 92 NONAME
	_ZN14TTestDebugInfoC2ER11CTestScriptii @ 93 NONAME
	_ZN14TTestDebugInfoC2ER11CTestScriptiii @ 94 NONAME
	_ZN14TTestDebugInfoC2Ev @ 95 NONAME
	_ZN16CActiveTestState8RunErrorEi @ 96 NONAME
	_ZN16CActiveTestStateC2Ei @ 97 NONAME
	_ZN16CBaseTestHarness10ConstructLEv @ 98 NONAME
	_ZN16CBaseTestHarness11LogCommentLERK7TDesC16 @ 99 NONAME
	_ZN16CBaseTestHarness11TestConsoleEv @ 100 NONAME
	_ZN16CBaseTestHarness21SetHeapFailureTestingEi @ 101 NONAME
	_ZN16CBaseTestHarness4RunLEv @ 102 NONAME
	_ZN16CBaseTestHarness6StartLER14TRequestStatus @ 103 NONAME
	_ZN16CBaseTestHarness8DoCancelEv @ 104 NONAME
	_ZN16CBaseTestHarness8RunErrorEi @ 105 NONAME
	_ZN16CBaseTestHarness9AddStateLEP14MBaseTestState14TTestDebugInfo @ 106 NONAME
	_ZN16CBaseTestHarnessC1ER5RTest @ 107 NONAME
	_ZN16CBaseTestHarnessC2ER5RTest @ 108 NONAME
	_ZN16CBaseTestHarnessD0Ev @ 109 NONAME
	_ZN16CBaseTestHarnessD1Ev @ 110 NONAME
	_ZN16CBaseTestHarnessD2Ev @ 111 NONAME
	_ZN16CCheckAttachment6StartLER14TRequestStatus @ 112 NONAME
	_ZN16CCheckAttachmentC1EiiR18CMsvEntrySelectionR13CMsvTestUtils @ 113 NONAME
	_ZN16CCheckAttachmentC2EiiR18CMsvEntrySelectionR13CMsvTestUtils @ 114 NONAME
	_ZN16CDeleteSelection4RunLEv @ 115 NONAME
	_ZN16CDeleteSelection6StartLER14TRequestStatus @ 116 NONAME
	_ZN16CDeleteSelection8DoCancelEv @ 117 NONAME
	_ZN16CDeleteSelectionC1ER14CMsvClientTest @ 118 NONAME
	_ZN16CDeleteSelectionC2ER14CMsvClientTest @ 119 NONAME
	_ZN16CDeleteSelectionD0Ev @ 120 NONAME
	_ZN16CDeleteSelectionD1Ev @ 121 NONAME
	_ZN16CDeleteSelectionD2Ev @ 122 NONAME
	_ZN16CMainTestHarness10ConstructLEv @ 123 NONAME
	_ZN16CMainTestHarness4NewLER5RTest @ 124 NONAME
	_ZN16CMainTestHarness6StartLER14TRequestStatus @ 125 NONAME
	_ZN16CMainTestHarnessC1ER5RTest @ 126 NONAME
	_ZN16CMainTestHarnessC2ER5RTest @ 127 NONAME
	_ZN16CMsvSelectParser4NewLER14CMsvClientTest @ 128 NONAME
	_ZN16CMsvSelectParser8ProcessLEv @ 129 NONAME
	_ZN16CSelectEntryById6StartLER14TRequestStatus @ 130 NONAME
	_ZN16CSelectEntryByIdC1ElRlR13CMsvTestUtils @ 131 NONAME
	_ZN16CSelectEntryByIdC2ElRlR13CMsvTestUtils @ 132 NONAME
	_ZN17CDumpMessageStore6StartLER14TRequestStatus @ 133 NONAME
	_ZN17CDumpMessageStoreC1ER13CMsvTestUtils @ 134 NONAME
	_ZN17CDumpMessageStoreC2ER13CMsvTestUtils @ 135 NONAME
	_ZN18CBaseCommandParser10ConstructLEv @ 136 NONAME
	_ZN18CBaseCommandParser11AddCommandLERK7TDesC16 @ 137 NONAME
	_ZN18CBaseCommandParser23CheckNumberOfArgumentsLEi @ 138 NONAME
	_ZN18CBaseCommandParser5ErrorEv @ 139 NONAME
	_ZN18CBaseCommandParser6ParseLERK7TDesC1614TTestDebugInfo @ 140 NONAME
	_ZN18CBaseCommandParser9SetErrorLERK7TDesC16 @ 141 NONAME
	_ZN18CBaseCommandParserC2Ev @ 142 NONAME
	_ZN18CBaseCommandParserD0Ev @ 143 NONAME
	_ZN18CBaseCommandParserD1Ev @ 144 NONAME
	_ZN18CBaseCommandParserD2Ev @ 145 NONAME
	_ZN18CBaseSectionParser10ConstructLERK7TDesC16 @ 146 NONAME
	_ZN18CBaseSectionParser17AddCommandParserLEP18CBaseCommandParser @ 147 NONAME
	_ZN18CBaseSectionParser6ParseLEv @ 148 NONAME
	_ZN18CBaseSectionParserC2ER11CTestScript @ 149 NONAME
	_ZN18CBaseSectionParserD0Ev @ 150 NONAME
	_ZN18CBaseSectionParserD1Ev @ 151 NONAME
	_ZN18CBaseSectionParserD2Ev @ 152 NONAME
	_ZN18CMainSectionParser10ConstructLEv @ 153 NONAME
	_ZN18CMainSectionParser11LogCommentLERK7TDesC16 @ 154 NONAME
	_ZN18CMainSectionParser4NewLER16CMainTestHarnessR11CTestScript @ 155 NONAME
	_ZN18CMainSectionParserC1ER16CMainTestHarnessR11CTestScript @ 156 NONAME
	_ZN18CMainSectionParserC2ER16CMainTestHarnessR11CTestScript @ 157 NONAME
	_ZN18CSelectAllMessages6StartLER14TRequestStatus @ 158 NONAME
	_ZN18CSelectAllMessagesC1ERlR18CMsvEntrySelectionR13CMsvTestUtils @ 159 NONAME
	_ZN18CSelectAllMessagesC2ERlR18CMsvEntrySelectionR13CMsvTestUtils @ 160 NONAME
	_ZN19CCheckMessageFolder6StartLER14TRequestStatus @ 161 NONAME
	_ZN19CCheckMessageFolderC1ERK7TDesC16R13CMsvTestUtils @ 162 NONAME
	_ZN19CCheckMessageFolderC2ERK7TDesC16R13CMsvTestUtils @ 163 NONAME
	_ZN19CCleanMessageFolder6StartLER14TRequestStatus @ 164 NONAME
	_ZN19CCleanMessageFolderC1ER13CMsvTestUtils @ 165 NONAME
	_ZN19CCleanMessageFolderC2ER13CMsvTestUtils @ 166 NONAME
	_ZN19CMsvOperationParser4NewLER14CMsvClientTest @ 167 NONAME
	_ZN19CMsvOperationParser8ProcessLEv @ 168 NONAME
	_ZN19CMsvUtilitiesParser4NewLER14CMsvClientTest @ 169 NONAME
	_ZN19CMsvUtilitiesParser8ProcessLEv @ 170 NONAME
	_ZN19CResetMessageServer6StartLER14TRequestStatus @ 171 NONAME
	_ZN19CResetMessageServerC1ER14CMsvClientTest @ 172 NONAME
	_ZN19CResetMessageServerC2ER14CMsvClientTest @ 173 NONAME
	_ZN20CCheckSelectionCount6StartLER14TRequestStatus @ 174 NONAME
	_ZN20CCheckSelectionCountC1EiR18CMsvEntrySelectionR13CMsvTestUtils @ 175 NONAME
	_ZN20CCheckSelectionCountC2EiR18CMsvEntrySelectionR13CMsvTestUtils @ 176 NONAME
	_ZN22CCheckRemoteFolderSize6StartLER14TRequestStatus @ 177 NONAME
	_ZN22CCheckRemoteFolderSizeC1EiR13CMsvTestUtils @ 178 NONAME
	_ZN22CCheckRemoteFolderSizeC2EiR13CMsvTestUtils @ 179 NONAME
	_ZN22CSelectLastInSelection6StartLER14TRequestStatus @ 180 NONAME
	_ZN22CSelectLastInSelectionC1EiR18CMsvEntrySelectionR13CMsvTestUtils @ 181 NONAME
	_ZN22CSelectLastInSelectionC2EiR18CMsvEntrySelectionR13CMsvTestUtils @ 182 NONAME
	_ZN23CSelectFirstInSelection6StartLER14TRequestStatus @ 183 NONAME
	_ZN23CSelectFirstInSelectionC1EiR18CMsvEntrySelectionR13CMsvTestUtils @ 184 NONAME
	_ZN23CSelectFirstInSelectionC2EiR18CMsvEntrySelectionR13CMsvTestUtils @ 185 NONAME
	_ZN26CMsvTestEntryCommandParser4NewLER13CMsvTestEntry @ 186 NONAME
	_ZN26CMsvTestEntryCommandParser8ProcessLEv @ 187 NONAME
	_ZN26CMsvTestEntrySectionParser10ConstructLERK7TDesC16 @ 188 NONAME
	_ZN26CMsvTestEntrySectionParser11LogCommentLERK7TDesC16 @ 189 NONAME
	_ZN26CMsvTestEntrySectionParser4NewLERK7TDesC16R11CTestScriptR13CMsvTestEntry @ 190 NONAME
	_ZN26CMsvTestEntrySectionParserC1ER11CTestScriptR13CMsvTestEntry @ 191 NONAME
	_ZN26CMsvTestEntrySectionParserC2ER11CTestScriptR13CMsvTestEntry @ 192 NONAME
	_ZN26CMsvTestEntrySectionParserD0Ev @ 193 NONAME
	_ZN26CMsvTestEntrySectionParserD1Ev @ 194 NONAME
	_ZN26CMsvTestEntrySectionParserD2Ev @ 195 NONAME
	_ZN27CSelectPopulatedInSelection6StartLER14TRequestStatus @ 196 NONAME
	_ZN27CSelectPopulatedInSelectionC1ER18CMsvEntrySelectionR13CMsvTestUtils @ 197 NONAME
	_ZN27CSelectPopulatedInSelectionC2ER18CMsvEntrySelectionR13CMsvTestUtils @ 198 NONAME
	_ZN9CLongWait4RunLEv @ 199 NONAME
	_ZN9CLongWait6StartLER14TRequestStatus @ 200 NONAME
	_ZN9CLongWait8DoCancelEv @ 201 NONAME
	_ZN9CLongWaitC1Ei @ 202 NONAME
	_ZN9CLongWaitC1Ev @ 203 NONAME
	_ZN9CLongWaitC2Ei @ 204 NONAME
	_ZN9CLongWaitC2Ev @ 205 NONAME
	_ZN9CLongWaitD0Ev @ 206 NONAME
	_ZN9CLongWaitD1Ev @ 207 NONAME
	_ZN9CLongWaitD2Ev @ 208 NONAME
	_ZNK12CTestSection11SectionNameEv @ 209 NONAME
	_ZNK12CTestSection15SectionPositionEv @ 210 NONAME
	_ZNK12CTestSection17GetCurrentCommandER6TDes16 @ 211 NONAME
	_ZNK12CTestSection22CurrentCommandPositionEv @ 212 NONAME
	_ZNK14MBaseTestState12GetDebugInfoEv @ 213 NONAME
	_ZNK18CBaseCommandParser8CanParseERK7TDesC16 @ 214 NONAME
	_ZTI11CAddComment @ 215 NONAME ; #<TI>#
	_ZTI11CTestScript @ 216 NONAME ; #<TI>#
	_ZTI12CSelectEntry @ 217 NONAME ; #<TI>#
	_ZTI12CTestSection @ 218 NONAME ; #<TI>#
	_ZTI13CCheckNewFlag @ 219 NONAME ; #<TI>#
	_ZTI13CGoClientSide @ 220 NONAME ; #<TI>#
	_ZTI13CGoServerSide @ 221 NONAME ; #<TI>#
	_ZTI13CMsvTestEntry @ 222 NONAME ; #<TI>#
	_ZTI14CCheckBodyText @ 223 NONAME ; #<TI>#
	_ZTI14CCheckPriority @ 224 NONAME ; #<TI>#
	_ZTI14CCopySelection @ 225 NONAME ; #<TI>#
	_ZTI14CMoveSelection @ 226 NONAME ; #<TI>#
	_ZTI14CMsvClientTest @ 227 NONAME ; #<TI>#
	_ZTI14MBaseTestState @ 228 NONAME ; #<TI>#
	_ZTI16CActiveTestState @ 229 NONAME ; #<TI>#
	_ZTI16CBaseTestHarness @ 230 NONAME ; #<TI>#
	_ZTI16CCheckAttachment @ 231 NONAME ; #<TI>#
	_ZTI16CDeleteSelection @ 232 NONAME ; #<TI>#
	_ZTI16CMainTestHarness @ 233 NONAME ; #<TI>#
	_ZTI16CMsvSelectParser @ 234 NONAME ; #<TI>#
	_ZTI16CSelectEntryById @ 235 NONAME ; #<TI>#
	_ZTI17CDumpMessageStore @ 236 NONAME ; #<TI>#
	_ZTI18CBaseCommandParser @ 237 NONAME ; #<TI>#
	_ZTI18CBaseSectionParser @ 238 NONAME ; #<TI>#
	_ZTI18CMainSectionParser @ 239 NONAME ; #<TI>#
	_ZTI18CSelectAllMessages @ 240 NONAME ; #<TI>#
	_ZTI19CCheckMessageFolder @ 241 NONAME ; #<TI>#
	_ZTI19CCleanMessageFolder @ 242 NONAME ; #<TI>#
	_ZTI19CMsvOperationParser @ 243 NONAME ; #<TI>#
	_ZTI19CMsvUtilitiesParser @ 244 NONAME ; #<TI>#
	_ZTI19CResetMessageServer @ 245 NONAME ; #<TI>#
	_ZTI20CCheckSelectionCount @ 246 NONAME ; #<TI>#
	_ZTI22CCheckRemoteFolderSize @ 247 NONAME ; #<TI>#
	_ZTI22CSelectLastInSelection @ 248 NONAME ; #<TI>#
	_ZTI23CSelectFirstInSelection @ 249 NONAME ; #<TI>#
	_ZTI26CMsvTestEntryCommandParser @ 250 NONAME ; #<TI>#
	_ZTI26CMsvTestEntrySectionParser @ 251 NONAME ; #<TI>#
	_ZTI27CSelectPopulatedInSelection @ 252 NONAME ; #<TI>#
	_ZTI9CLongWait @ 253 NONAME ; #<TI>#
	_ZTV11CAddComment @ 254 NONAME ; #<VT>#
	_ZTV11CTestScript @ 255 NONAME ; #<VT>#
	_ZTV12CSelectEntry @ 256 NONAME ; #<VT>#
	_ZTV12CTestSection @ 257 NONAME ; #<VT>#
	_ZTV13CCheckNewFlag @ 258 NONAME ; #<VT>#
	_ZTV13CGoClientSide @ 259 NONAME ; #<VT>#
	_ZTV13CGoServerSide @ 260 NONAME ; #<VT>#
	_ZTV13CMsvTestEntry @ 261 NONAME ; #<VT>#
	_ZTV14CCheckBodyText @ 262 NONAME ; #<VT>#
	_ZTV14CCheckPriority @ 263 NONAME ; #<VT>#
	_ZTV14CCopySelection @ 264 NONAME ; #<VT>#
	_ZTV14CMoveSelection @ 265 NONAME ; #<VT>#
	_ZTV14CMsvClientTest @ 266 NONAME ; #<VT>#
	_ZTV14MBaseTestState @ 267 NONAME ; #<VT>#
	_ZTV16CActiveTestState @ 268 NONAME ; #<VT>#
	_ZTV16CBaseTestHarness @ 269 NONAME ; #<VT>#
	_ZTV16CCheckAttachment @ 270 NONAME ; #<VT>#
	_ZTV16CDeleteSelection @ 271 NONAME ; #<VT>#
	_ZTV16CMainTestHarness @ 272 NONAME ; #<VT>#
	_ZTV16CMsvSelectParser @ 273 NONAME ; #<VT>#
	_ZTV16CSelectEntryById @ 274 NONAME ; #<VT>#
	_ZTV17CDumpMessageStore @ 275 NONAME ; #<VT>#
	_ZTV18CBaseCommandParser @ 276 NONAME ; #<VT>#
	_ZTV18CBaseSectionParser @ 277 NONAME ; #<VT>#
	_ZTV18CMainSectionParser @ 278 NONAME ; #<VT>#
	_ZTV18CSelectAllMessages @ 279 NONAME ; #<VT>#
	_ZTV19CCheckMessageFolder @ 280 NONAME ; #<VT>#
	_ZTV19CCleanMessageFolder @ 281 NONAME ; #<VT>#
	_ZTV19CMsvOperationParser @ 282 NONAME ; #<VT>#
	_ZTV19CMsvUtilitiesParser @ 283 NONAME ; #<VT>#
	_ZTV19CResetMessageServer @ 284 NONAME ; #<VT>#
	_ZTV20CCheckSelectionCount @ 285 NONAME ; #<VT>#
	_ZTV22CCheckRemoteFolderSize @ 286 NONAME ; #<VT>#
	_ZTV22CSelectLastInSelection @ 287 NONAME ; #<VT>#
	_ZTV23CSelectFirstInSelection @ 288 NONAME ; #<VT>#
	_ZTV26CMsvTestEntryCommandParser @ 289 NONAME ; #<VT>#
	_ZTV26CMsvTestEntrySectionParser @ 290 NONAME ; #<VT>#
	_ZTV27CSelectPopulatedInSelection @ 291 NONAME ; #<VT>#
	_ZTV9CLongWait @ 292 NONAME ; #<VT>#
	_ZThn28_N14CCopySelection6StartLER14TRequestStatus @ 293 NONAME ; #<thunk>#
	_ZThn28_N14CCopySelectionD0Ev @ 294 NONAME ; #<thunk>#
	_ZThn28_N14CCopySelectionD1Ev @ 295 NONAME ; #<thunk>#
	_ZThn28_N14CMoveSelection6StartLER14TRequestStatus @ 296 NONAME ; #<thunk>#
	_ZThn28_N14CMoveSelectionD0Ev @ 297 NONAME ; #<thunk>#
	_ZThn28_N14CMoveSelectionD1Ev @ 298 NONAME ; #<thunk>#
	_ZThn28_N14CMsvClientTestD0Ev @ 299 NONAME ; #<thunk>#
	_ZThn28_N14CMsvClientTestD1Ev @ 300 NONAME ; #<thunk>#
	_ZThn28_N16CBaseTestHarness6StartLER14TRequestStatus @ 301 NONAME ; #<thunk>#
	_ZThn28_N16CBaseTestHarnessD0Ev @ 302 NONAME ; #<thunk>#
	_ZThn28_N16CBaseTestHarnessD1Ev @ 303 NONAME ; #<thunk>#
	_ZThn28_N16CDeleteSelection6StartLER14TRequestStatus @ 304 NONAME ; #<thunk>#
	_ZThn28_N16CDeleteSelectionD0Ev @ 305 NONAME ; #<thunk>#
	_ZThn28_N16CDeleteSelectionD1Ev @ 306 NONAME ; #<thunk>#
	_ZThn28_N16CMainTestHarness6StartLER14TRequestStatus @ 307 NONAME ; #<thunk>#
	_ZThn28_N9CLongWait6StartLER14TRequestStatus @ 308 NONAME ; #<thunk>#
	_ZThn28_N9CLongWaitD0Ev @ 309 NONAME ; #<thunk>#
	_ZThn28_N9CLongWaitD1Ev @ 310 NONAME ; #<thunk>#
	_ZThn4_N11CAddComment6StartLER14TRequestStatus @ 311 NONAME ; #<thunk>#
	_ZThn4_N11CAddCommentD0Ev @ 312 NONAME ; #<thunk>#
	_ZThn4_N11CAddCommentD1Ev @ 313 NONAME ; #<thunk>#
	_ZThn4_N12CSelectEntry6StartLER14TRequestStatus @ 314 NONAME ; #<thunk>#
	_ZThn4_N12CSelectEntryD0Ev @ 315 NONAME ; #<thunk>#
	_ZThn4_N12CSelectEntryD1Ev @ 316 NONAME ; #<thunk>#
	_ZThn4_N13CCheckNewFlag6StartLER14TRequestStatus @ 317 NONAME ; #<thunk>#
	_ZThn4_N13CGoClientSide6StartLER14TRequestStatus @ 318 NONAME ; #<thunk>#
	_ZThn4_N13CGoServerSide6StartLER14TRequestStatus @ 319 NONAME ; #<thunk>#
	_ZThn4_N13CMsvTestEntry6StartLER14TRequestStatus @ 320 NONAME ; #<thunk>#
	_ZThn4_N14CCheckBodyText6StartLER14TRequestStatus @ 321 NONAME ; #<thunk>#
	_ZThn4_N14CCheckBodyTextD0Ev @ 322 NONAME ; #<thunk>#
	_ZThn4_N14CCheckBodyTextD1Ev @ 323 NONAME ; #<thunk>#
	_ZThn4_N14CCheckPriority6StartLER14TRequestStatus @ 324 NONAME ; #<thunk>#
	_ZThn4_N16CCheckAttachment6StartLER14TRequestStatus @ 325 NONAME ; #<thunk>#
	_ZThn4_N16CSelectEntryById6StartLER14TRequestStatus @ 326 NONAME ; #<thunk>#
	_ZThn4_N17CDumpMessageStore6StartLER14TRequestStatus @ 327 NONAME ; #<thunk>#
	_ZThn4_N18CSelectAllMessages6StartLER14TRequestStatus @ 328 NONAME ; #<thunk>#
	_ZThn4_N19CCheckMessageFolder6StartLER14TRequestStatus @ 329 NONAME ; #<thunk>#
	_ZThn4_N19CCleanMessageFolder6StartLER14TRequestStatus @ 330 NONAME ; #<thunk>#
	_ZThn4_N19CResetMessageServer6StartLER14TRequestStatus @ 331 NONAME ; #<thunk>#
	_ZThn4_N20CCheckSelectionCount6StartLER14TRequestStatus @ 332 NONAME ; #<thunk>#
	_ZThn4_N22CCheckRemoteFolderSize6StartLER14TRequestStatus @ 333 NONAME ; #<thunk>#
	_ZThn4_N22CSelectLastInSelection6StartLER14TRequestStatus @ 334 NONAME ; #<thunk>#
	_ZThn4_N23CSelectFirstInSelection6StartLER14TRequestStatus @ 335 NONAME ; #<thunk>#
	_ZThn4_N27CSelectPopulatedInSelection6StartLER14TRequestStatus @ 336 NONAME ; #<thunk>#

