EXPORTS
	_ZN11RadioWindow11qt_metacallEN11QMetaObject4CallEiPPv @ 1 NONAME
	_ZN11RadioWindow11qt_metacastEPKc @ 2 NONAME
	_ZN11RadioWindow12activateViewEP13RadioViewBaseRK7QString6QFlagsIN2Hb14ViewSwitchFlagEE @ 3 NONAME
	_ZN11RadioWindow15showVolumeLevelEi @ 4 NONAME
	_ZN11RadioWindow16activateMainViewEv @ 5 NONAME
	_ZN11RadioWindow16showErrorMessageERK7QString @ 6 NONAME
	_ZN11RadioWindow16staticMetaObjectE @ 7 NONAME DATA 16
	_ZN11RadioWindow17updateOrientationEN2Qt11OrientationE @ 8 NONAME
	_ZN11RadioWindow18orientationSectionEv @ 9 NONAME
	_ZN11RadioWindow19activateHistoryViewEv @ 10 NONAME
	_ZN11RadioWindow19getStaticMetaObjectEv @ 11 NONAME
	_ZN11RadioWindow19updateAntennaStatusEb @ 12 NONAME
	_ZN11RadioWindow20activateStationsViewEv @ 13 NONAME
	_ZN11RadioWindow4initEv @ 14 NONAME
	_ZN11RadioWindow8initViewEv @ 15 NONAME
	_ZN11RadioWindowC1EP7QWidget @ 16 NONAME
	_ZN11RadioWindowC2EP7QWidget @ 17 NONAME
	_ZN11RadioWindowD0Ev @ 18 NONAME
	_ZN11RadioWindowD1Ev @ 19 NONAME
	_ZN11RadioWindowD2Ev @ 20 NONAME
	_ZN16RadioFadingLabel11qt_metacallEN11QMetaObject4CallEiPPv @ 21 NONAME
	_ZN16RadioFadingLabel11qt_metacastEPKc @ 22 NONAME
	_ZN16RadioFadingLabel11startEffectERK7QStringPKc @ 23 NONAME
	_ZN16RadioFadingLabel14effectFinishedEN8HbEffect12EffectStatusE @ 24 NONAME
	_ZN16RadioFadingLabel16setFadingEnabledEb @ 25 NONAME
	_ZN16RadioFadingLabel16staticMetaObjectE @ 26 NONAME DATA 16
	_ZN16RadioFadingLabel19getStaticMetaObjectEv @ 27 NONAME
	_ZN16RadioFadingLabel20setTextWithoutFadingERK7QString @ 28 NONAME
	_ZN16RadioFadingLabel7setTextERK7QString @ 29 NONAME
	_ZN16RadioFadingLabel8trimHtmlERK7QString @ 30 NONAME
	_ZN16RadioFadingLabelC1EP13QGraphicsItem @ 31 NONAME
	_ZN16RadioFadingLabelC2EP13QGraphicsItem @ 32 NONAME
	_ZN19RadioFrequencyStrip10skipToNextEv @ 33 NONAME
	_ZN19RadioFrequencyStrip11qt_metacallEN11QMetaObject4CallEiPPv @ 34 NONAME
	_ZN19RadioFrequencyStrip11qt_metacastEPKc @ 35 NONAME
	_ZN19RadioFrequencyStrip12setFrequencyEjiN6Scroll9DirectionE @ 36 NONAME
	_ZN19RadioFrequencyStrip13seekRequestedEi @ 37 NONAME
	_ZN19RadioFrequencyStrip13skipRequestedEi @ 38 NONAME
	_ZN19RadioFrequencyStrip14skipToPreviousEv @ 39 NONAME
	_ZN19RadioFrequencyStrip16frequencyChangedEjii @ 40 NONAME
	_ZN19RadioFrequencyStrip16staticMetaObjectE @ 41 NONAME DATA 16
	_ZN19RadioFrequencyStrip18skipToNextFavoriteEv @ 42 NONAME
	_ZN19RadioFrequencyStrip19getStaticMetaObjectEv @ 43 NONAME
	_ZN19RadioFrequencyStrip20emitFrequencyChangedEjii @ 44 NONAME
	_ZN19RadioFrequencyStrip22skipToPreviousFavoriteEv @ 45 NONAME
	_ZN19RadioFrequencyStrip4initEP13RadioUiEngineR13RadioUiLoader @ 46 NONAME
	_ZN19RadioFrequencyStrip6seekUpEv @ 47 NONAME
	_ZN19RadioFrequencyStrip8seekDownEv @ 48 NONAME
	_ZN19RadioFrequencyStripC1Ev @ 49 NONAME
	_ZN19RadioFrequencyStripC2Ev @ 50 NONAME
	_ZN20RadioStationCarousel10timerFiredEv @ 51 NONAME
	_ZN20RadioStationCarousel11findStationEj @ 52 NONAME
	_ZN20RadioStationCarousel11qt_metacallEN11QMetaObject4CallEiPPv @ 53 NONAME
	_ZN20RadioStationCarousel11qt_metacastEPKc @ 54 NONAME
	_ZN20RadioStationCarousel11resizeEventEP25QGraphicsSceneResizeEvent @ 55 NONAME
	_ZN20RadioStationCarousel11setInfoTextEN16CarouselInfoText4TypeE @ 56 NONAME
	_ZN20RadioStationCarousel12cleanRdsDataEv @ 57 NONAME
	_ZN20RadioStationCarousel12gestureEventEP13QGestureEvent @ 58 NONAME
	_ZN20RadioStationCarousel12setFrequencyEjiN6Scroll9DirectionE @ 59 NONAME
	_ZN20RadioStationCarousel12setLandscapeEb @ 60 NONAME
	_ZN20RadioStationCarousel13clearInfoTextEv @ 61 NONAME
	_ZN20RadioStationCarousel13drawOffScreenER8QPainter @ 62 NONAME
	_ZN20RadioStationCarousel13localizeGenreEi @ 63 NONAME
	_ZN20RadioStationCarousel13scrollToIndexEiN6Scroll9DirectionE6QFlagsINS_10ScrollFlagEE @ 64 NONAME
	_ZN20RadioStationCarousel13skipRequestedEi @ 65 NONAME
	_ZN20RadioStationCarousel14setCenterIndexEi6QFlagsINS_10ScrollFlagEE @ 66 NONAME
	_ZN20RadioStationCarousel14updateStationsEv @ 67 NONAME
	_ZN20RadioStationCarousel15cancelAnimationEv @ 68 NONAME
	_ZN20RadioStationCarousel15setFavoriteIconERK6HbIcon @ 69 NONAME
	_ZN20RadioStationCarousel15setScanningModeEb @ 70 NONAME
	_ZN20RadioStationCarousel15updateRadioTextERK12RadioStation @ 71 NONAME
	_ZN20RadioStationCarousel16frequencyChangedEjii @ 72 NONAME
	_ZN20RadioStationCarousel16handleUrlClickedERK12RadioStation @ 73 NONAME
	_ZN20RadioStationCarousel16scrollPosChangedERK7QPointF @ 74 NONAME
	_ZN20RadioStationCarousel16staticMetaObjectE @ 75 NONAME DATA 16
	_ZN20RadioStationCarousel17adjustAfterScrollEv @ 76 NONAME
	_ZN20RadioStationCarousel17animateNewStationERK12RadioStation @ 77 NONAME
	_ZN20RadioStationCarousel17handleIconClickedERK12RadioStation @ 78 NONAME
	_ZN20RadioStationCarousel17setAutoScrollTimeEi @ 79 NONAME
	_ZN20RadioStationCarousel17setManualSeekModeEb @ 80 NONAME
	_ZN20RadioStationCarousel18setNonFavoriteIconERK6HbIcon @ 81 NONAME
	_ZN20RadioStationCarousel19calculateDifferenceEiRN6Scroll9DirectionE @ 82 NONAME
	_ZN20RadioStationCarousel19getStaticMetaObjectEv @ 83 NONAME
	_ZN20RadioStationCarousel19updateAntennaStatusEb @ 84 NONAME
	_ZN20RadioStationCarousel21scanAnimationFinishedEv @ 85 NONAME
	_ZN20RadioStationCarousel22handleRadiotextClickedERK12RadioStation @ 86 NONAME
	_ZN20RadioStationCarousel4initER13RadioUiLoaderP13RadioUiEngine @ 87 NONAME
	_ZN20RadioStationCarousel4skipEN11StationSkip4ModeE @ 88 NONAME
	_ZN20RadioStationCarousel6updateERK12RadioStation @ 89 NONAME
	_ZN20RadioStationCarousel8uiEngineEv @ 90 NONAME
	_ZN20RadioStationCarousel9adjustPosEi @ 91 NONAME
	_ZN20RadioStationCarousel9nextIndexEi @ 92 NONAME
	_ZN20RadioStationCarousel9prevIndexEi @ 93 NONAME
	_ZN20RadioStationCarousel9showEventEP10QShowEvent @ 94 NONAME
	_ZN20RadioStationCarousel9trimIndexEi @ 95 NONAME
	_ZN20RadioStationCarouselC1EP13QGraphicsItem @ 96 NONAME
	_ZN20RadioStationCarouselC2EP13QGraphicsItem @ 97 NONAME
	_ZNK11RadioWindow10metaObjectEv @ 98 NONAME
	_ZNK16RadioFadingLabel10metaObjectEv @ 99 NONAME
	_ZNK19RadioFrequencyStrip10isScanningEv @ 100 NONAME
	_ZNK19RadioFrequencyStrip10metaObjectEv @ 101 NONAME
	_ZNK19RadioFrequencyStrip13isInitializedEv @ 102 NONAME
	_ZNK19RadioFrequencyStrip15stationsInRangeEjj @ 103 NONAME
	_ZNK19RadioFrequencyStrip16frequencyAtIndexEi @ 104 NONAME
	_ZNK20RadioStationCarousel10metaObjectEv @ 105 NONAME
	_ZNK20RadioStationCarousel12favoriteIconEv @ 106 NONAME
	_ZNK20RadioStationCarousel13isInitializedEv @ 107 NONAME
	_ZNK20RadioStationCarousel14autoScrollTimeEv @ 108 NONAME
	_ZNK20RadioStationCarousel14isInManualSeekEv @ 109 NONAME
	_ZNK20RadioStationCarousel15nonFavoriteIconEv @ 110 NONAME
	_ZNK20RadioStationCarousel16isInScanningModeEv @ 111 NONAME
	_ZNK20RadioStationCarousel17isAntennaAttachedEv @ 112 NONAME
	_ZNK20RadioStationCarousel18isScrollingAllowedEv @ 113 NONAME
	_ZTI11RadioWindow @ 114 NONAME
	_ZTI16RadioFadingLabel @ 115 NONAME
	_ZTI19RadioFrequencyStrip @ 116 NONAME
	_ZTI20RadioStationCarousel @ 117 NONAME
	_ZTV11RadioWindow @ 118 NONAME
	_ZTV16RadioFadingLabel @ 119 NONAME
	_ZTV19RadioFrequencyStrip @ 120 NONAME
	_ZTV20RadioStationCarousel @ 121 NONAME
	_ZThn28_N20RadioStationCarousel11findStationEj @ 122 NONAME
	_ZThn28_N20RadioStationCarousel13localizeGenreEi @ 123 NONAME
	_ZThn28_N20RadioStationCarousel16handleUrlClickedERK12RadioStation @ 124 NONAME
	_ZThn28_N20RadioStationCarousel17handleIconClickedERK12RadioStation @ 125 NONAME
	_ZThn28_N20RadioStationCarousel22handleRadiotextClickedERK12RadioStation @ 126 NONAME
	_ZThn28_NK20RadioStationCarousel12favoriteIconEv @ 127 NONAME
	_ZThn28_NK20RadioStationCarousel14isInManualSeekEv @ 128 NONAME
	_ZThn28_NK20RadioStationCarousel15nonFavoriteIconEv @ 129 NONAME
	_ZThn8_N11RadioWindowD0Ev @ 130 NONAME
	_ZThn8_N11RadioWindowD1Ev @ 131 NONAME

