EXPORTS
	?instance@MpEngineFactory@@SAPAV1@XZ @ 1 NONAME ; class MpEngineFactory * MpEngineFactory::instance(void)
	?saveToCurrentPlaylist@MpEngine@@QAEXAAV?$QList@H@@PAVMpMpxCollectionData@@@Z @ 2 NONAME ; void MpEngine::saveToCurrentPlaylist(class QList<int> &, class MpMpxCollectionData *)
	?handleDeleteStarted@MpEngine@@QAEXW4TCollectionContext@@H@Z @ 3 NONAME ; void MpEngine::handleDeleteStarted(enum TCollectionContext, int)
	?getMuteState@MpEngine@@QAEXXZ @ 4 NONAME ; void MpEngine::getMuteState(void)
	?collectionData@MpEngine@@QAEPAVMpMpxCollectionData@@XZ @ 5 NONAME ; class MpMpxCollectionData * MpEngine::collectionData(void)
	?createPlaylist@MpEngine@@QAEXAAVQString@@AAV?$QList@H@@PAVMpMpxCollectionData@@@Z @ 6 NONAME ; void MpEngine::createPlaylist(class QString &, class QList<int> &, class MpMpxCollectionData *)
	?collectionPlaylistOpened@MpEngine@@IAEXXZ @ 7 NONAME ; void MpEngine::collectionPlaylistOpened(void)
	?renamePlaylist@MpEngine@@QAEXAAVQString@@H@Z @ 8 NONAME ; void MpEngine::renamePlaylist(class QString &, int)
	?mute@MpEngine@@QAEXXZ @ 9 NONAME ; void MpEngine::mute(void)
	?scanCountChanged@MpSongScanner@@IAEXH@Z @ 10 NONAME ; void MpSongScanner::scanCountChanged(int)
	?handleUsbMtpEndEvent@MpEngine@@AAEXXZ @ 11 NONAME ; void MpEngine::handleUsbMtpEndEvent(void)
	?setBalance@MpEngine@@QAEXH@Z @ 12 NONAME ; void MpEngine::setBalance(int)
	?playAlbumSongs@MpEngine@@QAEXHHPAVMpMpxCollectionData@@@Z @ 13 NONAME ; void MpEngine::playAlbumSongs(int, int, class MpMpxCollectionData *)
	?getVolume@MpEngine@@QAEXXZ @ 14 NONAME ; void MpEngine::getVolume(void)
	?setShuffle@MpEngine@@QAEX_N@Z @ 15 NONAME ; void MpEngine::setShuffle(bool)
	?openIsolatedCollection@MpEngine@@QAEXW4TCollectionContext@@@Z @ 16 NONAME ; void MpEngine::openIsolatedCollection(enum TCollectionContext)
	?usbSynchronizationFinished@MpEngine@@IAEXXZ @ 17 NONAME ; void MpEngine::usbSynchronizationFinished(void)
	?qt_metacall@MpEngine@@UAEHW4Call@QMetaObject@@HPAPAX@Z @ 18 NONAME ; int MpEngine::qt_metacall(enum QMetaObject::Call, int, void * *)
	?playlistSaved@MpEngine@@IAEX_N@Z @ 19 NONAME ; void MpEngine::playlistSaved(bool)
	?playbackData@MpEngine@@QAEPAVMpPlaybackData@@XZ @ 20 NONAME ; class MpPlaybackData * MpEngine::playbackData(void)
	?stop@MpEngine@@QAEXXZ @ 21 NONAME ; void MpEngine::stop(void)
	?scan@MpSongScanner@@QAEX_N@Z @ 22 NONAME ; void MpSongScanner::scan(bool)
	?openCollection@MpEngine@@QAEXW4TCollectionContext@@@Z @ 23 NONAME ; void MpEngine::openCollection(enum TCollectionContext)
	?decreaseVolume@MpEngine@@QAEXXZ @ 24 NONAME ; void MpEngine::decreaseVolume(void)
	??0MpEngineFactory@@AAE@XZ @ 25 NONAME ; MpEngineFactory::MpEngineFactory(void)
	?handleDiskEvent@MpSongScanner@@QAEXW4MpxDiskEvents@@@Z @ 26 NONAME ; void MpSongScanner::handleDiskEvent(enum MpxDiskEvents)
	?tr@MpEngine@@SA?AVQString@@PBD0H@Z @ 27 NONAME ; class QString MpEngine::tr(char const *, char const *, int)
	?trUtf8@MpEngine@@SA?AVQString@@PBD0@Z @ 28 NONAME ; class QString MpEngine::trUtf8(char const *, char const *)
	?presetNames@MpEngine@@QAE?AVQStringList@@XZ @ 29 NONAME ; class QStringList MpEngine::presetNames(void)
	?previewItem@MpEngine@@QAEXH@Z @ 30 NONAME ; void MpEngine::previewItem(int)
	??1MpSongScanner@@UAE@XZ @ 31 NONAME ; MpSongScanner::~MpSongScanner(void)
	?loudness@MpEngine@@QAE_NXZ @ 32 NONAME ; bool MpEngine::loudness(void)
	?deleteSongs@MpEngine@@QAEXAAV?$QList@H@@@Z @ 33 NONAME ; void MpEngine::deleteSongs(class QList<int> &)
	?releaseIsolatedCollection@MpEngine@@QAEXXZ @ 34 NONAME ; void MpEngine::releaseIsolatedCollection(void)
	?deleteStarted@MpEngine@@IAEXW4TCollectionContext@@H@Z @ 35 NONAME ; void MpEngine::deleteStarted(enum TCollectionContext, int)
	?stopSeeking@MpEngine@@QAEXXZ @ 36 NONAME ; void MpEngine::stopSeeking(void)
	?tr@MpEngine@@SA?AVQString@@PBD0@Z @ 37 NONAME ; class QString MpEngine::tr(char const *, char const *)
	?disableEqualizer@MpEngine@@QAEXXZ @ 38 NONAME ; void MpEngine::disableEqualizer(void)
	?getStaticMetaObject@MpEngine@@SAABUQMetaObject@@XZ @ 39 NONAME ; struct QMetaObject const & MpEngine::getStaticMetaObject(void)
	?qt_metacast@MpEngineFactory@@UAEPAXPBD@Z @ 40 NONAME ; void * MpEngineFactory::qt_metacast(char const *)
	?libraryUpdated@MpEngine@@IAEXXZ @ 41 NONAME ; void MpEngine::libraryUpdated(void)
	?unmute@MpEngine@@QAEXXZ @ 42 NONAME ; void MpEngine::unmute(void)
	??0MpSongScanner@@QAE@PAVMpMpxHarvesterFrameworkWrapper@@PAVQObject@@@Z @ 43 NONAME ; MpSongScanner::MpSongScanner(class MpMpxHarvesterFrameworkWrapper *, class QObject *)
	?checkForSystemEvents@MpEngine@@QAEXXZ @ 44 NONAME ; void MpEngine::checkForSystemEvents(void)
	?applyPreset@MpEngine@@QAEXH@Z @ 45 NONAME ; void MpEngine::applyPreset(int)
	?volumePropertyChanged@MpEngine@@IAEXW4MpVolumeProperty@MpCommon@@H@Z @ 46 NONAME ; void MpEngine::volumePropertyChanged(enum MpCommon::MpVolumeProperty, int)
	?trUtf8@MpEngineFactory@@SA?AVQString@@PBD0H@Z @ 47 NONAME ; class QString MpEngineFactory::trUtf8(char const *, char const *, int)
	?staticMetaObject@MpEngine@@2UQMetaObject@@B @ 48 NONAME ; struct QMetaObject const MpEngine::staticMetaObject
	?scanStarted@MpSongScanner@@IAEXXZ @ 49 NONAME ; void MpSongScanner::scanStarted(void)
	?unableToCotinueDueUSB@MpEngine@@IAEXXZ @ 50 NONAME ; void MpEngine::unableToCotinueDueUSB(void)
	?openCollectionItem@MpEngine@@QAEXH@Z @ 51 NONAME ; void MpEngine::openCollectionItem(int)
	?handleScanStarted@MpEngine@@QAEXXZ @ 52 NONAME ; void MpEngine::handleScanStarted(void)
	?back@MpEngine@@QAEXXZ @ 53 NONAME ; void MpEngine::back(void)
	?tr@MpSongScanner@@SA?AVQString@@PBD0H@Z @ 54 NONAME ; class QString MpSongScanner::tr(char const *, char const *, int)
	?songScanner@MpEngine@@QAEPAVMpSongScanner@@XZ @ 55 NONAME ; class MpSongScanner * MpEngine::songScanner(void)
	?handleUsbMassStorageStartEvent@MpEngine@@AAEXXZ @ 56 NONAME ; void MpEngine::handleUsbMassStorageStartEvent(void)
	?saveActivityData@MpEngine@@QAEXAAVQByteArray@@@Z @ 57 NONAME ; void MpEngine::saveActivityData(class QByteArray &)
	?getMaxVolume@MpEngine@@QAEXXZ @ 58 NONAME ; void MpEngine::getMaxVolume(void)
	?handleDeleteEnded@MpEngine@@QAEX_N@Z @ 59 NONAME ; void MpEngine::handleDeleteEnded(bool)
	?handleDiskEvent@MpEngine@@QAEXW4MpxDiskEvents@@@Z @ 60 NONAME ; void MpEngine::handleDiskEvent(enum MpxDiskEvents)
	?verifyUsbBlocking@MpEngine@@QAE_N_N@Z @ 61 NONAME ; bool MpEngine::verifyUsbBlocking(bool)
	?usbSynchronizationStarted@MpEngine@@IAEXXZ @ 62 NONAME ; void MpEngine::usbSynchronizationStarted(void)
	?handleUsbMassStorageEndEvent@MpEngine@@AAEXXZ @ 63 NONAME ; void MpEngine::handleUsbMassStorageEndEvent(void)
	??0MpEngine@@AAE@XZ @ 64 NONAME ; MpEngine::MpEngine(void)
	?getStaticMetaObject@MpEngineFactory@@SAABUQMetaObject@@XZ @ 65 NONAME ; struct QMetaObject const & MpEngineFactory::getStaticMetaObject(void)
	?getStaticMetaObject@MpSongScanner@@SAABUQMetaObject@@XZ @ 66 NONAME ; struct QMetaObject const & MpSongScanner::getStaticMetaObject(void)
	?isolatedCollectionOpened@MpEngine@@IAEXPAVMpMpxCollectionData@@@Z @ 67 NONAME ; void MpEngine::isolatedCollectionOpened(class MpMpxCollectionData *)
	?aboutToAddSongs@MpEngine@@IAEXH@Z @ 68 NONAME ; void MpEngine::aboutToAddSongs(int)
	??1MpEngine@@UAE@XZ @ 69 NONAME ; MpEngine::~MpEngine(void)
	?changeUsbBlockingState@MpEngine@@AAEXW4UsbBlockingState@1@@Z @ 70 NONAME ; void MpEngine::changeUsbBlockingState(enum MpEngine::UsbBlockingState)
	?setVolume@MpEngine@@QAEXH@Z @ 71 NONAME ; void MpEngine::setVolume(int)
	?metaObject@MpEngine@@UBEPBUQMetaObject@@XZ @ 72 NONAME ; struct QMetaObject const * MpEngine::metaObject(void) const
	??_EMpSongScanner@@UAE@I@Z @ 73 NONAME ; MpSongScanner::~MpSongScanner(unsigned int)
	?createIsolatedEngine@MpEngineFactory@@SAPAVMpEngine@@W4EngineMode@2@@Z @ 74 NONAME ; class MpEngine * MpEngineFactory::createIsolatedEngine(enum MpEngine::EngineMode)
	?equalizerReady@MpEngine@@IAEXXZ @ 75 NONAME ; void MpEngine::equalizerReady(void)
	?findAlbumSongs@MpEngine@@QAEXH@Z @ 76 NONAME ; void MpEngine::findAlbumSongs(int)
	?setPosition@MpEngine@@QAEXH@Z @ 77 NONAME ; void MpEngine::setPosition(int)
	?metaObject@MpEngineFactory@@UBEPBUQMetaObject@@XZ @ 78 NONAME ; struct QMetaObject const * MpEngineFactory::metaObject(void) const
	?handleEqualizerReady@MpEngine@@QAEXXZ @ 79 NONAME ; void MpEngine::handleEqualizerReady(void)
	?tr@MpSongScanner@@SA?AVQString@@PBD0@Z @ 80 NONAME ; class QString MpSongScanner::tr(char const *, char const *)
	??_EMpEngineFactory@@UAE@I@Z @ 81 NONAME ; MpEngineFactory::~MpEngineFactory(unsigned int)
	?skipForward@MpEngine@@QAEXXZ @ 82 NONAME ; void MpEngine::skipForward(void)
	?songData@MpEngine@@QAEPAVMpSongData@@XZ @ 83 NONAME ; class MpSongData * MpEngine::songData(void)
	?trUtf8@MpSongScanner@@SA?AVQString@@PBD0H@Z @ 84 NONAME ; class QString MpSongScanner::trUtf8(char const *, char const *, int)
	?close@MpEngineFactory@@SAXXZ @ 85 NONAME ; void MpEngineFactory::close(void)
	?libraryAboutToUpdate@MpEngine@@IAEXXZ @ 86 NONAME ; void MpEngine::libraryAboutToUpdate(void)
	?trUtf8@MpEngine@@SA?AVQString@@PBD0H@Z @ 87 NONAME ; class QString MpEngine::trUtf8(char const *, char const *, int)
	?reopenCollection@MpEngine@@QAEXXZ @ 88 NONAME ; void MpEngine::reopenCollection(void)
	?songsDeleted@MpEngine@@IAEX_N@Z @ 89 NONAME ; void MpEngine::songsDeleted(bool)
	?refreshLibrary@MpEngine@@QAEX_N@Z @ 90 NONAME ; void MpEngine::refreshLibrary(bool)
	?qt_metacast@MpEngine@@UAEPAXPBD@Z @ 91 NONAME ; void * MpEngine::qt_metacast(char const *)
	?startSeekForward@MpEngine@@QAEXXZ @ 92 NONAME ; void MpEngine::startSeekForward(void)
	?saveToPlaylist@MpEngine@@QAEXHAAV?$QList@H@@@Z @ 93 NONAME ; void MpEngine::saveToPlaylist(int, class QList<int> &)
	?qt_metacall@MpEngineFactory@@UAEHW4Call@QMetaObject@@HPAPAX@Z @ 94 NONAME ; int MpEngineFactory::qt_metacall(enum QMetaObject::Call, int, void * *)
	?qt_metacall@MpSongScanner@@UAEHW4Call@QMetaObject@@HPAPAX@Z @ 95 NONAME ; int MpSongScanner::qt_metacall(enum QMetaObject::Call, int, void * *)
	?tr@MpEngineFactory@@SA?AVQString@@PBD0H@Z @ 96 NONAME ; class QString MpEngineFactory::tr(char const *, char const *, int)
	?createSharedEngine@MpEngineFactory@@SAPAVMpEngine@@IW4EngineMode@2@@Z @ 97 NONAME ; class MpEngine * MpEngineFactory::createSharedEngine(unsigned int, enum MpEngine::EngineMode)
	?findPlaylists@MpEngine@@QAEXAAVQStringList@@@Z @ 98 NONAME ; void MpEngine::findPlaylists(class QStringList &)
	?isAutomaticScan@MpSongScanner@@QAE_NXZ @ 99 NONAME ; bool MpSongScanner::isAutomaticScan(void)
	??1MpEngineFactory@@UAE@XZ @ 100 NONAME ; MpEngineFactory::~MpEngineFactory(void)
	?handleCorruptedStop@MpEngine@@QAEX_N@Z @ 101 NONAME ; void MpEngine::handleCorruptedStop(bool)
	?libraryUpdateStarted@MpEngine@@IAEXXZ @ 102 NONAME ; void MpEngine::libraryUpdateStarted(void)
	?staticMetaObject@MpEngineFactory@@2UQMetaObject@@B @ 103 NONAME ; struct QMetaObject const MpEngineFactory::staticMetaObject
	?autoRefreshLibrary@MpEngine@@AAEX_N@Z @ 104 NONAME ; void MpEngine::autoRefreshLibrary(bool)
	?pause@MpEngine@@QAEXXZ @ 105 NONAME ; void MpEngine::pause(void)
	?playEmbedded@MpEngine@@QAEXVQString@@@Z @ 106 NONAME ; void MpEngine::playEmbedded(class QString)
	?shuffleAll@MpEngine@@QAEXXZ @ 107 NONAME ; void MpEngine::shuffleAll(void)
	?metaObject@MpSongScanner@@UBEPBUQMetaObject@@XZ @ 108 NONAME ; struct QMetaObject const * MpSongScanner::metaObject(void) const
	?renamePlaylist@MpEngine@@QAEXAAVQString@@@Z @ 109 NONAME ; void MpEngine::renamePlaylist(class QString &)
	?setRepeat@MpEngine@@QAEX_N@Z @ 110 NONAME ; void MpEngine::setRepeat(bool)
	?trUtf8@MpEngineFactory@@SA?AVQString@@PBD0@Z @ 111 NONAME ; class QString MpEngineFactory::trUtf8(char const *, char const *)
	?cancelCollectionRequest@MpEngine@@QAEXXZ @ 112 NONAME ; void MpEngine::cancelCollectionRequest(void)
	?increaseVolume@MpEngine@@QAEXXZ @ 113 NONAME ; void MpEngine::increaseVolume(void)
	?corruptedStop@MpEngine@@IAEXXZ @ 114 NONAME ; void MpEngine::corruptedStop(void)
	?containerContentsChanged@MpEngine@@IAEXXZ @ 115 NONAME ; void MpEngine::containerContentsChanged(void)
	?initialize@MpEngine@@AAEXIW4EngineMode@1@@Z @ 116 NONAME ; void MpEngine::initialize(unsigned int, enum MpEngine::EngineMode)
	?playPause@MpEngine@@QAEXXZ @ 117 NONAME ; void MpEngine::playPause(void)
	?playlistsRenamed@MpEngine@@IAEX_N@Z @ 118 NONAME ; void MpEngine::playlistsRenamed(bool)
	?startSeekBackward@MpEngine@@QAEXXZ @ 119 NONAME ; void MpEngine::startSeekBackward(void)
	?tr@MpEngineFactory@@SA?AVQString@@PBD0@Z @ 120 NONAME ; class QString MpEngineFactory::tr(char const *, char const *)
	?playEmbedded@MpEngine@@QAEXABVXQSharableFile@@@Z @ 121 NONAME ; void MpEngine::playEmbedded(class XQSharableFile const &)
	?retrieveSongDetails@MpEngine@@QAEXH@Z @ 122 NONAME ; void MpEngine::retrieveSongDetails(int)
	?handleUsbMtpStartEvent@MpEngine@@AAEXXZ @ 123 NONAME ; void MpEngine::handleUsbMtpStartEvent(void)
	?cancelScan@MpSongScanner@@QAEXXZ @ 124 NONAME ; void MpSongScanner::cancelScan(void)
	?trUtf8@MpSongScanner@@SA?AVQString@@PBD0@Z @ 125 NONAME ; class QString MpSongScanner::trUtf8(char const *, char const *)
	?activePreset@MpEngine@@QAEHXZ @ 126 NONAME ; int MpEngine::activePreset(void)
	?handleUsbEvent@MpEngine@@QAEXW4MpxUsbEvents@@@Z @ 127 NONAME ; void MpEngine::handleUsbEvent(enum MpxUsbEvents)
	?loadActivityData@MpEngine@@QAEXABVQByteArray@@@Z @ 128 NONAME ; void MpEngine::loadActivityData(class QByteArray const &)
	?sharedEngine@MpEngineFactory@@SAPAVMpEngine@@XZ @ 129 NONAME ; class MpEngine * MpEngineFactory::sharedEngine(void)
	?balance@MpEngine@@QAEHXZ @ 130 NONAME ; int MpEngine::balance(void)
	?usbBlocked@MpEngine@@IAEX_N@Z @ 131 NONAME ; void MpEngine::usbBlocked(bool)
	?handleUsbMtpNotActive@MpEngine@@AAEXXZ @ 132 NONAME ; void MpEngine::handleUsbMtpNotActive(void)
	?restorePathFailed@MpEngine@@IAEXXZ @ 133 NONAME ; void MpEngine::restorePathFailed(void)
	?handleScanEnded@MpSongScanner@@QAEXHH@Z @ 134 NONAME ; void MpSongScanner::handleScanEnded(int, int)
	?staticMetaObject@MpSongScanner@@2UQMetaObject@@B @ 135 NONAME ; struct QMetaObject const MpSongScanner::staticMetaObject
	?handleScanEnded@MpEngine@@QAEXHH@Z @ 136 NONAME ; void MpEngine::handleScanEnded(int, int)
	??_EMpEngine@@UAE@I@Z @ 137 NONAME ; MpEngine::~MpEngine(unsigned int)
	?play@MpEngine@@QAEXXZ @ 138 NONAME ; void MpEngine::play(void)
	?skipBackward@MpEngine@@QAEXXZ @ 139 NONAME ; void MpEngine::skipBackward(void)
	?qt_metacast@MpSongScanner@@UAEPAXPBD@Z @ 140 NONAME ; void * MpSongScanner::qt_metacast(char const *)
	?reorderPlaylist@MpEngine@@QAEXHHHH@Z @ 141 NONAME ; void MpEngine::reorderPlaylist(int, int, int, int)
	?scanFinished@MpSongScanner@@IAEXHH@Z @ 142 NONAME ; void MpSongScanner::scanFinished(int, int)
	?setLoudness@MpEngine@@QAEX_N@Z @ 143 NONAME ; void MpEngine::setLoudness(bool)
	?handleScanStarted@MpSongScanner@@QAEXXZ @ 144 NONAME ; void MpSongScanner::handleScanStarted(void)
	?handleCollectionPlaylistOpened@MpEngine@@QAEXXZ @ 145 NONAME ; void MpEngine::handleCollectionPlaylistOpened(void)

