EXPORTS
	_ZN11PhoneAction10setCommandEi @ 1 NONAME
	_ZN11PhoneAction11setDisabledEb @ 2 NONAME
	_ZN11PhoneAction13setActionRoleENS_10ActionRoleE @ 3 NONAME
	_ZN11PhoneAction7setIconE6HbIcon @ 4 NONAME
	_ZN11PhoneAction7setTextE7QString @ 5 NONAME
	_ZN11PhoneActionC1Ev @ 6 NONAME
	_ZN11PhoneActionC2Ev @ 7 NONAME
	_ZN11PhoneActionD1Ev @ 8 NONAME
	_ZN11PhoneActionD2Ev @ 9 NONAME
	_ZN13PhoneUIQtView10keyPressedEP9QKeyEvent @ 10 NONAME
	_ZN13PhoneUIQtView11dialpadTextEv @ 11 NONAME
	_ZN13PhoneUIQtView11eventFilterEP7QObjectP6QEvent @ 12 NONAME
	_ZN13PhoneUIQtView11hideDialpadEv @ 13 NONAME
	_ZN13PhoneUIQtView11hideToolbarEv @ 14 NONAME
	_ZN13PhoneUIQtView11keyReleasedEP9QKeyEvent @ 15 NONAME
	_ZN13PhoneUIQtView11qt_metacallEN11QMetaObject4CallEiPPv @ 16 NONAME
	_ZN13PhoneUIQtView11qt_metacastEPKc @ 17 NONAME
	_ZN13PhoneUIQtView11showDialpadEv @ 18 NONAME
	_ZN13PhoneUIQtView11showToolbarEv @ 19 NONAME
	_ZN13PhoneUIQtView13bubbleManagerEv @ 20 NONAME
	_ZN13PhoneUIQtView13dialpadClosedEv @ 21 NONAME
	_ZN13PhoneUIQtView13menuReferenceEv @ 22 NONAME
	_ZN13PhoneUIQtView13setActionRoleERK11PhoneActionR8HbAction @ 23 NONAME
	_ZN13PhoneUIQtView14setMenuActionsERK5QListIP11PhoneActionE @ 24 NONAME
	_ZN13PhoneUIQtView15setExpandActionEii @ 25 NONAME
	_ZN13PhoneUIQtView16addBubbleCommandEiRK11PhoneAction @ 26 NONAME
	_ZN13PhoneUIQtView16isDialpadVisibleEv @ 27 NONAME
	_ZN13PhoneUIQtView16shutdownPhoneAppEv @ 28 NONAME
	_ZN13PhoneUIQtView16staticMetaObjectE @ 29 NONAME DATA 16
	_ZN13PhoneUIQtView17backButtonClickedEv @ 30 NONAME
	_ZN13PhoneUIQtView17bringToForegroundEv @ 31 NONAME
	_ZN13PhoneUIQtView17setToolbarActionsERK5QListIP11PhoneActionE @ 32 NONAME
	_ZN13PhoneUIQtView17volumeSliderValueEv @ 33 NONAME
	_ZN13PhoneUIQtView18removeExpandActionEi @ 34 NONAME
	_ZN13PhoneUIQtView18removeVolumeSliderEv @ 35 NONAME
	_ZN13PhoneUIQtView18setDialpadPositionEv @ 36 NONAME
	_ZN13PhoneUIQtView18volumeSliderClosedEv @ 37 NONAME
	_ZN13PhoneUIQtView19clearAndHideDialpadEv @ 38 NONAME
	_ZN13PhoneUIQtView19clearBubbleCommandsEi @ 39 NONAME
	_ZN13PhoneUIQtView19getStaticMetaObjectEv @ 40 NONAME
	_ZN13PhoneUIQtView19volumeSliderChangedEi @ 41 NONAME
	_ZN13PhoneUIQtView20createToolBarActionsEv @ 42 NONAME
	_ZN13PhoneUIQtView20setBackButtonVisibleEb @ 43 NONAME
	_ZN13PhoneUIQtView20setVolumeSliderValueEiiii @ 44 NONAME
	_ZN13PhoneUIQtView21dialpadIsAboutToCloseEv @ 45 NONAME
	_ZN13PhoneUIQtView22onEditorContentChangedEv @ 46 NONAME
	_ZN13PhoneUIQtView23handleOrientationChangeEN2Qt11OrientationE @ 47 NONAME
	_ZN13PhoneUIQtView24addParticipantListActionEiRK7QStringRK6HbIcon @ 48 NONAME
	_ZN13PhoneUIQtView27clearParticipantListActionsEv @ 49 NONAME
	_ZN13PhoneUIQtView7commandEi @ 50 NONAME
	_ZN13PhoneUIQtViewC1ER12HbMainWindowP13QGraphicsItem @ 51 NONAME
	_ZN13PhoneUIQtViewC2ER12HbMainWindowP13QGraphicsItem @ 52 NONAME
	_ZN13PhoneUIQtViewD0Ev @ 53 NONAME
	_ZN13PhoneUIQtViewD1Ev @ 54 NONAME
	_ZN13PhoneUIQtViewD2Ev @ 55 NONAME
	_ZNK11PhoneAction10actionRoleEv @ 56 NONAME
	_ZNK11PhoneAction10isDisabledEv @ 57 NONAME
	_ZNK11PhoneAction4iconEv @ 58 NONAME
	_ZNK11PhoneAction4textEv @ 59 NONAME
	_ZNK11PhoneAction7commandEv @ 60 NONAME
	_ZNK13PhoneUIQtView10metaObjectEv @ 61 NONAME
	_ZTI13PhoneUIQtView @ 62 NONAME
	_ZTV13PhoneUIQtView @ 63 NONAME
	_ZThn16_N13PhoneUIQtViewD0Ev @ 64 NONAME
	_ZThn16_N13PhoneUIQtViewD1Ev @ 65 NONAME
	_ZThn28_N13PhoneUIQtView11dialpadTextEv @ 66 NONAME
	_ZThn28_N13PhoneUIQtView11hideDialpadEv @ 67 NONAME
	_ZThn28_N13PhoneUIQtView11hideToolbarEv @ 68 NONAME
	_ZThn28_N13PhoneUIQtView11showDialpadEv @ 69 NONAME
	_ZThn28_N13PhoneUIQtView11showToolbarEv @ 70 NONAME
	_ZThn28_N13PhoneUIQtView13bubbleManagerEv @ 71 NONAME
	_ZThn28_N13PhoneUIQtView13menuReferenceEv @ 72 NONAME
	_ZThn28_N13PhoneUIQtView14setMenuActionsERK5QListIP11PhoneActionE @ 73 NONAME
	_ZThn28_N13PhoneUIQtView15setExpandActionEii @ 74 NONAME
	_ZThn28_N13PhoneUIQtView16addBubbleCommandEiRK11PhoneAction @ 75 NONAME
	_ZThn28_N13PhoneUIQtView16isDialpadVisibleEv @ 76 NONAME
	_ZThn28_N13PhoneUIQtView16shutdownPhoneAppEv @ 77 NONAME
	_ZThn28_N13PhoneUIQtView17bringToForegroundEv @ 78 NONAME
	_ZThn28_N13PhoneUIQtView17setToolbarActionsERK5QListIP11PhoneActionE @ 79 NONAME
	_ZThn28_N13PhoneUIQtView17volumeSliderValueEv @ 80 NONAME
	_ZThn28_N13PhoneUIQtView18removeExpandActionEi @ 81 NONAME
	_ZThn28_N13PhoneUIQtView18removeVolumeSliderEv @ 82 NONAME
	_ZThn28_N13PhoneUIQtView19clearAndHideDialpadEv @ 83 NONAME
	_ZThn28_N13PhoneUIQtView19clearBubbleCommandsEi @ 84 NONAME
	_ZThn28_N13PhoneUIQtView20setBackButtonVisibleEb @ 85 NONAME
	_ZThn28_N13PhoneUIQtView20setVolumeSliderValueEiiii @ 86 NONAME
	_ZThn28_N13PhoneUIQtView24addParticipantListActionEiRK7QStringRK6HbIcon @ 87 NONAME
	_ZThn28_N13PhoneUIQtView27clearParticipantListActionsEv @ 88 NONAME
	_ZThn8_N13PhoneUIQtViewD0Ev @ 89 NONAME
	_ZThn8_N13PhoneUIQtViewD1Ev @ 90 NONAME
	_ZN13PhoneUIQtView18networkNameChangedEN10QtMobility18QSystemNetworkInfo11NetworkModeERK7QString @ 91 NONAME
	_ZN13PhoneUIQtView15windowActivatedEv @ 92 NONAME
	_ZN13PhoneUIQtView17windowDeactivatedEv @ 93 NONAME
	_ZN13PhoneUIQtView12clearDialpadEv @ 94 NONAME
	_ZThn28_N13PhoneUIQtView12clearDialpadEv @ 95 NONAME
	_ZN13PhoneUIQtView10captureKeyEN2Qt3KeyEb @ 96 NONAME
	_ZThn28_N13PhoneUIQtView10captureKeyEN2Qt3KeyEb @ 97 NONAME
	_ZN13PhoneUIQtView17setRestrictedModeEb @ 98 NONAME
	_ZThn28_N13PhoneUIQtView17setRestrictedModeEb @ 99 NONAME
	_ZN13PhoneUIQtView20updateMenuVisibilityEv @ 100 NONAME

