EXPORTS
	??1CGlxSingletonStore@@UAE@XZ @ 1 NONAME ; CGlxSingletonStore::~CGlxSingletonStore(void)
	?AddContainerCommandLC@TGlxCommandFactory@@SAPAVCMPXMedia@@ABVTDesC16@@H@Z @ 2 NONAME ; class CMPXMedia * TGlxCommandFactory::AddContainerCommandLC(class TDesC16 const &, int)
	?AddToContainerCommandLC@TGlxCommandFactory@@SAPAVCMPXMedia@@ABVCMPXCollectionPath@@0@Z @ 3 NONAME ; class CMPXMedia * TGlxCommandFactory::AddToContainerCommandLC(class CMPXCollectionPath const &, class CMPXCollectionPath const &)
	?AddToContainerCommandLC@TGlxCommandFactory@@SAPAVCMPXMedia@@ABVTDesC16@@ABVCMPXCollectionPath@@@Z @ 4 NONAME ; class CMPXMedia * TGlxCommandFactory::AddToContainerCommandLC(class TDesC16 const &, class CMPXCollectionPath const &)
	?BasicCommandLC@TGlxCommandFactory@@SAPAVCMPXMedia@@HABVCMPXCollectionPath@@@Z @ 5 NONAME ; class CMPXMedia * TGlxCommandFactory::BasicCommandLC(int, class CMPXCollectionPath const &)
	?Close@CGlxSettingsModel@@QAEXXZ @ 6 NONAME ; void CGlxSettingsModel::Close(void)
	?Close@CGlxSingletonStore@@SAXPAVCBase@@@Z @ 7 NONAME ; void CGlxSingletonStore::Close(class CBase *)
	?CopyCommandLC@TGlxCommandFactory@@SAPAVCMPXMedia@@ABVTDesC16@@ABVCMPXCollectionPath@@@Z @ 8 NONAME ; class CMPXMedia * TGlxCommandFactory::CopyCommandLC(class TDesC16 const &, class CMPXCollectionPath const &)
	?CreateAlphabeticSortFilterL@TGlxFilterFactory@@SAPAVCMPXMedia@@W4TGlxFilterSortDirection@@@Z @ 9 NONAME ; class CMPXMedia * TGlxFilterFactory::CreateAlphabeticSortFilterL(enum TGlxFilterSortDirection)
	?CreateCameraAlbumInclusionFilterL@TGlxFilterFactory@@SAPAVCMPXMedia@@XZ @ 10 NONAME ABSENT ; class CMPXMedia * TGlxFilterFactory::CreateCameraAlbumInclusionFilterL(void)
	?CreateCaptureDateSortFilterL@TGlxFilterFactory@@SAPAVCMPXMedia@@W4TGlxFilterSortDirection@@@Z @ 11 NONAME ; class CMPXMedia * TGlxFilterFactory::CreateCaptureDateSortFilterL(enum TGlxFilterSortDirection)
	?CreateCombinedFilterL@TGlxFilterFactory@@SAPAVCMPXMedia@@ABVTGlxFilterProperties@@PAV2@H@Z @ 12 NONAME ; class CMPXMedia * TGlxFilterFactory::CreateCombinedFilterL(class TGlxFilterProperties const &, class CMPXMedia *, int)
	?CreateExcludeAnimationFilterL@TGlxFilterFactory@@SAPAVCMPXMedia@@W4TGlxFilterSortDirection@@@Z @ 13 NONAME ; class CMPXMedia * TGlxFilterFactory::CreateExcludeAnimationFilterL(enum TGlxFilterSortDirection)
	?CreateExcludeContainersWithoutItemFilterL@TGlxFilterFactory@@SAPAVCMPXMedia@@VTGlxMediaId@@@Z @ 14 NONAME ; class CMPXMedia * TGlxFilterFactory::CreateExcludeContainersWithoutItemFilterL(class TGlxMediaId)
	?CreateExcludeEmptyContainersFilterL@TGlxFilterFactory@@SAPAVCMPXMedia@@PAV2@@Z @ 15 NONAME ; class CMPXMedia * TGlxFilterFactory::CreateExcludeEmptyContainersFilterL(class CMPXMedia *)
	?CreateIncludeEmptyContainersFilterL@TGlxFilterFactory@@SAPAVCMPXMedia@@PAV2@@Z @ 16 NONAME ; class CMPXMedia * TGlxFilterFactory::CreateIncludeEmptyContainersFilterL(class CMPXMedia *)
	?CreateItemCountSortFilterL@TGlxFilterFactory@@SAPAVCMPXMedia@@W4TGlxFilterSortDirection@@@Z @ 17 NONAME ; class CMPXMedia * TGlxFilterFactory::CreateItemCountSortFilterL(enum TGlxFilterSortDirection)
	?CreateItemTypeFilterL@TGlxFilterFactory@@SAPAVCMPXMedia@@W4TGlxFilterItemType@@@Z @ 18 NONAME ; class CMPXMedia * TGlxFilterFactory::CreateItemTypeFilterL(enum TGlxFilterItemType)
	?CreateLastCaptureDateFilterL@TGlxFilterFactory@@SAPAVCMPXMedia@@XZ @ 19 NONAME ; class CMPXMedia * TGlxFilterFactory::CreateLastCaptureDateFilterL(void)
	?CreateModifiedDateFilterL@TGlxFilterFactory@@SAPAVCMPXMedia@@W4TGlxFilterSortDirection@@@Z @ 20 NONAME ; class CMPXMedia * TGlxFilterFactory::CreateModifiedDateFilterL(enum TGlxFilterSortDirection)
	?CreateSlideShowFilterFromExistingFilterL@TGlxFilterFactory@@SAPAVCMPXMedia@@PAV2@PAVCMPXCollectionPath@@H@Z @ 21 NONAME ; class CMPXMedia * TGlxFilterFactory::CreateSlideShowFilterFromExistingFilterL(class CMPXMedia *, class CMPXCollectionPath *, int)
	?CreateSlideShowFilterL@TGlxFilterFactory@@SAPAVCMPXMedia@@PAVCMPXCollectionPath@@W4TGlxFilterSortDirection@@W4TGlxFilterSortOrder@@@Z @ 22 NONAME ; class CMPXMedia * TGlxFilterFactory::CreateSlideShowFilterL(class CMPXCollectionPath *, enum TGlxFilterSortDirection, enum TGlxFilterSortOrder)
	?CreateThumbnailLoadabilityFilterL@TGlxFilterFactory@@SAPAVCMPXMedia@@VTSize@@@Z @ 23 NONAME ; class CMPXMedia * TGlxFilterFactory::CreateThumbnailLoadabilityFilterL(class TSize)
	?CreateURIFilterL@TGlxFilterFactory@@SAPAVCMPXMedia@@ABVTDesC16@@@Z @ 24 NONAME ; class CMPXMedia * TGlxFilterFactory::CreateURIFilterL(class TDesC16 const &)
	?DeleteCommandLC@TGlxCommandFactory@@SAPAVCMPXMedia@@ABVCMPXCollectionPath@@@Z @ 25 NONAME ; class CMPXMedia * TGlxCommandFactory::DeleteCommandLC(class CMPXCollectionPath const &)
	?DeleteLocationCommandLC@TGlxCommandFactory@@SAPAVCMPXMedia@@ABVCMPXCollectionPath@@@Z @ 26 NONAME ; class CMPXMedia * TGlxCommandFactory::DeleteLocationCommandLC(class CMPXCollectionPath const &)
	?ExtractAttributes@TGlxFilterFactory@@SA?AVTGlxFilterProperties@@PAVCMPXMedia@@@Z @ 27 NONAME ; class TGlxFilterProperties TGlxFilterFactory::ExtractAttributes(class CMPXMedia *)
	?GetResourceFilenameL@CGlxResourceUtilities@@SAXAAV?$TBuf@$0BAA@@@@Z @ 28 NONAME ; void CGlxResourceUtilities::GetResourceFilenameL(class TBuf<256> &)
	?GetResourceFilenameL@CGlxResourceUtilities@@SAXAAV?$TBuf@$0BAA@@@AAVRFs@@@Z @ 29 NONAME ; void CGlxResourceUtilities::GetResourceFilenameL(class TBuf<256> &, class RFs &)
	?IdsL@TGlxCommandParser@@SAHAAVTUid@@AAKABVCMPXMedia@@@Z @ 30 NONAME ; int TGlxCommandParser::IdsL(class TUid &, unsigned long &, class CMPXMedia const &)
	?InstanceL@CGlxSettingsModel@@SAPAV1@XZ @ 31 NONAME ; class CGlxSettingsModel * CGlxSettingsModel::InstanceL(void)
	?InstanceLC@CGlxSingletonStore@@CAPAV1@XZ @ 32 NONAME ; class CGlxSingletonStore * CGlxSingletonStore::InstanceLC(void)
	?IsTextEntryPortrait@CGlxSettingsModel@@QAEHXZ @ 33 NONAME ; int CGlxSettingsModel::IsTextEntryPortrait(void)
	?MoveCommandLC@TGlxCommandFactory@@SAPAVCMPXMedia@@ABVTDesC16@@ABVCMPXCollectionPath@@@Z @ 34 NONAME ; class CMPXMedia * TGlxCommandFactory::MoveCommandLC(class TDesC16 const &, class CMPXCollectionPath const &)
	?ParseL@TGlxCommandParser@@SAXAAVMGlxCommandParserCallback@@ABVCMPXMedia@@@Z @ 35 NONAME ; void TGlxCommandParser::ParseL(class MGlxCommandParserCallback &, class CMPXMedia const &)
	?RemoveFromContainerCommandLC@TGlxCommandFactory@@SAPAVCMPXMedia@@ABVCMPXCollectionPath@@@Z @ 36 NONAME ; class CMPXMedia * TGlxCommandFactory::RemoveFromContainerCommandLC(class CMPXCollectionPath const &)
	?RemoveFromContainerCommandLC@TGlxCommandFactory@@SAPAVCMPXMedia@@VTGlxMediaId@@ABVCMPXCollectionPath@@@Z @ 37 NONAME ; class CMPXMedia * TGlxCommandFactory::RemoveFromContainerCommandLC(class TGlxMediaId, class CMPXCollectionPath const &)
	?RenameCommandLC@TGlxCommandFactory@@SAPAVCMPXMedia@@ABVTDesC16@@ABVCMPXCollectionPath@@@Z @ 38 NONAME ; class CMPXMedia * TGlxCommandFactory::RenameCommandLC(class TDesC16 const &, class CMPXCollectionPath const &)
	?SetDescriptionCommandLC@TGlxCommandFactory@@SAPAVCMPXMedia@@ABVTDesC16@@ABVCMPXCollectionPath@@@Z @ 39 NONAME ; class CMPXMedia * TGlxCommandFactory::SetDescriptionCommandLC(class TDesC16 const &, class CMPXCollectionPath const &)
	?ShowRotateInToolbar@CGlxSettingsModel@@QAEHXZ @ 40 NONAME ; int CGlxSettingsModel::ShowRotateInToolbar(void)
	?ShowSlideshowInToolbar@CGlxSettingsModel@@QAEHXZ @ 41 NONAME ; int CGlxSettingsModel::ShowSlideshowInToolbar(void)
	?SupportedOrientations@CGlxSettingsModel@@QAE?AW4TSupportedOrientations@1@XZ @ 42 NONAME ; enum CGlxSettingsModel::TSupportedOrientations CGlxSettingsModel::SupportedOrientations(void)
	?ThumbnailCleanupCommandLC@TGlxCommandFactory@@SAPAVCMPXMedia@@XZ @ 43 NONAME ; class CMPXMedia * TGlxCommandFactory::ThumbnailCleanupCommandLC(void)
	?CreatePreviewFilterL@TGlxFilterFactory@@SAPAVCMPXMedia@@XZ @ 44 NONAME ; class CMPXMedia * TGlxFilterFactory::CreatePreviewFilterL(void)
	?CreateCameraAlbumExclusionFilterL@TGlxFilterFactory@@SAPAVCMPXMedia@@XZ @ 45 NONAME ; class CMPXMedia * TGlxFilterFactory::CreateCameraAlbumExclusionFilterL(void)
	?NewL@CGlxTNMonitor@@SAPAV1@PAVMGlxTNObserver@@@Z @ 46 NONAME ; class CGlxTNMonitor * CGlxTNMonitor::NewL(class MGlxTNObserver *)
	?CreateExcludeDrmImageTypeFilterL@TGlxFilterFactory@@SAPAVCMPXMedia@@W4TGlxFilterItemType@@@Z @ 47 NONAME ; class CMPXMedia * TGlxFilterFactory::CreateExcludeDrmImageTypeFilterL(enum TGlxFilterItemType)
	?CreateMimeTypeFilterL@TGlxFilterFactory@@SAPAVCMPXMedia@@ABVTDesC16@@@Z @ 48 NONAME ; class CMPXMedia * TGlxFilterFactory::CreateMimeTypeFilterL(class TDesC16 const &)

