EXPORTS
	_ZN17CTransportManager13SocketFactoryEv @ 1 NONAME
	_ZN17CTransportManager4NewLEiR11RConnection @ 2 NONAME
	_ZN17CTransportManagerD0Ev @ 3 NONAME
	_ZN17CTransportManagerD1Ev @ 4 NONAME
	_ZN17CTransportManagerD2Ev @ 5 NONAME
	_ZTI13CSocketReader @ 6 NONAME DATA 32 ; #<TI>#
	_ZTI13CSocketWriter @ 7 NONAME DATA 32 ; #<TI>#
	_ZTI16CSocketConnector @ 8 NONAME DATA 32 ; #<TI>#
	_ZTI17CSocketController @ 9 NONAME DATA 32 ; #<TI>#
	_ZTI17CTransportManager @ 10 NONAME DATA 32 ; #<TI>#
	_ZTI18CTcpTransportLayer @ 11 NONAME DATA 64 ; #<TI>#
	_ZTI23CSecureSocketController @ 12 NONAME DATA 12 ; #<TI>#
	_ZTI7CSocket @ 13 NONAME DATA 12 ; #<TI>#
	_ZTV13CSocketReader @ 14 NONAME DATA 88 ; #<VT>#
	_ZTV13CSocketWriter @ 15 NONAME DATA 104 ; #<VT>#
	_ZTV16CSocketConnector @ 16 NONAME DATA 48 ; #<VT>#
	_ZTV17CSocketController @ 17 NONAME DATA 60 ; #<VT>#
	_ZTV17CTransportManager @ 18 NONAME DATA 60 ; #<VT>#
	_ZTV18CTcpTransportLayer @ 19 NONAME DATA 140 ; #<VT>#
	_ZTV23CSecureSocketController @ 20 NONAME DATA 20 ; #<VT>#
	_ZTV7CSocket @ 21 NONAME DATA 20 ; #<VT>#

