EXPORTS
	_ZN12CntListModel10showMyCardEb @ 1 NONAME
	_ZN12CntListModel11handleAddedERK5QListIjE @ 2 NONAME
	_ZN12CntListModel11qt_metacallEN11QMetaObject4CallEiPPv @ 3 NONAME
	_ZN12CntListModel11qt_metacastEPKc @ 4 NONAME
	_ZN12CntListModel12refreshModelEv @ 5 NONAME
	_ZN12CntListModel13handleChangedERK5QListIjE @ 6 NONAME
	_ZN12CntListModel13handleRemovedERK5QListIjE @ 7 NONAME
	_ZN12CntListModel16staticMetaObjectE @ 8 NONAME DATA 16
	_ZN12CntListModel19getStaticMetaObjectEv @ 9 NONAME
	_ZN12CntListModel19handleMyCardChangedERKjS1_ @ 10 NONAME
	_ZN12CntListModel19updateRelationshipsEv @ 11 NONAME
	_ZN12CntListModel21updateContactIdsArrayEv @ 12 NONAME
	_ZN12CntListModel23handleAddedRelationshipERK5QListIjE @ 13 NONAME
	_ZN12CntListModel23handleRowSettingChangedERK13XQSettingsKeyRK8QVariant @ 14 NONAME
	_ZN12CntListModel24handleContactInfoUpdatedEj @ 15 NONAME
	_ZN12CntListModel25handleRemovedRelationshipERK5QListIjE @ 16 NONAME
	_ZN12CntListModel9setFilterERKN10QtMobility14QContactFilterE @ 17 NONAME
	_ZN12CntListModelC1EPN10QtMobility15QContactManagerERKNS0_14QContactFilterEbP7QObject @ 18 NONAME
	_ZN12CntListModelC2EPN10QtMobility15QContactManagerERKNS0_14QContactFilterEbP7QObject @ 19 NONAME
	_ZN12CntListModelD0Ev @ 20 NONAME
	_ZN12CntListModelD1Ev @ 21 NONAME
	_ZN12CntListModelD2Ev @ 22 NONAME
	_ZNK12CntListModel10metaObjectEv @ 23 NONAME
	_ZNK12CntListModel10validRowIdEi @ 24 NONAME
	_ZNK12CntListModel11dataForRoleEii @ 25 NONAME
	_ZNK12CntListModel12myCardStatusEv @ 26 NONAME
	_ZNK12CntListModel14indexOfContactERKN10QtMobility8QContactE @ 27 NONAME
	_ZNK12CntListModel16indexOfContactIdERKj @ 28 NONAME
	_ZNK12CntListModel4dataERK11QModelIndexi @ 29 NONAME
	_ZNK12CntListModel5rowIdERKj @ 30 NONAME
	_ZNK12CntListModel7contactERK11QModelIndex @ 31 NONAME
	_ZNK12CntListModel7contactEi @ 32 NONAME
	_ZNK12CntListModel8myCardIdEv @ 33 NONAME
	_ZNK12CntListModel8rowCountERK11QModelIndex @ 34 NONAME
	_ZNK12CntListModel9contactIdERK11QModelIndex @ 35 NONAME
	_ZTI12CntListModel @ 36 NONAME
	_ZTV12CntListModel @ 37 NONAME

