EXPORTS
	_ZN13CntSimUtility10getSimInfoERi @ 1 NONAME
	_ZN13CntSimUtility11isFdnActiveEv @ 2 NONAME
	_ZN13CntSimUtility11qt_metacallEN11QMetaObject4CallEiPPv @ 3 NONAME
	_ZN13CntSimUtility11qt_metacastEPKc @ 4 NONAME
	_ZN13CntSimUtility12setFdnStatusEb @ 5 NONAME
	_ZN13CntSimUtility12simInfoReadyERNS_7SimInfoEi @ 6 NONAME
	_ZN13CntSimUtility14verifyPin2CodeEv @ 7 NONAME
	_ZN13CntSimUtility15startGetSimInfoEv @ 8 NONAME
	_ZN13CntSimUtility16RequestCompletedEi @ 9 NONAME
	_ZN13CntSimUtility16staticMetaObjectE @ 10 NONAME DATA 16
	_ZN13CntSimUtility17getLastImportTimeERi @ 11 NONAME
	_ZN13CntSimUtility17setLastImportTimeERi @ 12 NONAME
	_ZN13CntSimUtility18getAvailableStoresERi @ 13 NONAME
	_ZN13CntSimUtility19adnCacheStatusReadyERNS_11CacheStatusEi @ 14 NONAME
	_ZN13CntSimUtility19getStaticMetaObjectEv @ 15 NONAME
	_ZN13CntSimUtility20availableStoresReadyERNS_15AvailableStoresEi @ 16 NONAME
	_ZN13CntSimUtility20notifyAdnCacheStatusEv @ 17 NONAME
	_ZN13CntSimUtility23startGetAvailableStoresEv @ 18 NONAME
	_ZN13CntSimUtilityC1ENS_9StoreTypeERiP7QObject @ 19 NONAME
	_ZN13CntSimUtilityC2ENS_9StoreTypeERiP7QObject @ 20 NONAME
	_ZN13CntSimUtilityD0Ev @ 21 NONAME
	_ZN13CntSimUtilityD1Ev @ 22 NONAME
	_ZN13CntSimUtilityD2Ev @ 23 NONAME
	_ZNK13CntSimUtility10metaObjectEv @ 24 NONAME
	_ZNK13CntSimUtility13isSimInsertedEv @ 25 NONAME
	_ZNK13CntSimUtility17ParseServiceTableEPNS_15AvailableStoresE @ 26 NONAME
	_ZTI13CntSimUtility @ 27 NONAME
	_ZTV13CntSimUtility @ 28 NONAME

