EXPORTS
	_Z22createCpPluginItemDataP27CpCreatePluginItemDataEvent @ 1 NONAME
	_ZN14CpTaskExecutor11qt_metacallEN11QMetaObject4CallEiPPv @ 2 NONAME
	_ZN14CpTaskExecutor11qt_metacastEPKc @ 3 NONAME
	_ZN14CpTaskExecutor11removeTasksEv @ 4 NONAME
	_ZN14CpTaskExecutor14globalInstanceEv @ 5 NONAME
	_ZN14CpTaskExecutor16staticMetaObjectE @ 6 NONAME DATA 16
	_ZN14CpTaskExecutor19getStaticMetaObjectEv @ 7 NONAME
	_ZN14CpTaskExecutor21destroyGlobalInstanceEv @ 8 NONAME
	_ZN14CpTaskExecutor3runEv @ 9 NONAME
	_ZN14CpTaskExecutor4stopEv @ 10 NONAME
	_ZN14CpTaskExecutor7runTaskEP6CpTaskb @ 11 NONAME
	_ZN14CpTaskExecutor7toFrontEP6CpTask @ 12 NONAME
	_ZN14CpTaskExecutorC1EP7QObject @ 13 NONAME
	_ZN14CpTaskExecutorC2EP7QObject @ 14 NONAME
	_ZN14CpTaskExecutorD0Ev @ 15 NONAME
	_ZN14CpTaskExecutorD1Ev @ 16 NONAME
	_ZN14CpTaskExecutorD2Ev @ 17 NONAME
	_ZN26CpCategorySettingFormModel10initializeER16CpItemDataHelper @ 18 NONAME
	_ZN26CpCategorySettingFormModel11qt_metacallEN11QMetaObject4CallEiPPv @ 19 NONAME
	_ZN26CpCategorySettingFormModel11qt_metacastEPKc @ 20 NONAME
	_ZN26CpCategorySettingFormModel16staticMetaObjectE @ 21 NONAME DATA 16
	_ZN26CpCategorySettingFormModel19getStaticMetaObjectEv @ 22 NONAME
	_ZN26CpCategorySettingFormModel25afterLoadingConfigPluginsER16CpItemDataHelper @ 23 NONAME
	_ZN26CpCategorySettingFormModel26beforeLoadingConfigPluginsER16CpItemDataHelper @ 24 NONAME
	_ZN26CpCategorySettingFormModelC1ERK7QString @ 25 NONAME
	_ZN26CpCategorySettingFormModelC2ERK7QString @ 26 NONAME
	_ZN26CpCategorySettingFormModelD0Ev @ 27 NONAME
	_ZN26CpCategorySettingFormModelD1Ev @ 28 NONAME
	_ZN26CpCategorySettingFormModelD2Ev @ 29 NONAME
	_ZN29CpCategorySettingFormItemData10initializeER16CpItemDataHelper @ 30 NONAME
	_ZN29CpCategorySettingFormItemData11qt_metacallEN11QMetaObject4CallEiPPv @ 31 NONAME
	_ZN29CpCategorySettingFormItemData11qt_metacastEPKc @ 32 NONAME
	_ZN29CpCategorySettingFormItemData16staticMetaObjectE @ 33 NONAME DATA 16
	_ZN29CpCategorySettingFormItemData19getStaticMetaObjectEv @ 34 NONAME
	_ZN29CpCategorySettingFormItemData25afterLoadingConfigPluginsER16CpItemDataHelper @ 35 NONAME
	_ZN29CpCategorySettingFormItemData26beforeLoadingConfigPluginsER16CpItemDataHelper @ 36 NONAME
	_ZN29CpCategorySettingFormItemDataC1EN19HbDataFormModelItem12DataItemTypeERK7QStringS4_PKS0_ @ 37 NONAME
	_ZN29CpCategorySettingFormItemDataC1ERK7QStringPK19HbDataFormModelItem @ 38 NONAME
	_ZN29CpCategorySettingFormItemDataC2EN19HbDataFormModelItem12DataItemTypeERK7QStringS4_PKS0_ @ 39 NONAME
	_ZN29CpCategorySettingFormItemDataC2ERK7QStringPK19HbDataFormModelItem @ 40 NONAME
	_ZN29CpCategorySettingFormItemDataD0Ev @ 41 NONAME
	_ZN29CpCategorySettingFormItemDataD1Ev @ 42 NONAME
	_ZN29CpCategorySettingFormItemDataD2Ev @ 43 NONAME
	_ZNK14CpTaskExecutor10metaObjectEv @ 44 NONAME
	_ZNK26CpCategorySettingFormModel10metaObjectEv @ 45 NONAME
	_ZNK29CpCategorySettingFormItemData10metaObjectEv @ 46 NONAME
	_ZTI14CpTaskExecutor @ 47 NONAME
	_ZTI26CpCategorySettingFormModel @ 48 NONAME
	_ZTI29CpCategorySettingFormItemData @ 49 NONAME
	_ZTV14CpTaskExecutor @ 50 NONAME
	_ZTV26CpCategorySettingFormModel @ 51 NONAME
	_ZTV29CpCategorySettingFormItemData @ 52 NONAME
	_ZThn8_N29CpCategorySettingFormItemDataD0Ev @ 53 NONAME
	_ZThn8_N29CpCategorySettingFormItemDataD1Ev @ 54 NONAME

