EXPORTS
	?dataChanged@GlxZoomWidget@@IAEXVQModelIndex@@0@Z @ 1 NONAME ; void GlxZoomWidget::dataChanged(class QModelIndex, class QModelIndex)
	?limitRequiredSize@GlxZoomWidget@@AAEXAAVQSizeF@@@Z @ 2 NONAME ; void GlxZoomWidget::limitRequiredSize(class QSizeF &)
	?springEffectAtMin@GlxZoomWidget@@AAEXXZ @ 3 NONAME ; void GlxZoomWidget::springEffectAtMin(void)
	?cleanUp@GlxZoomWidget@@QAEXXZ @ 4 NONAME ; void GlxZoomWidget::cleanUp(void)
	?setMinMaxZValue@GlxZoomWidget@@QAEXHH@Z @ 5 NONAME ; void GlxZoomWidget::setMinMaxZValue(int, int)
	?sendDecodeRequest@GlxZoomWidget@@QAEXH@Z @ 6 NONAME ; void GlxZoomWidget::sendDecodeRequest(int)
	??0GlxZoomWidget@@QAE@PAVQGraphicsItem@@@Z @ 7 NONAME ; GlxZoomWidget::GlxZoomWidget(class QGraphicsItem *)
	?qt_metacast@GlxZoomWidget@@UAEPAXPBD@Z @ 8 NONAME ; void * GlxZoomWidget::qt_metacast(char const *)
	?staticMetaObject@GlxZoomWidget@@2UQMetaObject@@B @ 9 NONAME ; struct QMetaObject const GlxZoomWidget::staticMetaObject
	?tr@GlxZoomWidget@@SA?AVQString@@PBD0H@Z @ 10 NONAME ; class QString GlxZoomWidget::tr(char const *, char const *, int)
	?sceneEvent@GlxZoomWidget@@MAE_NPAVQEvent@@@Z @ 11 NONAME ; bool GlxZoomWidget::sceneEvent(class QEvent *)
	?forceZoomToBackground@GlxZoomWidget@@QAEXXZ @ 12 NONAME ; void GlxZoomWidget::forceZoomToBackground(void)
	?resetDecoder@GlxZoomWidget@@AAEXXZ @ 13 NONAME ; void GlxZoomWidget::resetDecoder(void)
	?trUtf8@GlxZoomWidget@@SA?AVQString@@PBD0@Z @ 14 NONAME ; class QString GlxZoomWidget::trUtf8(char const *, char const *)
	?getFocusedImage@GlxZoomWidget@@AAE?AVQPixmap@@XZ @ 15 NONAME ; class QPixmap GlxZoomWidget::getFocusedImage(void)
	?animateDoubleTap@GlxZoomWidget@@QAEXXZ @ 16 NONAME ; void GlxZoomWidget::animateDoubleTap(void)
	?setModel@GlxZoomWidget@@QAEXPAVQAbstractItemModel@@@Z @ 17 NONAME ; void GlxZoomWidget::setModel(class QAbstractItemModel *)
	?finalizeWidgetTransform@GlxZoomWidget@@AAEXXZ @ 18 NONAME ; void GlxZoomWidget::finalizeWidgetTransform(void)
	?executeGestureEvent@GlxZoomWidget@@AAE_NPAVQGraphicsItem@@PAVQGestureEvent@@@Z @ 19 NONAME ; bool GlxZoomWidget::executeGestureEvent(class QGraphicsItem *, class QGestureEvent *)
	?zoomImage@GlxZoomWidget@@AAEXMVQPointF@@@Z @ 20 NONAME ; void GlxZoomWidget::zoomImage(float, class QPointF)
	?activate@GlxZoomWidget@@QAEXXZ @ 21 NONAME ; void GlxZoomWidget::activate(void)
	?connectDecodeRequestToPinchEvent@GlxZoomWidget@@QAEXXZ @ 22 NONAME ; void GlxZoomWidget::connectDecodeRequestToPinchEvent(void)
	?indexChanged@GlxZoomWidget@@QAEXH@Z @ 23 NONAME ; void GlxZoomWidget::indexChanged(int)
	?animateZoomIn@GlxZoomWidget@@QAEXVQPointF@@@Z @ 24 NONAME ; void GlxZoomWidget::animateZoomIn(class QPointF)
	?getStaticMetaObject@GlxZoomWidget@@SAABUQMetaObject@@XZ @ 25 NONAME ; struct QMetaObject const & GlxZoomWidget::getStaticMetaObject(void)
	?animationTimeLineFinished@GlxZoomWidget@@QAEXXZ @ 26 NONAME ; void GlxZoomWidget::animationTimeLineFinished(void)
	?isFocussedItemCorrupt@GlxZoomWidget@@AAE_NXZ @ 27 NONAME ; bool GlxZoomWidget::isFocussedItemCorrupt(void)
	?qt_metacall@GlxZoomWidget@@UAEHW4Call@QMetaObject@@HPAPAX@Z @ 28 NONAME ; int GlxZoomWidget::qt_metacall(enum QMetaObject::Call, int, void * *)
	?zoomWidgetMovedBackground@GlxZoomWidget@@IAEXH@Z @ 29 NONAME ; void GlxZoomWidget::zoomWidgetMovedBackground(int)
	?springEffectAtMax@GlxZoomWidget@@AAEXXZ @ 30 NONAME ; void GlxZoomWidget::springEffectAtMax(void)
	?indexChanged@GlxZoomWidget@@QAEXXZ @ 31 NONAME ; void GlxZoomWidget::indexChanged(void)
	?animateZoomOut@GlxZoomWidget@@QAEXVQPointF@@@Z @ 32 NONAME ; void GlxZoomWidget::animateZoomOut(class QPointF)
	?timerEvent@GlxZoomWidget@@MAEXPAVQTimerEvent@@@Z @ 33 NONAME ; void GlxZoomWidget::timerEvent(class QTimerEvent *)
	?adjustGestureCenter@GlxZoomWidget@@AAEXAAVQPointF@@AAM@Z @ 34 NONAME ; void GlxZoomWidget::adjustGestureCenter(class QPointF &, float &)
	?stepZoom@GlxZoomWidget@@IAEXXZ @ 35 NONAME ; void GlxZoomWidget::stepZoom(void)
	?metaObject@GlxZoomWidget@@UBEPBUQMetaObject@@XZ @ 36 NONAME ; struct QMetaObject const * GlxZoomWidget::metaObject(void) const
	?decodedImageAvailable@GlxZoomWidget@@QAEXXZ @ 37 NONAME ; void GlxZoomWidget::decodedImageAvailable(void)
	??_EGlxZoomWidget@@UAE@I@Z @ 38 NONAME ; GlxZoomWidget::~GlxZoomWidget(unsigned int)
	??1GlxZoomWidget@@UAE@XZ @ 39 NONAME ; GlxZoomWidget::~GlxZoomWidget(void)
	?sceneEventFilter@GlxZoomWidget@@MAE_NPAVQGraphicsItem@@PAVQEvent@@@Z @ 40 NONAME ; bool GlxZoomWidget::sceneEventFilter(class QGraphicsItem *, class QEvent *)
	?pinchGestureReceived@GlxZoomWidget@@IAEXH@Z @ 41 NONAME ; void GlxZoomWidget::pinchGestureReceived(int)
	?setZoomParams@GlxZoomWidget@@AAEXXZ @ 42 NONAME ; void GlxZoomWidget::setZoomParams(void)
	?setWindowSize@GlxZoomWidget@@QAEXVQSize@@@Z @ 43 NONAME ; void GlxZoomWidget::setWindowSize(class QSize)
	?retreiveFocusedImage@GlxZoomWidget@@AAEXXZ @ 44 NONAME ; void GlxZoomWidget::retreiveFocusedImage(void)
	?modelDestroyed@GlxZoomWidget@@IAEXXZ @ 45 NONAME ; void GlxZoomWidget::modelDestroyed(void)
	?tr@GlxZoomWidget@@SA?AVQString@@PBD0@Z @ 46 NONAME ; class QString GlxZoomWidget::tr(char const *, char const *)
	?trUtf8@GlxZoomWidget@@SA?AVQString@@PBD0H@Z @ 47 NONAME ; class QString GlxZoomWidget::trUtf8(char const *, char const *, int)

