EXPORTS
	_ZN10CFSMailBox10ExtensionLERK4TUid @ 1 NONAME
	_ZN10CFSMailBox10GoOfflineLEv @ 2 NONAME
	_ZN10CFSMailBox11ListFoldersE12TFSMailMsgIdR13RPointerArrayI13CFSMailFolderE @ 3 NONAME
	_ZN10CFSMailBox11ListFoldersEv @ 4 NONAME
	_ZN10CFSMailBox11RefreshNowLER22MFSMailRequestObserver @ 5 NONAME
	_ZN10CFSMailBox11RefreshNowLEv @ 6 NONAME
	_ZN10CFSMailBox12CancelSearchEv @ 7 NONAME
	_ZN10CFSMailBox12SendMessageLER14CFSMailMessage @ 8 NONAME
	_ZN10CFSMailBox12SendMessageLER14CFSMailMessageR22MFSMailRequestObserver @ 9 NONAME
	_ZN10CFSMailBox13CopyMessagesLERK6RArrayI12TFSMailMsgIdERS2_S1_S1_ @ 10 NONAME
	_ZN10CFSMailBox13MoveMessagesLER22MFSMailRequestObserverRK6RArrayI12TFSMailMsgIdES3_S3_ @ 11 NONAME
	_ZN10CFSMailBox13MoveMessagesLERK6RArrayI12TFSMailMsgIdES1_S1_ @ 12 NONAME
	_ZN10CFSMailBox16GetMailBoxStatusEv @ 13 NONAME
	_ZN10CFSMailBox16ReleaseExtensionEP15CEmailExtension @ 14 NONAME
	_ZN10CFSMailBox18CreateReplyMessageE12TFSMailMsgIdiRK7TDesC16 @ 15 NONAME
	_ZN10CFSMailBox19CreateMessageToSendEv @ 16 NONAME
	_ZN10CFSMailBox19CreateReplyMessageLE12TFSMailMsgIdiR22MFSMailRequestObserverRK7TDesC16 @ 17 NONAME
	_ZN10CFSMailBox19GetStandardFolderIdE13TFSFolderType @ 18 NONAME
	_ZN10CFSMailBox19UpdateMessageFlagsLE12TFSMailMsgIdR13RPointerArrayI14CFSMailMessageER22MFSMailRequestObserver @ 19 NONAME
	_ZN10CFSMailBox20CreateForwardMessageE12TFSMailMsgIdRK7TDesC16 @ 20 NONAME
	_ZN10CFSMailBox20CreateMessageToSendLER22MFSMailRequestObserver @ 21 NONAME
	_ZN10CFSMailBox21CreateForwardMessageLE12TFSMailMsgIdR22MFSMailRequestObserverRK7TDesC16 @ 22 NONAME
	_ZN10CFSMailBox22ClearSearchResultCacheEv @ 23 NONAME
	_ZN10CFSMailBox4NewLE12TFSMailMsgId @ 24 NONAME
	_ZN10CFSMailBox5NewLCE12TFSMailMsgId @ 25 NONAME
	_ZN10CFSMailBox7SearchLERK13RPointerArrayI7TDesC16ERK19TFSMailSortCriteriaR24MFSMailBoxSearchObserver @ 26 NONAME
	_ZN10CFSMailBox9GoOnlineLEv @ 27 NONAME
	_ZN10CFSMailBoxD0Ev @ 28 NONAME
	_ZN10CFSMailBoxD1Ev @ 29 NONAME
	_ZN10CFSMailBoxD2Ev @ 30 NONAME
	_ZN11NmConverter11toQDateTimeERK5TTime @ 31 NONAME
	_ZN11NmConverter15mailMsgIdToNmIdE12TFSMailMsgId @ 32 NONAME
	_ZN11NmConverter15nmIdToMailMsgIdE4NmId @ 33 NONAME
	_ZN11NmConverter15toRPointerArrayERK5QListI9NmAddressE @ 34 NONAME
	_ZN11NmConverter16qstringToHBufCLCERK7QString @ 35 NONAME
	_ZN11NmConverter21FSMailSortCriteria2NME19TFSMailSortCriteria @ 36 NONAME
	_ZN11NmConverter21NMMailSortCriteria2FSE18NmMailSortCriteria @ 37 NONAME
	_ZN11NmConverter7toTTimeERK9QDateTime @ 38 NONAME
	_ZN11NmConverter9toQStringERK7TDesC16 @ 39 NONAME
	_ZN13CFSMailFolder10ExtensionLERK4TUid @ 40 NONAME
	_ZN13CFSMailFolder13ListMessagesLE14TFSMailDetailsRK6RArrayI19TFSMailSortCriteriaE @ 41 NONAME
	_ZN13CFSMailFolder14FetchMessagesLERK6RArrayI12TFSMailMsgIdE14TFSMailDetailsR22MFSMailRequestObserver @ 42 NONAME
	_ZN13CFSMailFolder14GetSubFoldersLER13RPointerArrayIS_E @ 43 NONAME
	_ZN13CFSMailFolder14RemoveMessageLE12TFSMailMsgId @ 44 NONAME
	_ZN13CFSMailFolder14RemoveMessageLE12TFSMailMsgIdR22MFSMailRequestObserver @ 45 NONAME
	_ZN13CFSMailFolder16ReleaseExtensionEP15CEmailExtension @ 46 NONAME
	_ZN13CFSMailFolder17SupportsMoveFromLE13TFSFolderType @ 47 NONAME
	_ZN13CFSMailFolder4NewLE12TFSMailMsgId @ 48 NONAME
	_ZN13CFSMailFolder5NewLCE12TFSMailMsgId @ 49 NONAME
	_ZN13CFSMailFolderD0Ev @ 50 NONAME
	_ZN13CFSMailFolderD1Ev @ 51 NONAME
	_ZN13CFSMailFolderD2Ev @ 52 NONAME
	_ZN14CFSMailAddress12GetNmAddressEv @ 53 NONAME
	_ZN14CFSMailAddress14SetDisplayNameERK7TDesC16 @ 54 NONAME
	_ZN14CFSMailAddress15SetEmailAddressERK7TDesC16 @ 55 NONAME
	_ZN14CFSMailAddress4NewLERK9NmAddress @ 56 NONAME
	_ZN14CFSMailAddress4NewLEv @ 57 NONAME
	_ZN14CFSMailAddress5NewLCEv @ 58 NONAME
	_ZN14CFSMailAddressD0Ev @ 59 NONAME
	_ZN14CFSMailAddressD1Ev @ 60 NONAME
	_ZN14CFSMailAddressD2Ev @ 61 NONAME
	_ZN14CFSMailBoxBase10SetRCLInfoE4TUidj @ 62 NONAME
	_ZN14CFSMailBoxBase12GetNmMailboxEv @ 63 NONAME
	_ZN14CFSMailBoxBase14OwnMailAddressEv @ 64 NONAME
	_ZN14CFSMailBoxBase14SetSettingsUidE4TUid @ 65 NONAME
	_ZN14CFSMailBoxBase16MRInfoProcessorLEv @ 66 NONAME
	_ZN14CFSMailBoxBase18SetOwnMailAddressLEP14CFSMailAddress @ 67 NONAME
	_ZN14CFSMailBoxBase19SetMRInfoProcessorLEP16MMRInfoProcessor @ 68 NONAME
	_ZN14CFSMailBoxBase20IsMRInfoProcessorSetEv @ 69 NONAME
	_ZN14CFSMailBoxBase4NewLE12TFSMailMsgId @ 70 NONAME
	_ZN14CFSMailBoxBase5NewLCE12TFSMailMsgId @ 71 NONAME
	_ZN14CFSMailBoxBase7SetNameERK7TDesC16 @ 72 NONAME
	_ZN14CFSMailBoxBaseD0Ev @ 73 NONAME
	_ZN14CFSMailBoxBaseD1Ev @ 74 NONAME
	_ZN14CFSMailBoxBaseD2Ev @ 75 NONAME
	_ZN14CFSMailMessage12GetNmMessageEv @ 76 NONAME
	_ZN14CFSMailMessage12SaveMessageLER22MFSMailRequestObserver @ 77 NONAME
	_ZN14CFSMailMessage12SaveMessageLEv @ 78 NONAME
	_ZN14CFSMailMessage13HtmlBodyPartLEN18CFSMailMessagePart28TFSMailMessagePartDataSourceE @ 79 NONAME
	_ZN14CFSMailMessage15AttachmentListLER13RPointerArrayI18CFSMailMessagePartE @ 80 NONAME
	_ZN14CFSMailMessage17AddNewAttachmentLER5RFileRK6TDesC8 @ 81 NONAME
	_ZN14CFSMailMessage17AddNewAttachmentLERK7TDesC1612TFSMailMsgId @ 82 NONAME
	_ZN14CFSMailMessage17AddNewAttachmentLERK7TDesC16R22MFSMailRequestObserver @ 83 NONAME
	_ZN14CFSMailMessage17SaveMessagePartsLER22MFSMailRequestObserver @ 84 NONAME
	_ZN14CFSMailMessage18PlainTextBodyPartLEN18CFSMailMessagePart28TFSMailMessagePartDataSourceE @ 85 NONAME
	_ZN14CFSMailMessage4NewLE12TFSMailMsgId @ 86 NONAME
	_ZN14CFSMailMessage4NewLERK9NmMessage @ 87 NONAME
	_ZN14CFSMailMessage5NewLCE12TFSMailMsgId @ 88 NONAME
	_ZN14CFSMailMessageD0Ev @ 89 NONAME
	_ZN14CFSMailMessageD1Ev @ 90 NONAME
	_ZN14CFSMailMessageD2Ev @ 91 NONAME
	_ZN15CEmailExtension6DecRefEv @ 92 NONAME
	_ZN15CEmailExtension6IncRefEv @ 93 NONAME
	_ZN15CEmailExtensionC1ERK4TUid @ 94 NONAME
	_ZN15CEmailExtensionC2ERK4TUid @ 95 NONAME
	_ZN15CEmailExtensionD0Ev @ 96 NONAME
	_ZN15CEmailExtensionD1Ev @ 97 NONAME
	_ZN15CEmailExtensionD2Ev @ 98 NONAME
	_ZN15CFSMailIterator4NewLER15MFSMailIteratorP21CFSMailRequestHandler @ 99 NONAME
	_ZN15CFSMailIterator5NewLCER15MFSMailIteratorP21CFSMailRequestHandler @ 100 NONAME
	_ZN15CFSMailIterator5NextLE12TFSMailMsgIdjR13RPointerArrayI14CFSMailMessageE @ 101 NONAME
	_ZN15CFSMailIterator5NextLERK7TDesC16jR13RPointerArrayI14CFSMailMessageE @ 102 NONAME
	_ZN15CFSMailIterator9PreviousLE12TFSMailMsgIdjR13RPointerArrayI14CFSMailMessageE @ 103 NONAME
	_ZN15CFSMailIterator9PreviousLERK7TDesC16jR13RPointerArrayI14CFSMailMessageE @ 104 NONAME
	_ZN15CFSMailIteratorD0Ev @ 105 NONAME
	_ZN15CFSMailIteratorD1Ev @ 106 NONAME
	_ZN15CFSMailIteratorD2Ev @ 107 NONAME
	_ZN16CExtendableEmail10ExtensionLERK4TUid @ 108 NONAME
	_ZN16CExtendableEmail16ReleaseExtensionEP15CEmailExtension @ 109 NONAME
	_ZN16CExtendableEmailC1Ev @ 110 NONAME
	_ZN16CExtendableEmailC2Ev @ 111 NONAME
	_ZN16TEmailExtensions4AddLEP15CEmailExtension @ 112 NONAME
	_ZN16TEmailExtensions6RemoveEPK15CEmailExtension @ 113 NONAME
	_ZN16TEmailExtensionsC1Ev @ 114 NONAME
	_ZN16TEmailExtensionsC2Ev @ 115 NONAME
	_ZN16TEmailExtensionsD1Ev @ 116 NONAME
	_ZN16TEmailExtensionsD2Ev @ 117 NONAME
	_ZN17CFSMailFolderBase10ConstructLE12TFSMailMsgId @ 118 NONAME
	_ZN17CFSMailFolderBase11GetNmFolderEv @ 119 NONAME
	_ZN17CFSMailFolderBase12SetMailBoxIdE12TFSMailMsgId @ 120 NONAME
	_ZN17CFSMailFolderBase13SetFolderNameERK7TDesC16 @ 121 NONAME
	_ZN17CFSMailFolderBase13SetFolderTypeE13TFSFolderType @ 122 NONAME
	_ZN17CFSMailFolderBase14BlockCopyFromLE6RArrayI13TFSFolderTypeE16TFSMailBoxStatus @ 123 NONAME
	_ZN17CFSMailFolderBase14BlockMoveFromLE6RArrayI13TFSFolderTypeE16TFSMailBoxStatus @ 124 NONAME
	_ZN17CFSMailFolderBase14SetUnreadCountEj @ 125 NONAME
	_ZN17CFSMailFolderBase14SetUnseenCountEj @ 126 NONAME
	_ZN17CFSMailFolderBase15SetMessageCountEj @ 127 NONAME
	_ZN17CFSMailFolderBase17SetParentFolderIdE12TFSMailMsgId @ 128 NONAME
	_ZN17CFSMailFolderBase17SetSubFolderCountEj @ 129 NONAME
	_ZN17CFSMailFolderBase4NewLE12TFSMailMsgId @ 130 NONAME
	_ZN17CFSMailFolderBase5NewLCE12TFSMailMsgId @ 131 NONAME
	_ZN17CFSMailFolderBaseD0Ev @ 132 NONAME
	_ZN17CFSMailFolderBaseD1Ev @ 133 NONAME
	_ZN17CFSMailFolderBaseD2Ev @ 134 NONAME
	_ZN18CFSMailMessageBase10ConstructLE12TFSMailMsgId @ 135 NONAME
	_ZN18CFSMailMessageBase10ConstructLERK17NmMessageEnvelope @ 136 NONAME
	_ZN18CFSMailMessageBase10ExtensionLERK4TUid @ 137 NONAME
	_ZN18CFSMailMessageBase10SetSubjectERK7TDesC16 @ 138 NONAME
	_ZN18CFSMailMessageBase11SetFolderIdE12TFSMailMsgId @ 139 NONAME
	_ZN18CFSMailMessageBase12SetMailBoxIdE12TFSMailMsgId @ 140 NONAME
	_ZN18CFSMailMessageBase12SetMessageIdE12TFSMailMsgId @ 141 NONAME
	_ZN18CFSMailMessageBase14RequestHandlerEv @ 142 NONAME
	_ZN18CFSMailMessageBase15GetCCRecipientsEv @ 143 NONAME
	_ZN18CFSMailMessageBase15GetToRecipientsEv @ 144 NONAME
	_ZN18CFSMailMessageBase16GetBCCRecipientsEv @ 145 NONAME
	_ZN18CFSMailMessageBase16ReleaseExtensionEP15CEmailExtension @ 146 NONAME
	_ZN18CFSMailMessageBase17AppendCCRecipientEP14CFSMailAddress @ 147 NONAME
	_ZN18CFSMailMessageBase17AppendToRecipientEP14CFSMailAddress @ 148 NONAME
	_ZN18CFSMailMessageBase17ClearCcRecipientsEv @ 149 NONAME
	_ZN18CFSMailMessageBase17ClearToRecipientsEv @ 150 NONAME
	_ZN18CFSMailMessageBase17GetReplyToAddressEv @ 151 NONAME
	_ZN18CFSMailMessageBase17SetReplyToAddressEP14CFSMailAddress @ 152 NONAME
	_ZN18CFSMailMessageBase18AppendBCCRecipientEP14CFSMailAddress @ 153 NONAME
	_ZN18CFSMailMessageBase18ClearBccRecipientsEv @ 154 NONAME
	_ZN18CFSMailMessageBase20GetNmMessageEnvelopeEv @ 155 NONAME
	_ZN18CFSMailMessageBase4NewLE12TFSMailMsgId @ 156 NONAME
	_ZN18CFSMailMessageBase5NewLCE12TFSMailMsgId @ 157 NONAME
	_ZN18CFSMailMessageBase7SetDateE5TTime @ 158 NONAME
	_ZN18CFSMailMessageBase7SetFlagEi @ 159 NONAME
	_ZN18CFSMailMessageBase9ResetFlagEi @ 160 NONAME
	_ZN18CFSMailMessageBase9SetSenderEP14CFSMailAddress @ 161 NONAME
	_ZN18CFSMailMessageBaseD0Ev @ 162 NONAME
	_ZN18CFSMailMessageBaseD1Ev @ 163 NONAME
	_ZN18CFSMailMessageBaseD2Ev @ 164 NONAME
	_ZN18CFSMailMessagePart10ChildPartLE12TFSMailMsgId @ 165 NONAME
	_ZN18CFSMailMessagePart10SetContentER6TDes16 @ 166 NONAME
	_ZN18CFSMailMessagePart11ChildPartsLER13RPointerArrayIS_ENS_28TFSMailMessagePartDataSourceE @ 167 NONAME
	_ZN18CFSMailMessagePart11IsMRInfoSetEv @ 168 NONAME
	_ZN18CFSMailMessagePart13FindBodyPartLERK7TDesC16NS_28TFSMailMessagePartDataSourceE @ 169 NONAME
	_ZN18CFSMailMessagePart13NewChildPartLE12TFSMailMsgIdRK7TDesC16 @ 170 NONAME
	_ZN18CFSMailMessagePart13SetContentIDLERK7TDesC16 @ 171 NONAME
	_ZN18CFSMailMessagePart14SetContentSizeEj @ 172 NONAME
	_ZN18CFSMailMessagePart14SetContentTypeERK7TDesC16 @ 173 NONAME
	_ZN18CFSMailMessagePart15AttachmentNameLEv @ 174 NONAME
	_ZN18CFSMailMessagePart15GetContentClassEv @ 175 NONAME
	_ZN18CFSMailMessagePart15GetContentFileLEi @ 176 NONAME
	_ZN18CFSMailMessagePart15SetContentClassERK7TDesC16 @ 177 NONAME
	_ZN18CFSMailMessagePart16CopyContentFileLERK7TDesC16 @ 178 NONAME
	_ZN18CFSMailMessagePart16GetNmMessagePartEv @ 179 NONAME
	_ZN18CFSMailMessagePart16RemoveChildPartLE12TFSMailMsgId @ 180 NONAME
	_ZN18CFSMailMessagePart16RemoveChildPartLE12TFSMailMsgIdR22MFSMailRequestObserver @ 181 NONAME
	_ZN18CFSMailMessagePart17AddNewAttachmentLERK7TDesC1612TFSMailMsgIdS2_ @ 182 NONAME
	_ZN18CFSMailMessagePart17FetchMessagePartLE12TFSMailMsgIdR22MFSMailRequestObserverj @ 183 NONAME
	_ZN18CFSMailMessagePart18AppendAttachmentsLER13RPointerArrayIS_E @ 184 NONAME
	_ZN18CFSMailMessagePart18ContentDescriptionEv @ 185 NONAME
	_ZN18CFSMailMessagePart18ContentDispositionEv @ 186 NONAME
	_ZN18CFSMailMessagePart18SetAttachmentNameLERK7TDesC16 @ 187 NONAME
	_ZN18CFSMailMessagePart19FetchMessagesPartsLERK6RArrayI12TFSMailMsgIdER22MFSMailRequestObserverj @ 188 NONAME
	_ZN18CFSMailMessagePart19GetContentToBufferLER6TDes16j @ 189 NONAME
	_ZN18CFSMailMessagePart19SetReadOnlyPartSizeEj @ 190 NONAME
	_ZN18CFSMailMessagePart21ContentTypeParametersEv @ 191 NONAME
	_ZN18CFSMailMessagePart21GetLocalTextContentLCEv @ 192 NONAME
	_ZN18CFSMailMessagePart21SetContentDescriptionERK7TDesC16 @ 193 NONAME
	_ZN18CFSMailMessagePart21SetContentDispositionERK7TDesC16 @ 194 NONAME
	_ZN18CFSMailMessagePart21SetFetchedContentSizeEj @ 195 NONAME
	_ZN18CFSMailMessagePart21SetMessagePartsStatusE17TFSPartFetchState @ 196 NONAME
	_ZN18CFSMailMessagePart28ContentDispositionParametersEv @ 197 NONAME
	_ZN18CFSMailMessagePart4NewLE12TFSMailMsgIdS0_ @ 198 NONAME
	_ZN18CFSMailMessagePart5NewLCE12TFSMailMsgIdS0_ @ 199 NONAME
	_ZN18CFSMailMessagePart5NewLCERK4NmIdRK13NmMessagePart @ 200 NONAME
	_ZN18CFSMailMessagePart5SaveLEv @ 201 NONAME
	_ZN18CFSMailMessagePart9ContentIDEv @ 202 NONAME
	_ZN18CFSMailMessagePart9GetMRInfoEv @ 203 NONAME
	_ZN18CFSMailMessagePart9SetMRInfoEP13MMRInfoObject @ 204 NONAME
	_ZN18CFSMailMessagePartD0Ev @ 205 NONAME
	_ZN18CFSMailMessagePartD1Ev @ 206 NONAME
	_ZN18CFSMailMessagePartD2Ev @ 207 NONAME
	_ZN21CFSMailRequestHandler10AddPluginLE4TUidP13CFSMailPlugin @ 208 NONAME
	_ZN21CFSMailRequestHandler10ConstructLE13RPointerArrayI26CImplementationInformationES0_I13CFSMailPluginE @ 209 NONAME
	_ZN21CFSMailRequestHandler12GetTempFileLE12TFSMailMsgIdR4TBufILi256EE @ 210 NONAME
	_ZN21CFSMailRequestHandler14CancelRequestLEi @ 211 NONAME
	_ZN21CFSMailRequestHandler14GetPluginByUidE12TFSMailMsgId @ 212 NONAME
	_ZN21CFSMailRequestHandler15CompleteRequestEi @ 213 NONAME
	_ZN21CFSMailRequestHandler17InitAsyncRequestLE4TUidR22MFSMailRequestObserver @ 214 NONAME
	_ZN21CFSMailRequestHandler17RemoveAllRequestsEv @ 215 NONAME
	_ZN21CFSMailRequestHandler18CancelAllRequestsLEv @ 216 NONAME
	_ZN21CFSMailRequestHandler4NewLER13RPointerArrayI26CImplementationInformationERS0_I13CFSMailPluginE @ 217 NONAME
	_ZN21CFSMailRequestHandler5NewLCER13RPointerArrayI26CImplementationInformationERS0_I13CFSMailPluginE @ 218 NONAME
	_ZN21CFSMailRequestHandlerC1Ev @ 219 NONAME
	_ZN21CFSMailRequestHandlerC2Ev @ 220 NONAME
	_ZN21CFSMailRequestHandlerD0Ev @ 221 NONAME
	_ZN21CFSMailRequestHandlerD1Ev @ 222 NONAME
	_ZN21CFSMailRequestHandlerD2Ev @ 223 NONAME
	_ZNK10CFSMailBox13HasCapabilityE22TFSMailBoxCapabilities @ 224 NONAME
	_ZNK10CFSMailBox16CurrentSyncStateEv @ 225 NONAME
	_ZNK14CFSMailAddress14GetDisplayNameEv @ 226 NONAME
	_ZNK14CFSMailAddress15GetEmailAddressEv @ 227 NONAME
	_ZNK14CFSMailBoxBase5GetIdEv @ 228 NONAME
	_ZNK14CFSMailBoxBase7GetNameEv @ 229 NONAME
	_ZNK15CEmailExtension3UidEv @ 230 NONAME
	_ZNK16TEmailExtensions13FindExtensionERK4TUid @ 231 NONAME
	_ZNK16TEmailExtensions9ExtensionEi @ 232 NONAME
	_ZNK17CFSMailFolderBase11GetFolderIdEv @ 233 NONAME
	_ZNK17CFSMailFolderBase12GetMailBoxIdEv @ 234 NONAME
	_ZNK17CFSMailFolderBase13GetFolderNameEv @ 235 NONAME
	_ZNK17CFSMailFolderBase13GetFolderTypeEv @ 236 NONAME
	_ZNK17CFSMailFolderBase14GetUnreadCountEv @ 237 NONAME
	_ZNK17CFSMailFolderBase14GetUnseenCountEv @ 238 NONAME
	_ZNK17CFSMailFolderBase15GetMessageCountEv @ 239 NONAME
	_ZNK17CFSMailFolderBase17GetParentFolderIdEv @ 240 NONAME
	_ZNK17CFSMailFolderBase17GetSubFolderCountEv @ 241 NONAME
	_ZNK18CFSMailMessageBase10GetSubjectEv @ 242 NONAME
	_ZNK18CFSMailMessageBase11GetFolderIdEv @ 243 NONAME
	_ZNK18CFSMailMessageBase12GetMailBoxIdEv @ 244 NONAME
	_ZNK18CFSMailMessageBase12GetMessageIdEv @ 245 NONAME
	_ZNK18CFSMailMessageBase7GetDateEv @ 246 NONAME
	_ZNK18CFSMailMessageBase8GetFlagsEv @ 247 NONAME
	_ZNK18CFSMailMessageBase9GetSenderEv @ 248 NONAME
	_ZNK18CFSMailMessageBase9IsFlagSetEi @ 249 NONAME
	_ZNK18CFSMailMessagePart10IsMessageLEv @ 250 NONAME
	_ZNK18CFSMailMessagePart11ContentSizeEv @ 251 NONAME
	_ZNK18CFSMailMessagePart14FetchLoadStateEv @ 252 NONAME
	_ZNK18CFSMailMessagePart14GetContentTypeEv @ 253 NONAME
	_ZNK18CFSMailMessagePart16ReadOnlyPartSizeEv @ 254 NONAME
	_ZNK18CFSMailMessagePart18FetchedContentSizeEv @ 255 NONAME
	_ZNK18CFSMailMessagePart9GetPartIdEv @ 256 NONAME
	_ZTI15CEmailExtension @ 257 NONAME
	_ZTI16CExtendableEmail @ 258 NONAME
	_ZTI21CFSMailRequestHandler @ 259 NONAME
	_ZTV15CEmailExtension @ 260 NONAME
	_ZTV16CExtendableEmail @ 261 NONAME
	_ZTV21CFSMailRequestHandler @ 262 NONAME
	_ZThn4_N15CFSMailIterator5NextLE12TFSMailMsgIdjR13RPointerArrayI14CFSMailMessageE @ 263 NONAME
	_ZThn4_N15CFSMailIterator5NextLERK7TDesC16jR13RPointerArrayI14CFSMailMessageE @ 264 NONAME
	_ZThn4_N15CFSMailIterator9PreviousLE12TFSMailMsgIdjR13RPointerArrayI14CFSMailMessageE @ 265 NONAME
	_ZThn4_N15CFSMailIterator9PreviousLERK7TDesC16jR13RPointerArrayI14CFSMailMessageE @ 266 NONAME
	_ZThn4_N15CFSMailIteratorD0Ev @ 267 NONAME
	_ZThn4_N15CFSMailIteratorD1Ev @ 268 NONAME

