EXPORTS
	_ZN15CImap4ServerMtm4NewLER17CRegisteredMtmDllP15CMsvServerEntry @ 1 NONAME
	_ZTI11CImap4Utils @ 2 NONAME ; #<TI>#
	_ZTI14CActiveWrapper @ 3 NONAME ; #<TI>#
	_ZTI15CImImap4Session @ 4 NONAME ; #<TI>#
	_ZTI15CImap4ServerMtm @ 5 NONAME ; #<TI>#
	_ZTI16CImImap4Compound @ 6 NONAME ; #<TI>#
	_ZTI17CIdleTimeoutTimer @ 7 NONAME ; #<TI>#
	_ZTI17CImImap4DirStruct @ 8 NONAME ; #<TI>#
	_ZTI18CImImap4FolderSync @ 9 NONAME ; #<TI>#
	_ZTI19CImImap4FolderIndex @ 10 NONAME ; #<TI>#
	_ZTI19CImImap4Synchronise @ 11 NONAME ; #<TI>#
	_ZTI20CImap4OffLineControl @ 12 NONAME ; #<TI>#
	_ZTI24CImImap4SessionDummyRead @ 13 NONAME ; #<TI>#
	_ZTI7CImapIO @ 14 NONAME ; #<TI>#
	_ZTI9CImapAtom @ 15 NONAME ; #<TI>#
	_ZTV11CImap4Utils @ 16 NONAME ; #<VT>#
	_ZTV14CActiveWrapper @ 17 NONAME ; #<VT>#
	_ZTV15CImImap4Session @ 18 NONAME ; #<VT>#
	_ZTV15CImap4ServerMtm @ 19 NONAME ; #<VT>#
	_ZTV16CImImap4Compound @ 20 NONAME ; #<VT>#
	_ZTV17CIdleTimeoutTimer @ 21 NONAME ; #<VT>#
	_ZTV17CImImap4DirStruct @ 22 NONAME ; #<VT>#
	_ZTV18CImImap4FolderSync @ 23 NONAME ; #<VT>#
	_ZTV19CImImap4FolderIndex @ 24 NONAME ; #<VT>#
	_ZTV19CImImap4Synchronise @ 25 NONAME ; #<VT>#
	_ZTV20CImap4OffLineControl @ 26 NONAME ; #<VT>#
	_ZTV24CImImap4SessionDummyRead @ 27 NONAME ; #<VT>#
	_ZTV7CImapIO @ 28 NONAME ; #<VT>#
	_ZTV9CImapAtom @ 29 NONAME ; #<VT>#
	_ZTI23CImImap4SessionIdleRead @ 30 NONAME ; #<TI>#
	_ZTV23CImImap4SessionIdleRead @ 31 NONAME ; #<VT>#

