EXPORTS
	?AddObserver@CIRFavoritesDb@@QAEHABVMPSPresetObserver@@@Z @ 1  NONAME ; int CIRFavoritesDb::AddObserver(class MPSPresetObserver const &)
	?AddPresetL@CIRFavoritesDb@@QAEXAAVCIRIsdsPreset@@AAHH@Z @ 2  NONAME ; void CIRFavoritesDb::AddPresetL(class CIRIsdsPreset &, int &, int)
	?AddPresetL@CIRFavoritesDb@@QAEXABVTDesC16@@0AAHH@Z @ 3  NONAME ; void CIRFavoritesDb::AddPresetL(class TDesC16 const &, class TDesC16 const &, int &, int)
	?DeletePresetL@CIRFavoritesDb@@QAEXH@Z @ 4  NONAME ; void CIRFavoritesDb::DeletePresetL(int)
	?EmptyPresetCount@CIRFavoritesDb@@QBEHXZ @ 5  NONAME ; int CIRFavoritesDb::EmptyPresetCount(void) const
	?GetAllPreset@CIRFavoritesDb@@QAEXXZ @ 6  NONAME ; void CIRFavoritesDb::GetAllPreset(void)
	?GetMoveStatus@CIRFavoritesDb@@QAEHXZ @ 7  NONAME ; int CIRFavoritesDb::GetMoveStatus(void)
	?GetNextPreset@CIRFavoritesDb@@QAEHH@Z @ 8  NONAME ; int CIRFavoritesDb::GetNextPreset(int)
	?GetPreviousPreset@CIRFavoritesDb@@QAEHH@Z @ 9  NONAME ; int CIRFavoritesDb::GetPreviousPreset(int)
	?HandlePresetChangedL@CIRFavoritesDb@@EAEXHVTUid@@W4TPSReason@MPSPresetObserver@@@Z @ 10  NONAME ; void CIRFavoritesDb::HandlePresetChangedL(int, class TUid, enum MPSPresetObserver::TPSReason)
	?MakePresetUserDefinedL@CIRFavoritesDb@@QAEXHH@Z @ 11  NONAME ; void CIRFavoritesDb::MakePresetUserDefinedL(int, int)
	?MaxPresetCount@CIRFavoritesDb@@QAEHXZ @ 12  NONAME ; int CIRFavoritesDb::MaxPresetCount(void)
	?NewL@CIRFavoritesDb@@SAPAV1@XZ @ 13  NONAME ; class CIRFavoritesDb * CIRFavoritesDb::NewL(void)
	?PresetById@CIRFavoritesDb@@QAEPAVCIRPreset@@H@Z @ 14  NONAME ; class CIRPreset * CIRFavoritesDb::PresetById(int)
	?PresetByIndex@CIRFavoritesDb@@QAEPAVCIRPreset@@H@Z @ 15  NONAME ; class CIRPreset * CIRFavoritesDb::PresetByIndex(int)
	?Presets@CIRFavoritesDb@@QBEABV?$RPointerArray@VCIRPreset@@@@XZ @ 16  NONAME ; class RPointerArray<class CIRPreset> const & CIRFavoritesDb::Presets(void) const
	?RemoveObserver@CIRFavoritesDb@@QAEXABVMPSPresetObserver@@@Z @ 17  NONAME ; void CIRFavoritesDb::RemoveObserver(class MPSPresetObserver const &)
	?ReplacePresetL@CIRFavoritesDb@@QAEXAAVCIRIsdsPreset@@@Z @ 18  NONAME ; void CIRFavoritesDb::ReplacePresetL(class CIRIsdsPreset &)
	?ReplaceUserDefinedPresetL@CIRFavoritesDb@@QAEXAAVCIRIsdsPreset@@@Z @ 19  NONAME ; void CIRFavoritesDb::ReplaceUserDefinedPresetL(class CIRIsdsPreset &)
	?SearchPreset@CIRFavoritesDb@@QAEHHH@Z @ 20  NONAME ; int CIRFavoritesDb::SearchPreset(int, int)
	?SetMoveStatus@CIRFavoritesDb@@QAEXH@Z @ 21  NONAME ; void CIRFavoritesDb::SetMoveStatus(int)
	?SwapPresetsInDbL@CIRFavoritesDb@@QAEXHHHH@Z @ 22  NONAME ; void CIRFavoritesDb::SwapPresetsInDbL(int, int, int, int)
	?GetAllSortedPresets@CIRFavoritesDb@@QAEABV?$RPointerArray@VCIRPreset@@@@XZ @ 23  NONAME ; class RPointerArray<class CIRPreset> const & CIRFavoritesDb::GetAllSortedPresets(void)
	?IncreasePlayedTimesL@CIRFavoritesDb@@QAEHABVCIRIsdsPreset@@@Z @ 24  NONAME ; int CIRFavoritesDb::IncreasePlayedTimesL(class CIRIsdsPreset const &)
        ?RenamePresetL@CIRFavoritesDb@@QAEHABVCIRIsdsPreset@@ABVTDesC16@@@Z @ 25  NONAME ; int CIRFavoritesDb::RenamePresetL(class CIRIsdsPreset const &, class TDesC16 const &)
