EXPORTS
	_Z24ImplementationGroupProxyRi @ 1 NONAME
	_Z12NPP_Shutdownv @ 2 NONAME
	_Z15InitializeFuncsP14_NPPluginFuncs @ 3 NONAME
	_ZTI11CMobileInfo @ 4 NONAME ; #<TI>#
	_ZTI13CCPixNPPlugin @ 5 NONAME ; #<TI>#
	_ZTI15CCPixNPSearcher @ 6 NONAME ; #<TI>#
	_ZTI16CNPDocumentField @ 7 NONAME ; #<TI>#
	_ZTI16CObjectInterface @ 8 NONAME ; #<TI>#
	_ZTI17CCPixNPPluginEcom @ 9 NONAME ; #<TI>#
	_ZTI17CNPSearchDocument @ 10 NONAME ; #<TI>#
	_ZTI22CCPixNPPluginInterface @ 11 NONAME ; #<TI>#
	_ZTI23CCPixNPSearcherObserver @ 12 NONAME ; #<TI>#
	_ZTI24CCPixNPSearcherInterface @ 13 NONAME ; #<TI>#
	_ZTI25CNPDocumentFieldInterface @ 14 NONAME ; #<TI>#
	_ZTI26CNPSearchDocumentInterface @ 15 NONAME ; #<TI>#
	_ZTI6CMsvUI @ 16 NONAME ; #<TI>#
	_ZTV11CMobileInfo @ 17 NONAME ; #<VT>#
	_ZTV13CCPixNPPlugin @ 18 NONAME ; #<VT>#
	_ZTV15CCPixNPSearcher @ 19 NONAME ; #<VT>#
	_ZTV16CNPDocumentField @ 20 NONAME ; #<VT>#
	_ZTV16CObjectInterface @ 21 NONAME ; #<VT>#
	_ZTV17CCPixNPPluginEcom @ 22 NONAME ; #<VT>#
	_ZTV17CNPSearchDocument @ 23 NONAME ; #<VT>#
	_ZTV22CCPixNPPluginInterface @ 24 NONAME ; #<VT>#
	_ZTV23CCPixNPSearcherObserver @ 25 NONAME ; #<VT>#
	_ZTV24CCPixNPSearcherInterface @ 26 NONAME ; #<VT>#
	_ZTV25CNPDocumentFieldInterface @ 27 NONAME ; #<VT>#
	_ZTV26CNPSearchDocumentInterface @ 28 NONAME ; #<VT>#
	_ZTV6CMsvUI @ 29 NONAME ; #<VT>#

