EXPORTS
	_ZN20CParserVTicketmaster11MakeEntityLEiP7HBufC16 @ 1 NONAME
	_ZN20CParserVTicketmaster12ExternalizeLER12RWriteStream @ 2 NONAME
	_ZN20CParserVTicketmaster4NewLEv @ 3 NONAME
	_ZN25CParserPropertyValuePrice12ExternalizeLER12RWriteStreamRKN6Versit19TEncodingAndCharsetEi @ 4 NONAME
	_ZN25CParserPropertyValuePriceC1E5TCharS0_ii @ 5 NONAME
	_ZN25CParserPropertyValuePriceC2E5TCharS0_ii @ 6 NONAME
	_ZN25CParserPropertyValuePriceD0Ev @ 7 NONAME
	_ZN25CParserPropertyValuePriceD1Ev @ 8 NONAME
	_ZN25CParserPropertyValuePriceD2Ev @ 9 NONAME
	_ZN26CParserVTicketmasterEntity23MakePropertyValuePriceLE6TPtr16 @ 10 NONAME
	_ZN26CParserVTicketmasterEntity27MakePropertyValueEventCodeLE6TPtr16 @ 11 NONAME
	_ZN26CParserVTicketmasterEntity4NewLEv @ 12 NONAME
	_ZNK20CParserVTicketmaster14RecognizeTokenERK6TDesC8 @ 13 NONAME
	_ZNK20CParserVTicketmaster19RecognizeEntityNameEv @ 14 NONAME
	_ZNK26CParserVTicketmasterEntity14RecognizeTokenERK6TDesC8 @ 15 NONAME
	_ZTI25CParserPropertyValuePrice @ 16 NONAME ; #<TI>#
	_ZTV25CParserPropertyValuePrice @ 17 NONAME ; #<VT>#
	_ZTI20CParserVTicketmaster @ 18 NONAME ; #<TI>#
	_ZTI26CParserVTicketmasterEntity @ 19 NONAME ; #<TI>#
	_ZTI27CParserPropertyValueSeatNum @ 20 NONAME ; #<TI>#
	_ZTI29CParserPropertyValueEventCode @ 21 NONAME ; #<TI>#
	_ZTI37CParserPropertyValueOtherRelatedShows @ 22 NONAME ; #<TI>#
	_ZTV20CParserVTicketmaster @ 23 NONAME ; #<VT>#
	_ZTV26CParserVTicketmasterEntity @ 24 NONAME ; #<VT>#
	_ZTV27CParserPropertyValueSeatNum @ 25 NONAME ; #<VT>#
	_ZTV29CParserPropertyValueEventCode @ 26 NONAME ; #<VT>#
	_ZTV37CParserPropertyValueOtherRelatedShows @ 27 NONAME ; #<VT>#

