EXPORTS
	?setVolumeSetting@IRQSettings@@QAEXH@Z @ 1  NONAME ; void IRQSettings::setVolumeSetting(int)
	?setSearchText@IRQSettings@@QAEXABVQString@@@Z @ 2  NONAME ; void IRQSettings::setSearchText(class QString const &)
	?getSearchText@IRQSettings@@QAE_NAAVQString@@@Z @ 3  NONAME ; bool IRQSettings::getSearchText(class QString &)
	?getStartingViewId@IRQSettings@@QAE_NAAW4TIRViewId@@@Z @ 4  NONAME ; bool IRQSettings::getStartingViewId(enum TIRViewId &)
	?reSetFlagTermsAndConditions@IRQSettings@@QAEXXZ @ 5  NONAME ; void IRQSettings::reSetFlagTermsAndConditions(void)
	?getSongHistoryShow@IRQSettings@@QAEHXZ @ 6  NONAME ; int IRQSettings::getSongHistoryShow(void)
	??1IRQSettings@@AAE@XZ @ 7  NONAME ; IRQSettings::~IRQSettings(void)
	?openInstance@IRQSettings@@SAPAV1@XZ @ 8  NONAME ; class IRQSettings * IRQSettings::openInstance(void)
	?setSongHistoryShow@IRQSettings@@QAEXH@Z @ 9  NONAME ; void IRQSettings::setSongHistoryShow(int)
	?getManuallyInputtedStationName@IRQSettings@@QAE_NAAVQString@@@Z @ 10  NONAME ; bool IRQSettings::getManuallyInputtedStationName(class QString &)
	?getVolumeSetting@IRQSettings@@QAEHXZ @ 11  NONAME ; int IRQSettings::getVolumeSetting(void)
	?closeInstance@IRQSettings@@QAEXXZ @ 12  NONAME ; void IRQSettings::closeInstance(void)
	?setFlagTermsAndConditions@IRQSettings@@QAEXXZ @ 13  NONAME ; void IRQSettings::setFlagTermsAndConditions(void)
	?privatePath@IRQSettings@@QAE?AVQString@@XZ @ 14  NONAME ; class QString IRQSettings::privatePath(void)
	?setPreferredQuality@IRQSettings@@QAEXW4IRQPreferredQuality@@@Z @ 15  NONAME ; void IRQSettings::setPreferredQuality(enum IRQPreferredQuality)
	?getTimeOut@IRQSettings@@QAEHXZ @ 16  NONAME ; int IRQSettings::getTimeOut(void)
	?mMutex@IRQSettings@@0VQMutex@@A @ 17  NONAME ; class QMutex IRQSettings::mMutex
	?setManuallyInputtedStationName@IRQSettings@@QAEXABVQString@@@Z @ 18  NONAME ; void IRQSettings::setManuallyInputtedStationName(class QString const &)
	?getManuallyInputtedStationUrl@IRQSettings@@QAE_NAAVQString@@@Z @ 19  NONAME ; bool IRQSettings::getManuallyInputtedStationUrl(class QString &)
	?getIRID@IRQSettings@@QAE_NAAVQString@@@Z @ 20  NONAME ; bool IRQSettings::getIRID(class QString &)
	?getMinDiskSpaceRequired@IRQSettings@@QAEHXZ @ 21  NONAME ; int IRQSettings::getMinDiskSpaceRequired(void)
	?setStartingViewId@IRQSettings@@QAEXH@Z @ 22  NONAME ; void IRQSettings::setStartingViewId(int)
	?getPreferredQuality@IRQSettings@@QBE?AW4IRQPreferredQuality@@XZ @ 23  NONAME ; enum IRQPreferredQuality IRQSettings::getPreferredQuality(void) const
	?mInstance@IRQSettings@@0PAV1@A @ 24  NONAME ; class IRQSettings * IRQSettings::mInstance
	?getSongRecognitionAppUid@IRQSettings@@QAEHXZ @ 25  NONAME ; int IRQSettings::getSongRecognitionAppUid(void)
	?setManuallyInputtedStationUrl@IRQSettings@@QAEXABVQString@@@Z @ 26  NONAME ; void IRQSettings::setManuallyInputtedStationUrl(class QString const &)
	??0IRQSettings@@AAE@XZ @ 27  NONAME ; IRQSettings::IRQSettings(void)
	?getIsdsUrl@IRQSettings@@QAE?AVQString@@XZ @ 28  NONAME ; class QString IRQSettings::getIsdsUrl(void)
	?getGlobalAdvFlag@IRQSettings@@QAE_NAA_N@Z @ 29  NONAME ; bool IRQSettings::getGlobalAdvFlag(bool &)
	?setTimeOut@IRQSettings@@QAEXH@Z @ 30  NONAME ; void IRQSettings::setTimeOut(int)
	?getIdentifySongEnabled@IRQSettings@@QAE_NXZ @ 31  NONAME ; bool IRQSettings::getIdentifySongEnabled(void)
	?isFlagTermsAndConditions@IRQSettings@@QAE_NAA_N@Z @ 32  NONAME ; bool IRQSettings::isFlagTermsAndConditions(bool &)

