EXPORTS
	?qt_metacall@IRQSystemEventHandler@@UAEHW4Call@QMetaObject@@HPAPAX@Z @ 1 NONAME ; int IRQSystemEventHandler::qt_metacall(enum QMetaObject::Call, int, void * *)
	?metaObject@IRQSystemEventHandler@@UBEPBUQMetaObject@@XZ @ 2 NONAME ; struct QMetaObject const * IRQSystemEventHandler::metaObject(void) const
	?diskCriticalLevel@IRQSystemEventHandler@@QBE_JXZ @ 3 NONAME ; long long IRQSystemEventHandler::diskCriticalLevel(void) const
	?diskSpaceLowNotification@IRQSystemEventHandler@@IAEX_J@Z @ 4 NONAME ; void IRQSystemEventHandler::diskSpaceLowNotification(long long)
	?cancel@IRQSystemEventHandler@@QAEXXZ @ 5 NONAME ; void IRQSystemEventHandler::cancel(void)
	??1IRQSystemEventHandler@@UAE@XZ @ 6 NONAME ; IRQSystemEventHandler::~IRQSystemEventHandler(void)
	?trUtf8@IRQSystemEventHandler@@SA?AVQString@@PBD0H@Z @ 7 NONAME ; class QString IRQSystemEventHandler::trUtf8(char const *, char const *, int)
	?staticMetaObject@IRQSystemEventHandler@@2UQMetaObject@@B @ 8 NONAME ; struct QMetaObject const IRQSystemEventHandler::staticMetaObject
	??0IRQSystemEventHandler@@QAE@XZ @ 9 NONAME ; IRQSystemEventHandler::IRQSystemEventHandler(void)
	?start@IRQSystemEventHandler@@QAEXXZ @ 10 NONAME ; void IRQSystemEventHandler::start(void)
	?alarmStarted@IRQSystemEventHandler@@IAEXXZ @ 11 NONAME ; void IRQSystemEventHandler::alarmStarted(void)
	?alarmStopped@IRQSystemEventHandler@@IAEXXZ @ 12 NONAME ; void IRQSystemEventHandler::alarmStopped(void)
	?tr@IRQSystemEventHandler@@SA?AVQString@@PBD0@Z @ 13 NONAME ; class QString IRQSystemEventHandler::tr(char const *, char const *)
	?getStaticMetaObject@IRQSystemEventHandler@@SAABUQMetaObject@@XZ @ 14 NONAME ; struct QMetaObject const & IRQSystemEventHandler::getStaticMetaObject(void)
	?qt_metacast@IRQSystemEventHandler@@UAEPAXPBD@Z @ 15 NONAME ; void * IRQSystemEventHandler::qt_metacast(char const *)
	??_EIRQSystemEventHandler@@UAE@I@Z @ 16 NONAME ; IRQSystemEventHandler::~IRQSystemEventHandler(unsigned int)
	?isBelowCriticalLevel@IRQSystemEventHandler@@QAE_N_J@Z @ 17 NONAME ; bool IRQSystemEventHandler::isBelowCriticalLevel(long long)
	?trUtf8@IRQSystemEventHandler@@SA?AVQString@@PBD0@Z @ 18 NONAME ; class QString IRQSystemEventHandler::trUtf8(char const *, char const *)
	?tr@IRQSystemEventHandler@@SA?AVQString@@PBD0H@Z @ 19 NONAME ; class QString IRQSystemEventHandler::tr(char const *, char const *, int)
	?headsetDisconnected@IRQSystemEventHandler@@IAEXXZ @ 20 NONAME ; void IRQSystemEventHandler::headsetDisconnected(void)
	?callActivated@IRQSystemEventHandler@@IAEXXZ @ 21 NONAME ; void IRQSystemEventHandler::callActivated(void)
	?headsetConnected@IRQSystemEventHandler@@IAEXXZ @ 22 NONAME ; void IRQSystemEventHandler::headsetConnected(void)
	?callDeactivated@IRQSystemEventHandler@@IAEXXZ @ 23 NONAME ; void IRQSystemEventHandler::callDeactivated(void)

