EXPORTS
	_ZN12CPEAudioData14SetAudioOutputE14TPEAudioOutputi @ 1 NONAME
	_ZN12CPEAudioData16HandleCallEndingEv @ 2 NONAME
	_ZN12CPEAudioData16SetAudioMuteSyncEi @ 3 NONAME
	_ZN12CPEAudioData18HandleCallStartingEi @ 4 NONAME
	_ZN12CPEAudioData18SetAudioVolumeSyncEi @ 5 NONAME
	_ZN12CPEAudioData27HandleEnergencyCallStartingEv @ 6 NONAME
	_ZN12CPEAudioData31CallAudioRoutePreferenceChangedEv @ 7 NONAME
	_ZN12CPEAudioData7StartUpEv @ 8 NONAME
	_ZN12CPEAudioDataD0Ev @ 9 NONAME
	_ZN12CPEAudioDataD1Ev @ 10 NONAME
	_ZN12CPEAudioDataD2Ev @ 11 NONAME
	_ZN15CPEAudioFactory23CreateAudioToneUtilityLER21MMdaAudioToneObserver @ 12 NONAME
	_ZN15CPEAudioFactory28CreateTelephonyAudioRoutingLER30MTelephonyAudioRoutingObserver @ 13 NONAME
	_ZN15CPEAudioFactory5NewLCEv @ 14 NONAME
	_ZN15CPEAudioFactoryC1Ev @ 15 NONAME
	_ZN15CPEAudioFactoryC2Ev @ 16 NONAME
	_ZN15CPEGsmAudioData14PlayInbandToneEv @ 17 NONAME
	_ZN15CPEGsmAudioData15HandleDTMFEventEN16MCCEDtmfObserver13TCCEDtmfEventEi5TChar @ 18 NONAME
	_ZN15CPEGsmAudioData16StopDtmfTonePlayEv @ 19 NONAME
	_ZN15CPEGsmAudioData18StopInbandTonePlayEv @ 20 NONAME
	_ZN15CPEGsmAudioData4NewLER21MPEPhoneModelInternalR3RFs @ 21 NONAME
	_ZN15CPEGsmAudioData4NewLER21MPEPhoneModelInternalR3RFsR15CPEAudioFactory @ 22 NONAME
	_ZN15CPEGsmAudioDataD0Ev @ 23 NONAME
	_ZN15CPEGsmAudioDataD1Ev @ 24 NONAME
	_ZN15CPEGsmAudioDataD2Ev @ 25 NONAME
	_ZNK12CPEAudioData16GetAudioMuteSyncERi @ 26 NONAME
	_ZNK12CPEAudioData18GetAudioVolumeSyncERi @ 27 NONAME
	_ZNK15CPEGsmAudioData12PlayDtmfToneERK5TChar @ 28 NONAME
	_ZTI12CPEAudioData @ 29 NONAME
	_ZTI15CPEGsmAudioData @ 30 NONAME
	_ZTI22CPEAudioDtmfTonePlayer @ 31 NONAME
	_ZTI22CPEAudioRoutingMonitor @ 32 NONAME
	_ZTI24CPEAudioInbandTonePlayer @ 33 NONAME
	_ZTI26CPECallAudioRoutingHandler @ 34 NONAME
	_ZTV12CPEAudioData @ 35 NONAME
	_ZTV15CPEGsmAudioData @ 36 NONAME
	_ZTV22CPEAudioDtmfTonePlayer @ 37 NONAME
	_ZTV22CPEAudioRoutingMonitor @ 38 NONAME
	_ZTV24CPEAudioInbandTonePlayer @ 39 NONAME
	_ZTV26CPECallAudioRoutingHandler @ 40 NONAME
	_ZThn4_N12CPEAudioData14SetAudioOutputE14TPEAudioOutputi @ 41 NONAME
	_ZThn4_N12CPEAudioData16HandleCallEndingEv @ 42 NONAME
	_ZThn4_N12CPEAudioData16SetAudioMuteSyncEi @ 43 NONAME
	_ZThn4_N12CPEAudioData18HandleCallStartingEi @ 44 NONAME
	_ZThn4_N12CPEAudioData18SetAudioVolumeSyncEi @ 45 NONAME
	_ZThn4_N12CPEAudioData27HandleEnergencyCallStartingEv @ 46 NONAME
	_ZThn4_N12CPEAudioData31CallAudioRoutePreferenceChangedEv @ 47 NONAME
	_ZThn4_N12CPEAudioData7StartUpEv @ 48 NONAME
	_ZThn4_N15CPEGsmAudioData16StopDtmfTonePlayEv @ 49 NONAME
	_ZThn4_NK12CPEAudioData16GetAudioMuteSyncERi @ 50 NONAME
	_ZThn4_NK12CPEAudioData18GetAudioVolumeSyncERi @ 51 NONAME
	_ZThn68_N15CPEGsmAudioData15HandleDTMFEventEN16MCCEDtmfObserver13TCCEDtmfEventEi5TChar @ 52 NONAME
	_ZTI15CPEAudioFactory @ 53 NONAME
	_ZTV15CPEAudioFactory @ 54 NONAME

