EXPORTS
	?backPress@NmSettingsViewFactory@@AAEXXZ @ 1 NONAME ; void NmSettingsViewFactory::backPress(void)
	?createSettingView@NmSettingsViewFactory@@UBEPAVCpBaseSettingView@@XZ @ 2 NONAME ; class CpBaseSettingView * NmSettingsViewFactory::createSettingView(void) const
	?qt_metacall@NmSettingsViewLauncher@@UAEHW4Call@QMetaObject@@HPAPAX@Z @ 3 NONAME ; int NmSettingsViewLauncher::qt_metacall(enum QMetaObject::Call, int, void * *)
	?qt_metacast@NmSettingsViewLauncher@@UAEPAXPBD@Z @ 4 NONAME ; void * NmSettingsViewLauncher::qt_metacast(char const *)
	?metaObject@NmSettingsViewLauncher@@UBEPBUQMetaObject@@XZ @ 5 NONAME ; struct QMetaObject const * NmSettingsViewLauncher::metaObject(void) const
	??_ENmSettingsViewFactory@@UAE@I@Z @ 6 NONAME ; NmSettingsViewFactory::~NmSettingsViewFactory(unsigned int)
	??0NmSettingsViewLauncher@@QAE@XZ @ 7 NONAME ; NmSettingsViewLauncher::NmSettingsViewLauncher(void)
	?qt_metacall@NmSettingsViewFactory@@UAEHW4Call@QMetaObject@@HPAPAX@Z @ 8 NONAME ; int NmSettingsViewFactory::qt_metacall(enum QMetaObject::Call, int, void * *)
	??0NmSettingsViewFactory@@QAE@PBVNmSettingsViewLauncher@@AAVCpItemDataHelper@@ABVQString@@2ABVHbIcon@@PBVHbDataFormModelItem@@@Z @ 9 NONAME ; NmSettingsViewFactory::NmSettingsViewFactory(class NmSettingsViewLauncher const *, class CpItemDataHelper &, class QString const &, class QString const &, class HbIcon const &, class HbDataFormModelItem const *)
	??_ENmSettingsViewLauncher@@UAE@I@Z @ 10 NONAME ; NmSettingsViewLauncher::~NmSettingsViewLauncher(unsigned int)
	?mailboxListChanged@NmSettingsViewLauncher@@IAEXABVNmId@@W4MailboxEventType@NmSettings@@@Z @ 11 NONAME ; void NmSettingsViewLauncher::mailboxListChanged(class NmId const &, enum NmSettings::MailboxEventType)
	?metaObject@NmSettingsViewFactory@@UBEPBUQMetaObject@@XZ @ 12 NONAME ; struct QMetaObject const * NmSettingsViewFactory::metaObject(void) const
	?tr@NmSettingsViewFactory@@SA?AVQString@@PBD0@Z @ 13 NONAME ; class QString NmSettingsViewFactory::tr(char const *, char const *)
	?trUtf8@NmSettingsViewLauncher@@SA?AVQString@@PBD0H@Z @ 14 NONAME ; class QString NmSettingsViewLauncher::trUtf8(char const *, char const *, int)
	?goOnline@NmSettingsViewLauncher@@IAEXABVNmId@@@Z @ 15 NONAME ; void NmSettingsViewLauncher::goOnline(class NmId const &)
	?mailboxPropertyChanged@NmSettingsViewLauncher@@IAEXABVNmId@@VQVariant@@1@Z @ 16 NONAME ; void NmSettingsViewLauncher::mailboxPropertyChanged(class NmId const &, class QVariant, class QVariant)
	?trUtf8@NmSettingsViewFactory@@SA?AVQString@@PBD0H@Z @ 17 NONAME ; class QString NmSettingsViewFactory::trUtf8(char const *, char const *, int)
	??1NmSettingsViewLauncher@@UAE@XZ @ 18 NONAME ; NmSettingsViewLauncher::~NmSettingsViewLauncher(void)
	?qt_metacast@NmSettingsViewFactory@@UAEPAXPBD@Z @ 19 NONAME ; void * NmSettingsViewFactory::qt_metacast(char const *)
	?trUtf8@NmSettingsViewFactory@@SA?AVQString@@PBD0@Z @ 20 NONAME ; class QString NmSettingsViewFactory::trUtf8(char const *, char const *)
	?trUtf8@NmSettingsViewLauncher@@SA?AVQString@@PBD0@Z @ 21 NONAME ; class QString NmSettingsViewLauncher::trUtf8(char const *, char const *)
	??1NmSettingsViewFactory@@UAE@XZ @ 22 NONAME ; NmSettingsViewFactory::~NmSettingsViewFactory(void)
	?tr@NmSettingsViewLauncher@@SA?AVQString@@PBD0H@Z @ 23 NONAME ; class QString NmSettingsViewLauncher::tr(char const *, char const *, int)
	?aboutToClose@NmSettingsViewFactory@@IAEXXZ @ 24 NONAME ; void NmSettingsViewFactory::aboutToClose(void)
	?staticMetaObject@NmSettingsViewLauncher@@2UQMetaObject@@B @ 25 NONAME ; struct QMetaObject const NmSettingsViewLauncher::staticMetaObject
	?tr@NmSettingsViewFactory@@SA?AVQString@@PBD0H@Z @ 26 NONAME ; class QString NmSettingsViewFactory::tr(char const *, char const *, int)
	?goOffline@NmSettingsViewLauncher@@IAEXABVNmId@@@Z @ 27 NONAME ; void NmSettingsViewLauncher::goOffline(class NmId const &)
	?launchSettingsView@NmSettingsViewLauncher@@QAEXABVNmId@@ABVQString@@@Z @ 28 NONAME ; void NmSettingsViewLauncher::launchSettingsView(class NmId const &, class QString const &)
	?launchSettingView@NmSettingsViewFactory@@QBEXABVNmId@@ABVQString@@@Z @ 29 NONAME ; void NmSettingsViewFactory::launchSettingView(class NmId const &, class QString const &) const
	?tr@NmSettingsViewLauncher@@SA?AVQString@@PBD0@Z @ 30 NONAME ; class QString NmSettingsViewLauncher::tr(char const *, char const *)
	?getStaticMetaObject@NmSettingsViewLauncher@@SAABUQMetaObject@@XZ @ 31 NONAME ; struct QMetaObject const & NmSettingsViewLauncher::getStaticMetaObject(void)
	?staticMetaObject@NmSettingsViewFactory@@2UQMetaObject@@B @ 32 NONAME ; struct QMetaObject const NmSettingsViewFactory::staticMetaObject
	?getStaticMetaObject@NmSettingsViewFactory@@SAABUQMetaObject@@XZ @ 33 NONAME ; struct QMetaObject const & NmSettingsViewFactory::getStaticMetaObject(void)
	??0NmSettingsViewFactory@@QAE@AAVCpItemDataHelper@@ABVQString@@1ABVHbIcon@@PBVHbDataFormModelItem@@@Z @ 34 NONAME ; NmSettingsViewFactory::NmSettingsViewFactory(class CpItemDataHelper &, class QString const &, class QString const &, class HbIcon const &, class HbDataFormModelItem const *)

