EXPORTS
	_ZN20PhoneResourceAdapter11qt_metacallEN11QMetaObject4CallEiPPv @ 1 NONAME
	_ZN20PhoneResourceAdapter11qt_metacastEPKc @ 2 NONAME
	_ZN20PhoneResourceAdapter16staticMetaObjectE @ 3 NONAME DATA 16
	_ZN20PhoneResourceAdapter17buttonsControllerEv @ 4 NONAME
	_ZN20PhoneResourceAdapter19getStaticMetaObjectEv @ 5 NONAME
	_ZN20PhoneResourceAdapter7convertEiz @ 6 NONAME
	_ZN20PhoneResourceAdapter8InstanceEP7QObject @ 7 NONAME
	_ZN20PhoneResourceAdapterC1EP7QObject @ 8 NONAME
	_ZN20PhoneResourceAdapterC2EP7QObject @ 9 NONAME
	_ZN20PhoneResourceAdapterD0Ev @ 10 NONAME
	_ZN20PhoneResourceAdapterD1Ev @ 11 NONAME
	_ZN20PhoneResourceAdapterD2Ev @ 12 NONAME
	_ZN20PhoneUIQtViewAdapter10SetHiddenLEb @ 13 NONAME
	_ZN20PhoneUIQtViewAdapter10convertKeyE8TKeyCodeRN2Qt3KeyE @ 14 NONAME
	_ZN20PhoneUIQtViewAdapter11callsExistsEii @ 15 NONAME
	_ZN20PhoneUIQtViewAdapter11keyReleasedEP9QKeyEvent @ 16 NONAME
	_ZN20PhoneUIQtViewAdapter11onFocusLostEv @ 17 NONAME
	_ZN20PhoneUIQtViewAdapter11openDialpadEv @ 18 NONAME
	_ZN20PhoneUIQtViewAdapter11qt_metacallEN11QMetaObject4CallEiPPv @ 19 NONAME
	_ZN20PhoneUIQtViewAdapter11qt_metacastEPKc @ 20 NONAME
	_ZN20PhoneUIQtViewAdapter11setCallMenuEv @ 21 NONAME
	_ZN20PhoneUIQtViewAdapter12FetchContentEv @ 22 NONAME
	_ZN20PhoneUIQtViewAdapter12clearDialpadEv @ 23 NONAME
	_ZN20PhoneUIQtViewAdapter12isConferenceEP18TPhoneCommandParam @ 24 NONAME
	_ZN20PhoneUIQtViewAdapter12openContactsEv @ 25 NONAME
	_ZN20PhoneUIQtViewAdapter12setAudioPathEP18TPhoneCommandParam @ 26 NONAME
	_ZN20PhoneUIQtViewAdapter13callIdByStateEP18TPhoneCommandParam @ 27 NONAME
	_ZN20PhoneUIQtViewAdapter13dialpadClosedEv @ 28 NONAME
	_ZN20PhoneUIQtViewAdapter13onFocusGainedEv @ 29 NONAME
	_ZN20PhoneUIQtViewAdapter13removeDialpadEv @ 30 NONAME
	_ZN20PhoneUIQtViewAdapter13setEngineInfoEP13MPEEngineInfo @ 31 NONAME
	_ZN20PhoneUIQtViewAdapter14ExecuteCommandEi @ 32 NONAME
	_ZN20PhoneUIQtViewAdapter14ExecuteCommandEiP18TPhoneCommandParam @ 33 NONAME
	_ZN20PhoneUIQtViewAdapter14HandleCommandLEi @ 34 NONAME
	_ZN20PhoneUIQtViewAdapter14HandleCommandLEiP18TPhoneCommandParam @ 35 NONAME
	_ZN20PhoneUIQtViewAdapter14setDialpadMenuEv @ 36 NONAME
	_ZN20PhoneUIQtViewAdapter14showGlobalNoteEP18TPhoneCommandParam @ 37 NONAME
	_ZN20PhoneUIQtViewAdapter15ExecuteCommandLEi @ 38 NONAME
	_ZN20PhoneUIQtViewAdapter15ExecuteCommandLEiP18TPhoneCommandParam @ 39 NONAME
	_ZN20PhoneUIQtViewAdapter15ExecuteCommandLEii @ 40 NONAME
	_ZN20PhoneUIQtViewAdapter15ExecuteCommandLEiiP18TPhoneCommandParam @ 41 NONAME
	_ZN20PhoneUIQtViewAdapter15ExecuteCommandLEiiR7TDesC16 @ 42 NONAME
	_ZN20PhoneUIQtViewAdapter15activeCallCountEP18TPhoneCommandParam @ 43 NONAME
	_ZN20PhoneUIQtViewAdapter15addToConferenceEv @ 44 NONAME
	_ZN20PhoneUIQtViewAdapter15convertDurationEi @ 45 NONAME
	_ZN20PhoneUIQtViewAdapter15setTouchButtonsEP18TPhoneCommandParam @ 46 NONAME
	_ZN20PhoneUIQtViewAdapter16conferenceCallIdEiP18TPhoneCommandParam @ 47 NONAME
	_ZN20PhoneUIQtViewAdapter16createCallHeaderEi @ 48 NONAME
	_ZN20PhoneUIQtViewAdapter16setExpandActionsEv @ 49 NONAME
	_ZN20PhoneUIQtViewAdapter16staticMetaObjectE @ 50 NONAME DATA 16
	_ZN20PhoneUIQtViewAdapter16updateCallHeaderEi @ 51 NONAME
	_ZN20PhoneUIQtViewAdapter17bringToForegroundEv @ 52 NONAME
	_ZN20PhoneUIQtViewAdapter17hideDeviceDialogsEP18TPhoneCommandParam @ 53 NONAME
	_ZN20PhoneUIQtViewAdapter17setMuteIndicationEP18TPhoneCommandParam @ 54 NONAME
	_ZN20PhoneUIQtViewAdapter17setToolbarButtonsEP18TPhoneCommandParam @ 55 NONAME
	_ZN20PhoneUIQtViewAdapter19getStaticMetaObjectEv @ 56 NONAME
	_ZN20PhoneUIQtViewAdapter20expandedBubbleCallIdEP18TPhoneCommandParam @ 57 NONAME
	_ZN20PhoneUIQtViewAdapter20getNumberFromDialpadEP18TPhoneCommandParam @ 58 NONAME
	_ZN20PhoneUIQtViewAdapter20removeAllCallHeadersEv @ 59 NONAME
	_ZN20PhoneUIQtViewAdapter20setCommonButtonFlagsEv @ 60 NONAME
	_ZN20PhoneUIQtViewAdapter20setDialpadVisibilityEP18TPhoneCommandParam @ 61 NONAME
	_ZN20PhoneUIQtViewAdapter21handleWindowActivatedEv @ 62 NONAME
	_ZN20PhoneUIQtViewAdapter21writeAudioVolumeLevelEP18TPhoneCommandParam @ 63 NONAME
	_ZN20PhoneUIQtViewAdapter22createConferenceBubbleEi @ 64 NONAME
	_ZN20PhoneUIQtViewAdapter22getDialpadStringLengthEP18TPhoneCommandParam @ 65 NONAME
	_ZN20PhoneUIQtViewAdapter22removeConferenceBubbleEv @ 66 NONAME
	_ZN20PhoneUIQtViewAdapter22setBubbleSelectionFlagEv @ 67 NONAME
	_ZN20PhoneUIQtViewAdapter23handleWindowDeactivatedEv @ 68 NONAME
	_ZN20PhoneUIQtViewAdapter24removeCallFromConferenceEi @ 69 NONAME
	_ZN20PhoneUIQtViewAdapter24setPrivateFromConferenceEi @ 70 NONAME
	_ZN20PhoneUIQtViewAdapter25createEmergencyCallHeaderEi @ 71 NONAME
	_ZN20PhoneUIQtViewAdapter25handleCipheringInfoChangeEi @ 72 NONAME
	_ZN20PhoneUIQtViewAdapter25setAudioVolumeSliderValueEP18TPhoneCommandParam @ 73 NONAME
	_ZN20PhoneUIQtViewAdapter25setParticipantListActionsEv @ 74 NONAME
	_ZN20PhoneUIQtViewAdapter27getSelectedConferenceMemberEP18TPhoneCommandParam @ 75 NONAME
	_ZN20PhoneUIQtViewAdapter31setExpandedConferenceCallHeaderEv @ 76 NONAME
	_ZN20PhoneUIQtViewAdapter7setMenuEv @ 77 NONAME
	_ZN20PhoneUIQtViewAdapter8openLogsEP18TPhoneCommandParam @ 78 NONAME
	_ZN20PhoneUIQtViewAdapter8showNoteEP18TPhoneCommandParam @ 79 NONAME
	_ZN20PhoneUIQtViewAdapter9setHiddenEb @ 80 NONAME
	_ZN20PhoneUIQtViewAdapterC1ER15PhoneUIQtViewIFP7QObject @ 81 NONAME
	_ZN20PhoneUIQtViewAdapterC2ER15PhoneUIQtViewIFP7QObject @ 82 NONAME
	_ZN20PhoneUIQtViewAdapterD0Ev @ 83 NONAME
	_ZN20PhoneUIQtViewAdapterD1Ev @ 84 NONAME
	_ZN20PhoneUIQtViewAdapterD2Ev @ 85 NONAME
	_ZNK20PhoneResourceAdapter10metaObjectEv @ 86 NONAME
	_ZNK20PhoneResourceAdapter15convertToStringEiRK7QString @ 87 NONAME
	_ZNK20PhoneResourceAdapter18convertToHbActionsEi @ 88 NONAME
	_ZNK20PhoneResourceAdapter22convertCommandToStringEi @ 89 NONAME
	_ZNK20PhoneResourceAdapter24convertToStringWithParamEiRK7QString @ 90 NONAME
	_ZNK20PhoneResourceAdapter24defaultToolbarResourceIdEv @ 91 NONAME
	_ZNK20PhoneResourceAdapter27convertToToolBarCommandListEi @ 92 NONAME
	_ZNK20PhoneUIQtViewAdapter10metaObjectEv @ 93 NONAME
	_ZNK20PhoneUIQtViewAdapter14noteControllerEv @ 94 NONAME
	_ZTI20PhoneResourceAdapter @ 95 NONAME
	_ZTI20PhoneUIQtViewAdapter @ 96 NONAME
	_ZTV20PhoneResourceAdapter @ 97 NONAME
	_ZTV20PhoneUIQtViewAdapter @ 98 NONAME
	_ZThn8_N20PhoneUIQtViewAdapter12FetchContentEv @ 99 NONAME
	_ZThn8_N20PhoneUIQtViewAdapter14ExecuteCommandEi @ 100 NONAME
	_ZThn8_N20PhoneUIQtViewAdapter14ExecuteCommandEiP18TPhoneCommandParam @ 101 NONAME
	_ZThn8_N20PhoneUIQtViewAdapter14HandleCommandLEi @ 102 NONAME
	_ZThn8_N20PhoneUIQtViewAdapter14HandleCommandLEiP18TPhoneCommandParam @ 103 NONAME
	_ZThn8_N20PhoneUIQtViewAdapter15ExecuteCommandLEi @ 104 NONAME
	_ZThn8_N20PhoneUIQtViewAdapter15ExecuteCommandLEiP18TPhoneCommandParam @ 105 NONAME
	_ZThn8_N20PhoneUIQtViewAdapter15ExecuteCommandLEii @ 106 NONAME
	_ZThn8_N20PhoneUIQtViewAdapter15ExecuteCommandLEiiP18TPhoneCommandParam @ 107 NONAME
	_ZThn8_N20PhoneUIQtViewAdapter15ExecuteCommandLEiiR7TDesC16 @ 108 NONAME
	_ZThn8_N20PhoneUIQtViewAdapterD0Ev @ 109 NONAME
	_ZThn8_N20PhoneUIQtViewAdapterD1Ev @ 110 NONAME

