EXPORTS
	_ZN11Screensaver10backgroundEv @ 1 NONAME
	_ZN11Screensaver10foregroundEv @ 2 NONAME
	_ZN11Screensaver10initializeEv @ 3 NONAME
	_ZN11Screensaver11qt_metacallEN11QMetaObject4CallEiPPv @ 4 NONAME
	_ZN11Screensaver11qt_metacastEPKc @ 5 NONAME
	_ZN11Screensaver11viewChangedEP15QGraphicsWidget @ 6 NONAME
	_ZN11Screensaver12currentStateEv @ 7 NONAME
	_ZN11Screensaver12onInitializeEv @ 8 NONAME
	_ZN11Screensaver16staticMetaObjectE @ 9 NONAME DATA 16
	_ZN11Screensaver17partialForegroundEv @ 10 NONAME
	_ZN11Screensaver19getStaticMetaObjectEv @ 11 NONAME
	_ZN11Screensaver5closeEv @ 12 NONAME
	_ZN11Screensaver7faultedEv @ 13 NONAME
	_ZN11Screensaver7onCloseEv @ 14 NONAME
	_ZN11Screensaver9powerSaveEv @ 15 NONAME
	_ZN11ScreensaverC2EP7QObject @ 16 NONAME
	_ZN11ScreensaverD0Ev @ 17 NONAME
	_ZN11ScreensaverD1Ev @ 18 NONAME
	_ZN11ScreensaverD2Ev @ 19 NONAME
	_ZN18ScreensaverFactory11qt_metacallEN11QMetaObject4CallEiPPv @ 20 NONAME
	_ZN18ScreensaverFactory11qt_metacastEPKc @ 21 NONAME
	_ZN18ScreensaverFactory16staticMetaObjectE @ 22 NONAME DATA 16
	_ZN18ScreensaverFactory17createScreensaverERK16ScreensaverToken @ 23 NONAME
	_ZN18ScreensaverFactory19getStaticMetaObjectEv @ 24 NONAME
	_ZN18ScreensaverFactoryC1ERK7QStringP7QObject @ 25 NONAME
	_ZN18ScreensaverFactoryC2ERK7QStringP7QObject @ 26 NONAME
	_ZN18ScreensaverFactoryD0Ev @ 27 NONAME
	_ZN18ScreensaverFactoryD1Ev @ 28 NONAME
	_ZN18ScreensaverFactoryD2Ev @ 29 NONAME
	_ZN25ScreensaverPluginUnloader11qt_metacallEN11QMetaObject4CallEiPPv @ 30 NONAME
	_ZN25ScreensaverPluginUnloader11qt_metacastEPKc @ 31 NONAME
	_ZN25ScreensaverPluginUnloader16staticMetaObjectE @ 32 NONAME DATA 16
	_ZN25ScreensaverPluginUnloader19getStaticMetaObjectEv @ 33 NONAME
	_ZN25ScreensaverPluginUnloaderC1EP13QPluginLoaderP7QObject @ 34 NONAME
	_ZN25ScreensaverPluginUnloaderC2EP13QPluginLoaderP7QObject @ 35 NONAME
	_ZN25ScreensaverPluginUnloaderD0Ev @ 36 NONAME
	_ZN25ScreensaverPluginUnloaderD1Ev @ 37 NONAME
	_ZN25ScreensaverPluginUnloaderD2Ev @ 38 NONAME
	_ZNK11Screensaver10metaObjectEv @ 39 NONAME
	_ZNK18ScreensaverFactory10metaObjectEv @ 40 NONAME
	_ZNK25ScreensaverPluginUnloader10metaObjectEv @ 41 NONAME
	_ZTI11Screensaver @ 42 NONAME
	_ZTI18ScreensaverFactory @ 43 NONAME
	_ZTI25ScreensaverPluginUnloader @ 44 NONAME
	_ZTV11Screensaver @ 45 NONAME
	_ZTV18ScreensaverFactory @ 46 NONAME
	_ZTV25ScreensaverPluginUnloader @ 47 NONAME
	_ZN11Screensaver15unlockRequestedEv @ 48 NONAME
	_ZN11Screensaver22handleActiveIndicatorsERK5QListIP20HbIndicatorInterfaceE @ 49 NONAME
	_ZN11Screensaver24handleActivatedIndicatorEP20HbIndicatorInterface @ 50 NONAME
	_ZN11Screensaver24onHandleActiveIndicatorsERK5QListIP20HbIndicatorInterfaceE @ 51 NONAME
	_ZN11Screensaver26handleDeactivatedIndicatorEP20HbIndicatorInterface @ 52 NONAME
	_ZN11Screensaver26onHandleActivatedIndicatorEP20HbIndicatorInterface @ 53 NONAME
	_ZN11Screensaver28onHandleDeactivatedIndicatorEP20HbIndicatorInterface @ 54 NONAME
	_ZN11Screensaver15activeAreaMovedEv @ 55 NONAME

