EXPORTS
	??1CHlpDbWriter@@UAE@XZ @ 1 NONAME ; public: virtual __thiscall CHlpDbWriter::~CHlpDbWriter(void)
	??1CHlpRowSet@@UAE@XZ @ 2 NONAME ; public: virtual __thiscall CHlpRowSet::~CHlpRowSet(void)
	?AtBeginning@CHlpRowSet@@QAEHXZ @ 3 NONAME ; public: int __thiscall CHlpRowSet::AtBeginning(void)
	?AtEnd@CHlpRowSet@@QAEHXZ @ 4 NONAME ; public: int __thiscall CHlpRowSet::AtEnd(void)
	?AtRow@CHlpRowSet@@QAEHXZ @ 5 NONAME ; public: int __thiscall CHlpRowSet::AtRow(void)
	?BeginTransaction@CHlpDbWriter@@QAEXXZ @ 6 NONAME ; public: void __thiscall CHlpDbWriter::BeginTransaction(void)
	?CloseFileL@CHlpDbWriter@@QAEXXZ @ 7 NONAME ; public: void __thiscall CHlpDbWriter::CloseFileL(void)
	?CommitTransaction@CHlpDbWriter@@QAEXXZ @ 8 NONAME ; public: void __thiscall CHlpDbWriter::CommitTransaction(void)
	?CompressDatabaseL@CHlpDbWriter@@QAEXXZ @ 9 NONAME ; public: void __thiscall CHlpDbWriter::CompressDatabaseL(void)
	?ContextTable@CHlpDbWriter@@QAEPAVCHlpTable@@XZ @ 10 NONAME ; public: class CHlpTable * __thiscall CHlpDbWriter::ContextTable(void)
	?CountL@CHlpRowSet@@QAEHXZ @ 11 NONAME ; public: int __thiscall CHlpRowSet::CountL(void)
	?CreateDatabaseL@CHlpDbWriter@@QAEXXZ @ 12 NONAME ; public: void __thiscall CHlpDbWriter::CreateDatabaseL(void)
	?CreateFileL@CHlpDbWriter@@QAEXABVTDesC16@@@Z @ 13 NONAME ; public: void __thiscall CHlpDbWriter::CreateFileL(class TDesC16 const &)
	?FirstL@CHlpRowSet@@QAEHXZ @ 14 NONAME ; public: int __thiscall CHlpRowSet::FirstL(void)
	?GetL@CHlpView@@QAEXXZ @ 15 NONAME ; public: void __thiscall CHlpView::GetL(void)
	?GetRichTextL@CHlpView@@QAEXHHAAVCRichText@@@Z @ 16 NONAME ; public: void __thiscall CHlpView::GetRichTextL(int,int,class CRichText &)
	?GetTextL@CHlpView@@QAEXHAAVTDes16@@@Z @ 17 NONAME ; public: void __thiscall CHlpView::GetTextL(int,class TDes16 &)
	?GetValL@CHlpView@@QAEXHAAK@Z @ 18 NONAME ; public: void __thiscall CHlpView::GetValL(int,unsigned long &)
	?IndexTable@CHlpDbWriter@@QAEPAVCHlpTable@@XZ @ 19 NONAME ; public: class CHlpTable * __thiscall CHlpDbWriter::IndexTable(void)
	?InsertL@CHlpTable@@QAEXXZ @ 20 NONAME ; public: void __thiscall CHlpTable::InsertL(void)
	?LastL@CHlpRowSet@@QAEHXZ @ 21 NONAME ; public: int __thiscall CHlpRowSet::LastL(void)
	?MapColNameToColNo@CHlpRowSet@@QAEHABVTDbCol@@@Z @ 22 NONAME ; public: int __thiscall CHlpRowSet::MapColNameToColNo(class TDbCol const &)
	?MapColNameToColNo@CHlpRowSet@@QAEHABVTDesC16@@@Z @ 23 NONAME ; public: int __thiscall CHlpRowSet::MapColNameToColNo(class TDesC16 const &)
	?NewL@CHlpDbWriter@@SAPAV1@AAVRFs@@@Z @ 24 NONAME ; public: static class CHlpDbWriter * __cdecl CHlpDbWriter::NewL(class RFs &)
	?NewL@CHlpTable@@SAPAV1@PAVRDbView@@@Z @ 25 NONAME ; public: static class CHlpTable * __cdecl CHlpTable::NewL(class RDbView *)
	?NewL@CHlpView@@SAPAV1@PAVRDbView@@@Z @ 26 NONAME ; public: static class CHlpView * __cdecl CHlpView::NewL(class RDbView *)
	?NewLC@CHlpDbWriter@@SAPAV1@AAVRFs@@@Z @ 27 NONAME ; public: static class CHlpDbWriter * __cdecl CHlpDbWriter::NewLC(class RFs &)
	?NewLC@CHlpTable@@SAPAV1@PAVRDbView@@@Z @ 28 NONAME ; public: static class CHlpTable * __cdecl CHlpTable::NewLC(class RDbView *)
	?NewLC@CHlpView@@SAPAV1@PAVRDbView@@@Z @ 29 NONAME ; public: static class CHlpView * __cdecl CHlpView::NewLC(class RDbView *)
	?NextL@CHlpRowSet@@QAEXXZ @ 30 NONAME ; public: void __thiscall CHlpRowSet::NextL(void)
	?PreviousL@CHlpRowSet@@QAEXXZ @ 31 NONAME ; public: void __thiscall CHlpRowSet::PreviousL(void)
	?PutL@CHlpTable@@QAEXXZ @ 32 NONAME ; public: void __thiscall CHlpTable::PutL(void)
	?SetColL@CHlpTable@@QAEXHABVTDesC16@@@Z @ 33 NONAME ; public: void __thiscall CHlpTable::SetColL(int,class TDesC16 const &)
	?SetColL@CHlpTable@@QAEXHHAAVCRichText@@@Z @ 34 NONAME ; public: void __thiscall CHlpTable::SetColL(int,int,class CRichText &)
	?SetColL@CHlpTable@@QAEXHK@Z @ 35 NONAME ; public: void __thiscall CHlpTable::SetColL(int,unsigned long)
	?SetUidL@CHlpDbWriter@@QAEXVTUid@@@Z @ 36 NONAME ; public: void __thiscall CHlpDbWriter::SetUidL(class TUid)
	?TopicIndexTable@CHlpDbWriter@@QAEPAVCHlpTable@@XZ @ 37 NONAME ; public: class CHlpTable * __thiscall CHlpDbWriter::TopicIndexTable(void)
	?TopicTable@CHlpDbWriter@@QAEPAVCHlpTable@@XZ @ 38 NONAME ; public: class CHlpTable * __thiscall CHlpDbWriter::TopicTable(void)
	?View@CHlpRowSet@@QAEPAVRDbView@@XZ @ 39 NONAME ; public: class RDbView * __thiscall CHlpRowSet::View(void)
	?SetDatabaseUidL@CHlpDbWriter@@QAEXAAVTUid@@@Z @ 40 NONAME ; public: void __thiscall CHlpDbWriter::SetDatabaseUidL(class TUid &)
; NEW:
	?SetColL@CHlpTable@@QAEXHAAVCRichText@@@Z @ 41 NONAME ; public: void __thiscall CHlpTable::SetColL(int,class CRichText &)
	?AddBitmapL@CHlpDbWriter@@QAEXH@Z @ 42 NONAME ; public: void __thiscall CHlpDbWriter::AddBitmapL(int)
	?ImageTable@CHlpDbWriter@@QAEPAVCHlpTable@@XZ @ 43 NONAME ; public: class CHlpTable * __thiscall CHlpDbWriter::ImageTable(void)
	?IsBitmapStored@CHlpDbWriter@@QBEHH@Z @ 44 NONAME ; public: int __thiscall CHlpDbWriter::IsBitmapStored(int)const 
	?SetColL@CHlpTable@@QAEXHABVCFbsBitmap@@@Z @ 45 NONAME ; public: void __thiscall CHlpTable::SetColL(int,class CFbsBitmap const &)
	?BitmapCount@CHlpDbWriter@@QBEHXZ @ 46 NONAME ; public: int __thiscall CHlpDbWriter::BitmapCount(void)const 
	?BitmapIdForIndex@CHlpDbWriter@@QBEHH@Z @ 47 NONAME ; public: int __thiscall CHlpDbWriter::BitmapIdForIndex(int)const 

