EXPORTS
	_ZN10LogsFilter10setMaxSizeEi @ 1 NONAME
	_ZN10LogsFilterC1ENS_10FilterTypeE @ 2 NONAME
	_ZN10LogsFilterC2ENS_10FilterTypeE @ 3 NONAME
	_ZN10LogsFilterD0Ev @ 4 NONAME
	_ZN10LogsFilterD1Ev @ 5 NONAME
	_ZN10LogsFilterD2Ev @ 6 NONAME
	_ZN11LogsContact14updateExistingEv @ 7 NONAME
	_ZN11LogsContact18allowedRequestTypeEv @ 8 NONAME
	_ZN11LogsContact20cancelServiceRequestEv @ 9 NONAME
	_ZN11LogsContact4openEv @ 10 NONAME
	_ZN11LogsContact6addNewEv @ 11 NONAME
	_ZN11LogsContactD0Ev @ 12 NONAME
	_ZN11LogsContactD1Ev @ 13 NONAME
	_ZN11LogsContactD2Ev @ 14 NONAME
	_ZN11LogsMessage11sendMessageEv @ 15 NONAME
	_ZN11LogsMessage19sendMessageToNumberERK7QStringS2_j @ 16 NONAME
	_ZN11LogsMessageD0Ev @ 17 NONAME
	_ZN11LogsMessageD1Ev @ 18 NONAME
	_ZN11LogsMessageD2Ev @ 19 NONAME
	_ZN16LogsCustomFilter11clearEventsEv @ 20 NONAME
	_ZN16LogsCustomFilter12setContactIdEj @ 21 NONAME
	_ZN16LogsCustomFilter14markEventsSeenEv @ 22 NONAME
	_ZN16LogsCustomFilterC1Ev @ 23 NONAME
	_ZN16LogsCustomFilterC2Ev @ 24 NONAME
	_ZN16LogsCustomFilterD0Ev @ 25 NONAME
	_ZN16LogsCustomFilterD1Ev @ 26 NONAME
	_ZN16LogsCustomFilterD2Ev @ 27 NONAME
	_ZN16LogsDetailsModel10clearEventEv @ 28 NONAME
	_ZN16LogsDetailsModel20getNumberToClipboardEv @ 29 NONAME
	_ZN16LogsDetailsModelD0Ev @ 30 NONAME
	_ZN16LogsDetailsModelD1Ev @ 31 NONAME
	_ZN16LogsDetailsModelD2Ev @ 32 NONAME
	_ZN16LogsMatchesModel11logsMatchesERK7QString @ 33 NONAME
	_ZN16LogsMatchesModelD0Ev @ 34 NONAME
	_ZN16LogsMatchesModelD1Ev @ 35 NONAME
	_ZN16LogsMatchesModelD2Ev @ 36 NONAME
	_ZN17LogsAbstractModel13createContactERK7QString @ 37 NONAME
	_ZN17LogsAbstractModel19setPredictiveSearchEb @ 38 NONAME
	_ZN17LogsAbstractModel19updateConfigurationER23LogsConfigurationParams @ 39 NONAME
	_ZN17LogsAbstractModel22predictiveSearchStatusEv @ 40 NONAME
	_ZN23LogsConfigurationParams16setLocaleChangedEb @ 41 NONAME
	_ZN23LogsConfigurationParams20setListItemTextWidthEi @ 42 NONAME
	_ZN23LogsConfigurationParamsC1EP7QObject @ 43 NONAME
	_ZN23LogsConfigurationParamsC2EP7QObject @ 44 NONAME
	_ZN23LogsConfigurationParamsD0Ev @ 45 NONAME
	_ZN23LogsConfigurationParamsD1Ev @ 46 NONAME
	_ZN23LogsConfigurationParamsD2Ev @ 47 NONAME
	_ZN23LogsConfigurationParamsaSERKS_ @ 48 NONAME
	_ZN8LogsCall12callToNumberENS_8CallTypeERK7QStringjj @ 49 NONAME
	_ZN8LogsCall15defaultCallTypeEv @ 50 NONAME
	_ZN8LogsCall16allowedCallTypesEv @ 51 NONAME
	_ZN8LogsCall16initiateCallbackEv @ 52 NONAME
	_ZN8LogsCall4callENS_8CallTypeE @ 53 NONAME
	_ZN8LogsCallD0Ev @ 54 NONAME
	_ZN8LogsCallD1Ev @ 55 NONAME
	_ZN8LogsCallD2Ev @ 56 NONAME
	_ZN9LogsEvent19getNumberForCallingEv @ 57 NONAME
	_ZN9LogsEvent9serializeER11QDataStream @ 58 NONAME
	_ZN9LogsEventC1ER11QDataStream @ 59 NONAME
	_ZN9LogsEventC1ERKS_ @ 60 NONAME
	_ZN9LogsEventC2ER11QDataStream @ 61 NONAME
	_ZN9LogsEventC2ERKS_ @ 62 NONAME
	_ZN9LogsEventD0Ev @ 63 NONAME
	_ZN9LogsEventD1Ev @ 64 NONAME
	_ZN9LogsEventD2Ev @ 65 NONAME
	_ZN9LogsModel11refreshDataEv @ 66 NONAME
	_ZN9LogsModel12compressDataEv @ 67 NONAME
	_ZN9LogsModel14markEventsSeenENS_9ClearTypeE @ 68 NONAME
	_ZN9LogsModel16logsDetailsModelER9LogsEvent @ 69 NONAME
	_ZN9LogsModel16logsMatchesModelEv @ 70 NONAME
	_ZN9LogsModel19updateConfigurationER23LogsConfigurationParams @ 71 NONAME
	_ZN9LogsModel23clearMissedCallsCounterEv @ 72 NONAME
	_ZN9LogsModel9clearListENS_9ClearTypeE @ 73 NONAME
	_ZN9LogsModelC1ENS_13LogsModelTypeEb @ 74 NONAME
	_ZN9LogsModelC2ENS_13LogsModelTypeEb @ 75 NONAME
	_ZN9LogsModelD0Ev @ 76 NONAME
	_ZN9LogsModelD1Ev @ 77 NONAME
	_ZN9LogsModelD2Ev @ 78 NONAME
	_ZNK10LogsFilter10filterTypeEv @ 79 NONAME
	_ZNK10LogsFilter9clearTypeEv @ 80 NONAME
	_ZNK16LogsDetailsModel12getLogsEventEv @ 81 NONAME
	_ZNK23LogsConfigurationParams13localeChangedEv @ 82 NONAME
	_ZNK23LogsConfigurationParams17listItemTextWidthEv @ 83 NONAME
	_ZNK9LogsEvent10duplicatesEv @ 84 NONAME
	_ZNK9LogsEvent11remotePartyEv @ 85 NONAME
	_ZNK9LogsEvent12ringDurationEv @ 86 NONAME
	_ZNK9LogsEvent14contactLocalIdEv @ 87 NONAME
	_ZNK9LogsEvent20isRemotePartyPrivateEv @ 88 NONAME
	_ZNK9LogsEvent3ALSEv @ 89 NONAME
	_ZNK9LogsEvent4timeEv @ 90 NONAME
	_ZNK9LogsEvent5logIdEv @ 91 NONAME
	_ZNK9LogsEvent6isReadEv @ 92 NONAME
	_ZNK9LogsEvent6numberEv @ 93 NONAME
	_ZNK9LogsEvent8durationEv @ 94 NONAME
	_ZNK9LogsEvent9directionEv @ 95 NONAME
	_ZNK9LogsEvent9eventTypeEv @ 96 NONAME

