EXPORTS
	_ZN11CMPXDbTable12DoCheckTableER12RSqlDatabaseRK7TDesC16 @ 1 NONAME
	_ZN11CMPXDbTable12UpdateMediaLER13RSqlStatementRK6TArrayI13TMPXAttributeER9CMPXMedia @ 2 NONAME
	_ZN11CMPXDbTable14BaseConstructLEv @ 3 NONAME
	_ZN11CMPXDbTable16ExecuteIntQueryLERK7TDesC16 @ 4 NONAME
	_ZN11CMPXDbTable16ExecuteIntQueryLERK7TDesC16S2_ @ 5 NONAME
	_ZN11CMPXDbTable16ExecuteIntQueryLERK7TDesC16S2_m @ 6 NONAME
	_ZN11CMPXDbTable16ExecuteIntQueryLERK7TDesC16m @ 7 NONAME
	_ZN11CMPXDbTable16ExecuteIntQueryLERK7TDesC16mm @ 8 NONAME
	_ZN11CMPXDbTable16ExecuteIntQueryLEiRK7TDesC16 @ 9 NONAME
	_ZN11CMPXDbTable16ExecuteSumQueryLERK7TDesC16 @ 10 NONAME
	_ZN11CMPXDbTable16ExecuteSumQueryLERK7TDesC16S2_ @ 11 NONAME
	_ZN11CMPXDbTable16ExecuteSumQueryLERK7TDesC16S2_S2_ @ 12 NONAME
	_ZN11CMPXDbTable16ExecuteSumQueryLERK7TDesC16S2_m @ 13 NONAME
	_ZN11CMPXDbTable16ExecuteSumQueryLERK7TDesC16S2_mS2_m @ 14 NONAME
	_ZN11CMPXDbTable16ExecuteSumQueryLERK7TDesC16m @ 15 NONAME
	_ZN11CMPXDbTable16ExecuteSumQueryLERK7TDesC16mm @ 16 NONAME
	_ZN11CMPXDbTable16ExecuteSumQueryLERK7TDesC16mmm @ 17 NONAME
	_ZN11CMPXDbTable18ExecuteMediaQueryLERK6TArrayI13TMPXAttributeER14CMPXMediaArrayRK7TDesC16 @ 18 NONAME
	_ZN11CMPXDbTable18ExecuteMediaQueryLERK6TArrayI13TMPXAttributeER14CMPXMediaArrayRK7TDesC16S9_ @ 19 NONAME
	_ZN11CMPXDbTable18ExecuteMediaQueryLERK6TArrayI13TMPXAttributeER14CMPXMediaArrayRK7TDesC16S9_S9_ @ 20 NONAME
	_ZN11CMPXDbTable18ExecuteMediaQueryLERK6TArrayI13TMPXAttributeER14CMPXMediaArrayRK7TDesC16S9_i @ 21 NONAME
	_ZN11CMPXDbTable18ExecuteMediaQueryLERK6TArrayI13TMPXAttributeER14CMPXMediaArrayRK7TDesC16S9_iS9_i @ 22 NONAME
	_ZN11CMPXDbTable18ExecuteMediaQueryLERK6TArrayI13TMPXAttributeER14CMPXMediaArrayRK7TDesC16S9_iij @ 23 NONAME
	_ZN11CMPXDbTable18ExecuteMediaQueryLERK6TArrayI13TMPXAttributeER14CMPXMediaArrayRK7TDesC16i @ 24 NONAME
	_ZN11CMPXDbTable18ExecuteMediaQueryLERK6TArrayI13TMPXAttributeER14CMPXMediaArrayRK7TDesC16ii @ 25 NONAME
	_ZN11CMPXDbTable18ExecuteMediaQueryLERK6TArrayI13TMPXAttributeER14CMPXMediaArrayRK7TDesC16iij @ 26 NONAME
	_ZN11CMPXDbTable18ExecuteMediaQueryLERK6TArrayI13TMPXAttributeER14CMPXMediaArrayiRK7TDesC16 @ 27 NONAME
	_ZN11CMPXDbTable18ExecuteMediaQueryLERK6TArrayI13TMPXAttributeER9CMPXMediaRK7TDesC16 @ 28 NONAME
	_ZN11CMPXDbTable18ExecuteMediaQueryLERK6TArrayI13TMPXAttributeER9CMPXMediaRK7TDesC16i @ 29 NONAME
	_ZN11CMPXDbTable18ExecuteMediaQueryLEiRK6TArrayI13TMPXAttributeER14CMPXMediaArrayRK7TDesC16i @ 30 NONAME
	_ZN11CMPXDbTable18ExecuteSumExQueryLERK7TDesC16mi @ 31 NONAME
	_ZN11CMPXDbTable25ExecuteMediaQueryOnDriveLEiRK6TArrayI13TMPXAttributeER14CMPXMediaArrayRK7TDesC16 @ 32 NONAME
	_ZN11CMPXDbTableC2ER13CMPXDbManager @ 33 NONAME
	_ZN11CMPXDbTableD0Ev @ 34 NONAME
	_ZN11CMPXDbTableD1Ev @ 35 NONAME
	_ZN11CMPXDbTableD2Ev @ 36 NONAME
	_ZN12CMPXResource10ReadHBufCLEi @ 37 NONAME
	_ZN12CMPXResource14ReadDesCArrayLEi @ 38 NONAME
	_ZN12CMPXResource14ReadMenuArrayLEiR6RArrayIiE @ 39 NONAME
	_ZN12CMPXResource15ReadDesCArrayLCEi @ 40 NONAME
	_ZN12CMPXResource15ReadMenuArrayLCEiR6RArrayIiE @ 41 NONAME
	_ZN12CMPXResource4NewLERK7TDesC16 @ 42 NONAME
	_ZN12CMPXResource5NewLCERK7TDesC16 @ 43 NONAME
	_ZN12CMPXResource7ReleaseEv @ 44 NONAME
	_ZN13CMPXDbManager10ConstructLERK4TBufILi256EE @ 45 NONAME
	_ZN13CMPXDbManager13CopyDBsToRamLEi @ 46 NONAME
	_ZN13CMPXDbManager13CreateTablesLER12RSqlDatabase @ 47 NONAME
	_ZN13CMPXDbManager13ExecuteQueryLEi11TRefByValueIK7TDesC16Ez @ 48 NONAME
	_ZN13CMPXDbManager13InTransactionEv @ 49 NONAME
	_ZN13CMPXDbManager13IsInitializedEv @ 50 NONAME
	_ZN13CMPXDbManager13IsRemoteDriveE12TDriveNumber @ 51 NONAME
	_ZN13CMPXDbManager13OpenDatabaseLEi @ 52 NONAME
	_ZN13CMPXDbManager14CloseDatabaseLEi @ 53 NONAME
	_ZN13CMPXDbManager14InitDatabasesLE6RArrayIiE @ 54 NONAME
	_ZN13CMPXDbManager14PrintDatabaseLEv @ 55 NONAME
	_ZN13CMPXDbManager14RegisterTableLER9MMPXTable @ 56 NONAME
	_ZN13CMPXDbManager15CheckDiskSpaceLEi @ 57 NONAME
	_ZN13CMPXDbManager15CopyDBsFromRamLEv @ 58 NONAME
	_ZN13CMPXDbManager15EnsureRamSpaceLEv @ 59 NONAME
	_ZN13CMPXDbManager17CloseAllDatabasesEv @ 60 NONAME
	_ZN13CMPXDbManager17OpenAllDatabasesLEv @ 61 NONAME
	_ZN13CMPXDbManager17RecreateDatabaseLEi @ 62 NONAME
	_ZN13CMPXDbManager19ExecuteSelectQueryLE11TRefByValueIK7TDesC16Ez @ 63 NONAME
	_ZN13CMPXDbManager19ExecuteSelectQueryLEi11TRefByValueIK7TDesC16Ez @ 64 NONAME
	_ZN13CMPXDbManager19ExecuteSelectQueryLEjRK7TDesC16i11TRefByValueIS1_Ez @ 65 NONAME
	_ZN13CMPXDbManager19ExecuteSelectQueryLEjii11TRefByValueIK7TDesC16Ez @ 66 NONAME
	_ZN13CMPXDbManager21RecreateAllDatabasesLEv @ 67 NONAME
	_ZN13CMPXDbManager23RegenerateAllDatabasesLEv @ 68 NONAME
	_ZN13CMPXDbManager2FsEv @ 69 NONAME
	_ZN13CMPXDbManager30ExecuteSelectQueryOnAllDrivesLEi11TRefByValueIK7TDesC16Ez @ 70 NONAME
	_ZN13CMPXDbManager6BeginLEv @ 71 NONAME
	_ZN13CMPXDbManager7CommitLEv @ 72 NONAME
	_ZN13CMPXDbManager9RollbackLEv @ 73 NONAME
	_ZN13CMPXDbManagerC1ER3RFs @ 74 NONAME
	_ZN13CMPXDbManagerC2ER3RFs @ 75 NONAME
	_ZN13CMPXDbManagerD0Ev @ 76 NONAME
	_ZN13CMPXDbManagerD1Ev @ 77 NONAME
	_ZN13CMPXDbManagerD2Ev @ 78 NONAME
	_ZN15MPXDbCommonUtil10DeleteFileER3RFsRK7TDesC16 @ 79 NONAME
	_ZN15MPXDbCommonUtil11DesToTTimeLERK7TDesC16 @ 80 NONAME
	_ZN15MPXDbCommonUtil11GetDRMTypeLERK7TDesC16 @ 81 NONAME
	_ZN15MPXDbCommonUtil12AppendMediaLER14CMPXMediaArrayRK7TDesC1615TMPXGeneralType19TMPXGeneralCategory10TMPXItemIdij @ 82 NONAME
	_ZN15MPXDbCommonUtil12AppendValueLER12CDesC16ArrayS1_RK7TDesC16S4_ @ 83 NONAME
	_ZN15MPXDbCommonUtil12AppendValueLER12CDesC16ArrayS1_RK7TDesC16m @ 84 NONAME
	_ZN15MPXDbCommonUtil12TTimeToDesLCERK5TTime @ 85 NONAME
	_ZN15MPXDbCommonUtil13PrependMediaLER14CMPXMediaArrayRK7TDesC1615TMPXGeneralType19TMPXGeneralCategory10TMPXItemIdiji @ 86 NONAME
	_ZN15MPXDbCommonUtil14GetColumnTextLER13RSqlStatementi @ 87 NONAME
	_ZN15MPXDbCommonUtil14SqlCriterionLCERK7TDesC16S2_ @ 88 NONAME
	_ZN15MPXDbCommonUtil14SqlCriterionLCERK7TDesC16S2_S2_ @ 89 NONAME
	_ZN15MPXDbCommonUtil14SqlCriterionLCERK7TDesC16S2_iS2_i @ 90 NONAME
	_ZN15MPXDbCommonUtil14SqlCriterionLCERK7TDesC16i @ 91 NONAME
	_ZN15MPXDbCommonUtil14SqlCriterionLCERK7TDesC16ii @ 92 NONAME
	_ZN15MPXDbCommonUtil15AttributeExistsERK6TArrayI13TMPXAttributeERKS1_ @ 93 NONAME
	_ZN15MPXDbCommonUtil15CreateFullPathLEiRK7TDesC16 @ 94 NONAME
	_ZN15MPXDbCommonUtil16AddSqlCriterionLER12CDesC16ArrayRK7TDesC16S4_ @ 95 NONAME
	_ZN15MPXDbCommonUtil16AddSqlCriterionLER12CDesC16ArrayRK7TDesC16i @ 96 NONAME
	_ZN15MPXDbCommonUtil16CurrentDateDesLCEv @ 97 NONAME
	_ZN15MPXDbCommonUtil16CurrentTimeDesLCEv @ 98 NONAME
	_ZN15MPXDbCommonUtil16SqlCriterion64LCERK7TDesC16x @ 99 NONAME
	_ZN15MPXDbCommonUtil16SqlCriterion64LCERK7TDesC16xx @ 100 NONAME
	_ZN15MPXDbCommonUtil17GenerateUniqueIdLER3RFs19TMPXGeneralCategoryRK7TDesC16i @ 101 NONAME
	_ZN15MPXDbCommonUtil17StringFromArrayLCERK12CDesC16ArrayRK7TDesC16 @ 102 NONAME
	_ZN15MPXDbCommonUtil18GetMimeTypeForUriLERK7TDesC16 @ 103 NONAME
	_ZN15MPXDbCommonUtil18StringFromArraysLCERK12CDesC16ArrayS2_RK7TDesC16S5_ @ 104 NONAME
	_ZN15MPXDbCommonUtil20FillInSupportedUIDsLERK6TArrayI13TMPXAttributeER6RArrayIiE @ 105 NONAME
	_ZN15MPXDbCommonUtil21GetDriveIdMatchVolIdLER3RFsj @ 106 NONAME
	_ZN15MPXDbCommonUtil21GetVolIdMatchDriveIdLER3RFsi @ 107 NONAME
	_ZN15MPXDbCommonUtil21ProcessPatternCharsLCERK7TDesC16 @ 108 NONAME
	_ZN15MPXDbCommonUtil21ProcessSingleQuotesLCERK7TDesC16 @ 109 NONAME
	_ZN15MPXDbCommonUtil22AddItemChangedMessageLER14CMPXMediaArray10TMPXItemId19TMPXChangeEventType19TMPXGeneralCategoryjS2_ @ 110 NONAME
	_ZN15MPXDbCommonUtil23FillItemChangedMessageLER9CMPXMedia10TMPXItemId19TMPXChangeEventType19TMPXGeneralCategoryjS2_ @ 111 NONAME
	_ZN15MPXDbCommonUtil23FindItemChangedMessageLERK14CMPXMediaArrayRK9CMPXMedia @ 112 NONAME
	_ZN15MPXDbCommonUtil25FindAndReplaceSingleQuoteERK7TDesC16R6TDes16 @ 113 NONAME
	_ZN15MPXDbCommonUtil7SetHBufERP7HBufC16PK7TDesC16i @ 114 NONAME
	_ZN15MPXDbCommonUtil9GetDriveLERK7TDesC16R10TDriveUnit @ 115 NONAME
	_ZN16CMPXDbActiveTask10GetCommandEv @ 116 NONAME
	_ZN16CMPXDbActiveTask16GetVisibleChangeEv @ 117 NONAME
	_ZN16CMPXDbActiveTask16SetVisibleChangeENS_17TChangeVisibilityE @ 118 NONAME
	_ZN16CMPXDbActiveTask17GetChangeMessagesEv @ 119 NONAME
	_ZN16CMPXDbActiveTask4NewLER24MMPXDbActiveTaskObserver @ 120 NONAME
	_ZN16CMPXDbActiveTask4RunLEv @ 121 NONAME
	_ZN16CMPXDbActiveTask6StartLEmRK9CMPXMedia @ 122 NONAME
	_ZN16CMPXDbActiveTask7GetStepEv @ 123 NONAME
	_ZN16CMPXDbActiveTask7GetTaskEv @ 124 NONAME
	_ZN16CMPXDbActiveTask8DoCancelEv @ 125 NONAME
	_ZN16CMPXDbActiveTask8RunErrorEi @ 126 NONAME
	_ZN16CMPXDbActiveTaskD0Ev @ 127 NONAME
	_ZN16CMPXDbActiveTaskD1Ev @ 128 NONAME
	_ZN16CMPXDbActiveTaskD2Ev @ 129 NONAME
	_ZNK13CMPXDbManager13DatabaseCountEv @ 130 NONAME
	_ZNK13CMPXDbManager6IsOpenEi @ 131 NONAME
	_ZNK13CMPXDbManager7DbDriveEi @ 132 NONAME
	_ZNK13CMPXDbManager7VersionEv @ 133 NONAME
	_ZTI11CMPXDbTable @ 134 NONAME
	_ZTI12CMPXResource @ 135 NONAME
	_ZTI13CMPXDbManager @ 136 NONAME
	_ZTV11CMPXDbTable @ 137 NONAME
	_ZTV12CMPXResource @ 138 NONAME
	_ZTV13CMPXDbManager @ 139 NONAME
	_ZN15MPXDbCommonUtil27AddItemAlbumChangedMessageLER14CMPXMediaArray10TMPXItemId19TMPXChangeEventType19TMPXGeneralCategoryjiS2_ @ 140 NONAME

