EXPORTS
	?insertMessageIntoModel@NmMessageListModel@@AAEXPAVNmMessageEnvelope@@H_N@Z @ 1 NONAME ; void NmMessageListModel::insertMessageIntoModel(class NmMessageEnvelope *, int, bool)
	??0NmUiEngine@@AAE@XZ @ 2 NONAME ; NmUiEngine::NmUiEngine(void)
	?insertDividerIntoModel@NmMessageListModel@@AAEXPAVNmMessageEnvelope@@H@Z @ 3 NONAME ; void NmMessageListModel::insertDividerIntoModel(class NmMessageEnvelope *, int)
	?goOnline@NmUiEngine@@QAEHABVNmId@@@Z @ 4 NONAME ; int NmUiEngine::goOnline(class NmId const &)
	??0NmStoreEnvelopesOperation@@QAE@XZ @ 5 NONAME ; NmStoreEnvelopesOperation::NmStoreEnvelopesOperation(void)
	?applicationStateInterfaceInstance@NmDataPluginFactory@@QAEPAVNmApplicationStateInterface@@VNmId@@@Z @ 6 NONAME ; class NmApplicationStateInterface * NmDataPluginFactory::applicationStateInterfaceInstance(class NmId)
	?currentMailboxId@NmMessageListModel@@QAE?AVNmId@@XZ @ 7 NONAME ; class NmId NmMessageListModel::currentMailboxId(void)
	?folderById@NmDataManager@@QAEPAVNmFolderMetaData@@ABVNmId@@0@Z @ 8 NONAME ; class NmFolderMetaData * NmDataManager::folderById(class NmId const &, class NmId const &)
	?removeAttachment@NmBaseClientPlugin@@QAEXXZ @ 9 NONAME ; void NmBaseClientPlugin::removeAttachment(void)
	?handleCompletedSaveDraftOperation@NmUiEngine@@QAEXXZ @ 10 NONAME ; void NmUiEngine::handleCompletedSaveDraftOperation(void)
	?completeOperationPart@NmAddAttachmentsOperation@@QAEXABVQString@@ABVNmId@@H@Z @ 11 NONAME ; void NmAddAttachmentsOperation::completeOperationPart(class QString const &, class NmId const &, int)
	?releaseInstance@NmUiEngine@@SAXAAPAV1@@Z @ 12 NONAME ; void NmUiEngine::releaseInstance(class NmUiEngine * &)
	?id@NmMailboxMetaData@@QBE?AVNmId@@XZ @ 13 NONAME ; class NmId NmMailboxMetaData::id(void) const
	??1NmMessageCreationOperation@@MAE@XZ @ 14 NONAME ; NmMessageCreationOperation::~NmMessageCreationOperation(void)
	?qt_metacast@NmUiEngine@@UAEPAXPBD@Z @ 15 NONAME ; void * NmUiEngine::qt_metacast(char const *)
	?setName@NmMailboxMetaData@@QAEXABVQString@@@Z @ 16 NONAME ; void NmMailboxMetaData::setName(class QString const &)
	?staticMetaObject@NmStoreEnvelopesOperation@@2UQMetaObject@@B @ 17 NONAME ; struct QMetaObject const NmStoreEnvelopesOperation::staticMetaObject
	?handleMessageEvent@NmUiEngine@@AAEXW4NmMessageEvent@@ABVNmId@@ABV?$QList@VNmId@@@@1@Z @ 18 NONAME ; void NmUiEngine::handleMessageEvent(enum NmMessageEvent, class NmId const &, class QList<class NmId> const &, class NmId const &)
	?isRunning@NmOperation@@QBE_NXZ @ 19 NONAME ; bool NmOperation::isRunning(void) const
	?setPriorityLow@NmBaseClientPlugin@@QAEXXZ @ 20 NONAME ; void NmBaseClientPlugin::setPriorityLow(void)
	?tr@NmMessageCreationOperation@@SA?AVQString@@PBD0H@Z @ 21 NONAME ; class QString NmMessageCreationOperation::tr(char const *, char const *, int)
	?openMessage@NmBaseClientPlugin@@QAEXXZ @ 22 NONAME ; void NmBaseClientPlugin::openMessage(void)
	?getStaticMetaObject@NmMailboxListModel@@SAABUQMetaObject@@XZ @ 23 NONAME ; struct QMetaObject const & NmMailboxListModel::getStaticMetaObject(void)
	?envelope@NmMessageListModelItem@@QBEABVNmMessageEnvelope@@XZ @ 24 NONAME ; class NmMessageEnvelope const & NmMessageListModelItem::envelope(void) const
	?qt_metacall@NmMailboxListModel@@UAEHW4Call@QMetaObject@@HPAPAX@Z @ 25 NONAME ; int NmMailboxListModel::qt_metacall(enum QMetaObject::Call, int, void * *)
	?listMailboxIds@NmDataManager@@QAEXAAV?$QList@VNmId@@@@@Z @ 26 NONAME ; void NmDataManager::listMailboxIds(class QList<class NmId> &)
	?removeDraftMessage@NmUiEngine@@QAEXPAVNmMessage@@@Z @ 27 NONAME ; void NmUiEngine::removeDraftMessage(class NmMessage *)
	??0NmDataManager@@QAE@XZ @ 28 NONAME ; NmDataManager::NmDataManager(void)
	?trUtf8@NmAddAttachmentsOperation@@SA?AVQString@@PBD0H@Z @ 29 NONAME ; class QString NmAddAttachmentsOperation::trUtf8(char const *, char const *, int)
	?refresh@NmMailboxListModel@@QAEXAAV?$QList@PAVNmMailbox@@@@@Z @ 30 NONAME ; void NmMailboxListModel::refresh(class QList<class NmMailbox *> &)
	?getStaticMetaObject@NmDataManager@@SAABUQMetaObject@@XZ @ 31 NONAME ; struct QMetaObject const & NmDataManager::getStaticMetaObject(void)
	??1NmMessageListModel@@UAE@XZ @ 32 NONAME ; NmMessageListModel::~NmMessageListModel(void)
	?handleCompletedSendOperation@NmUiEngine@@QAEXXZ @ 33 NONAME ; void NmUiEngine::handleCompletedSendOperation(void)
	??_ENmFolderListModel@@UAE@I@Z @ 34 NONAME ; NmFolderListModel::~NmFolderListModel(unsigned int)
	?contentToMessagePart@NmDataManager@@QAEHABVNmId@@00AAVNmMessagePart@@@Z @ 35 NONAME ; int NmDataManager::contentToMessagePart(class NmId const &, class NmId const &, class NmId const &, class NmMessagePart &)
	?setExpanded@NmMessageListModelItem@@QAEX_N@Z @ 36 NONAME ; void NmMessageListModelItem::setExpanded(bool)
	?saveDraftMessage@NmUiEngine@@QAEXPAVNmMessage@@ABV?$QList@PAVNmOperation@@@@@Z @ 37 NONAME ; void NmUiEngine::saveDraftMessage(class NmMessage *, class QList<class NmOperation *> const &)
	?getStaticMetaObject@NmStoreEnvelopesOperation@@SAABUQMetaObject@@XZ @ 38 NONAME ; struct QMetaObject const & NmStoreEnvelopesOperation::getStaticMetaObject(void)
	?setPriorityHigh@NmBaseClientPlugin@@QAEXXZ @ 39 NONAME ; void NmBaseClientPlugin::setPriorityHigh(void)
	??0NmAddAttachmentsOperation@@QAE@XZ @ 40 NONAME ; NmAddAttachmentsOperation::NmAddAttachmentsOperation(void)
	?deleteMessage@NmBaseClientPlugin@@QAEXXZ @ 41 NONAME ; void NmBaseClientPlugin::deleteMessage(void)
	?getStaticMetaObject@NmAddAttachmentsOperation@@SAABUQMetaObject@@XZ @ 42 NONAME ; struct QMetaObject const & NmAddAttachmentsOperation::getStaticMetaObject(void)
	?standardFolderId@NmUiEngine@@QAE?AVNmId@@ABV2@W4NmFolderType@@@Z @ 43 NONAME ; class NmId NmUiEngine::standardFolderId(class NmId const &, enum NmFolderType)
	?settings@NmBaseClientPlugin@@QAEXXZ @ 44 NONAME ; void NmBaseClientPlugin::settings(void)
	?staticMetaObject@NmUiEngine@@2UQMetaObject@@B @ 45 NONAME ; struct QMetaObject const NmUiEngine::staticMetaObject
	?mailboxDeleted@NmUiEngine@@IAEXABVNmId@@@Z @ 46 NONAME ; void NmUiEngine::mailboxDeleted(class NmId const &)
	?getIcon@NmIcons@@SAAAVHbIcon@@W4Icon@1@@Z @ 47 NONAME ; class HbIcon & NmIcons::getIcon(enum NmIcons::Icon)
	?itemType@NmMessageListModelItem@@QBE?AW4NmMessageItemType@1@XZ @ 48 NONAME ; enum NmMessageListModelItem::NmMessageItemType NmMessageListModelItem::itemType(void) const
	?mInstance@NmDataPluginFactory@@0PAV1@A @ 49 NONAME ; class NmDataPluginFactory * NmDataPluginFactory::mInstance
	?data@NmFolderListModel@@UBE?AVQVariant@@ABVQModelIndex@@H@Z @ 50 NONAME ; class QVariant NmFolderListModel::data(class QModelIndex const &, int) const
	?setName@NmFolderMetaData@@QAEXABVQString@@@Z @ 51 NONAME ; void NmFolderMetaData::setName(class QString const &)
	?mReferenceCount@NmUiEngine@@0HA @ 52 NONAME ; int NmUiEngine::mReferenceCount
	?listFolders@NmDataManager@@QAEXVNmId@@AAV?$QList@PAVNmFolder@@@@@Z @ 53 NONAME ; void NmDataManager::listFolders(class NmId, class QList<class NmFolder *> &)
	?fetchMessageParts@NmUiEngine@@QAE?AV?$QPointer@VNmOperation@@@@ABVNmId@@00ABV?$QList@VNmId@@@@@Z @ 54 NONAME ; class QPointer<class NmOperation> NmUiEngine::fetchMessageParts(class NmId const &, class NmId const &, class NmId const &, class QList<class NmId> const &)
	?cancelSearch@NmUiEngine@@QAEHABVNmId@@@Z @ 55 NONAME ; int NmUiEngine::cancelSearch(class NmId const &)
	?data@NmMailboxListModel@@UBE?AVQVariant@@ABVQModelIndex@@H@Z @ 56 NONAME ; class QVariant NmMailboxListModel::data(class QModelIndex const &, int) const
	?metaObject@NmMessageCreationOperation@@UBEPBUQMetaObject@@XZ @ 57 NONAME ; struct QMetaObject const * NmMessageCreationOperation::metaObject(void) const
	?handlePreliminaryOperationFinished@NmOperation@@MAEXXZ @ 58 NONAME ; void NmOperation::handlePreliminaryOperationFinished(void)
	?releaseInstance@NmDataPluginFactory@@SAXAAPAV1@@Z @ 59 NONAME ; void NmDataPluginFactory::releaseInstance(class NmDataPluginFactory * &)
	?createEditorViewCommands@NmBaseClientPlugin@@AAEXABVNmActionRequest@@AAV?$QList@PAVNmAction@@@@@Z @ 60 NONAME ; void NmBaseClientPlugin::createEditorViewCommands(class NmActionRequest const &, class QList<class NmAction *> &)
	?operationCancelled@NmOperation@@IAEXXZ @ 61 NONAME ; void NmOperation::operationCancelled(void)
	??0NmDataPluginFactory@@AAE@XZ @ 62 NONAME ; NmDataPluginFactory::NmDataPluginFactory(void)
	?refresh@NmBaseClientPlugin@@QAEXXZ @ 63 NONAME ; void NmBaseClientPlugin::refresh(void)
	??1NmFolderMetaData@@UAE@XZ @ 64 NONAME ; NmFolderMetaData::~NmFolderMetaData(void)
	??1NmMessageSendingOperation@@MAE@XZ @ 65 NONAME ; NmMessageSendingOperation::~NmMessageSendingOperation(void)
	?name@NmFolderMetaData@@QBE?AVQString@@XZ @ 66 NONAME ; class QString NmFolderMetaData::name(void) const
	??_ENmMessageCreationOperation@@UAE@I@Z @ 67 NONAME ; NmMessageCreationOperation::~NmMessageCreationOperation(unsigned int)
	?sendMail@NmBaseClientPlugin@@QAEXXZ @ 68 NONAME ; void NmBaseClientPlugin::sendMail(void)
	?insertNewMessageIntoModel@NmMessageListModel@@AAEXABVNmId@@00@Z @ 69 NONAME ; void NmMessageListModel::insertNewMessageIntoModel(class NmId const &, class NmId const &, class NmId const &)
	?getStaticMetaObject@NmUiEngine@@SAABUQMetaObject@@XZ @ 70 NONAME ; struct QMetaObject const & NmUiEngine::getStaticMetaObject(void)
	?applicationStateInterfaceInstance@NmDataPluginFactory@@AAEPAVNmApplicationStateInterface@@PAVQObject@@@Z @ 71 NONAME ; class NmApplicationStateInterface * NmDataPluginFactory::applicationStateInterfaceInstance(class QObject *)
	?metaObject@NmMessageListModel@@UBEPBUQMetaObject@@XZ @ 72 NONAME ; struct QMetaObject const * NmMessageListModel::metaObject(void) const
	?messageBeingSent@NmUiEngine@@QBEPBVNmMessage@@XZ @ 73 NONAME ; class NmMessage const * NmUiEngine::messageBeingSent(void) const
	?handleMailboxEvent@NmUiEngine@@AAEXW4NmMailboxEvent@@ABV?$QList@VNmId@@@@@Z @ 74 NONAME ; void NmUiEngine::handleMailboxEvent(enum NmMailboxEvent, class QList<class NmId> const &)
	?interfaceInstance@NmDataPluginFactory@@QAEPAVNmDataPluginInterface@@VNmId@@@Z @ 75 NONAME ; class NmDataPluginInterface * NmDataPluginFactory::interfaceInstance(class NmId)
	?goOffline@NmBaseClientPlugin@@AAEXABVNmId@@@Z @ 76 NONAME ; void NmBaseClientPlugin::goOffline(class NmId const &)
	?sendMessage@NmUiEngine@@QAEXPAVNmMessage@@ABV?$QList@PAVNmOperation@@@@@Z @ 77 NONAME ; void NmUiEngine::sendMessage(class NmMessage *, class QList<class NmOperation *> const &)
	?tr@NmDataManager@@SA?AVQString@@PBD0H@Z @ 78 NONAME ; class QString NmDataManager::tr(char const *, char const *, int)
	??0NmMailboxListModel@@QAE@AAVNmDataManager@@PAVQObject@@@Z @ 79 NONAME ; NmMailboxListModel::NmMailboxListModel(class NmDataManager &, class QObject *)
	?handleMessageEvent@NmMessageListModel@@QAEXW4NmMessageEvent@@ABVNmId@@ABV?$QList@VNmId@@@@1@Z @ 80 NONAME ; void NmMessageListModel::handleMessageEvent(enum NmMessageEvent, class NmId const &, class QList<class NmId> const &, class NmId const &)
	?setPriorityNormal@NmBaseClientPlugin@@QAEXXZ @ 81 NONAME ; void NmBaseClientPlugin::setPriorityNormal(void)
	??_ENmMessageSendingOperation@@UAE@I@Z @ 82 NONAME ; NmMessageSendingOperation::~NmMessageSendingOperation(unsigned int)
	?changed@NmMessageListModel@@AAE_NABVNmMessageEnvelope@@0@Z @ 83 NONAME ; bool NmMessageListModel::changed(class NmMessageEnvelope const &, class NmMessageEnvelope const &)
	?openAttachment@NmBaseClientPlugin@@QAEXXZ @ 84 NONAME ; void NmBaseClientPlugin::openAttachment(void)
	?staticMetaObject@NmMessageCreationOperation@@2UQMetaObject@@B @ 85 NONAME ; struct QMetaObject const NmMessageCreationOperation::staticMetaObject
	?handleMailboxEvent@NmMailboxListModel@@QAEXW4NmMailboxEvent@@ABV?$QList@VNmId@@@@@Z @ 86 NONAME ; void NmMailboxListModel::handleMailboxEvent(enum NmMailboxEvent, class QList<class NmId> const &)
	?metaObject@NmStoreEnvelopesOperation@@UBEPBUQMetaObject@@XZ @ 87 NONAME ; struct QMetaObject const * NmStoreEnvelopesOperation::metaObject(void) const
	?trUtf8@NmMailboxListModel@@SA?AVQString@@PBD0H@Z @ 88 NONAME ; class QString NmMailboxListModel::trUtf8(char const *, char const *, int)
	?mPluginArray@NmDataPluginFactory@@0PAV?$QList@PAVQObject@@@@A @ 89 NONAME ; class QList<class QObject *> * NmDataPluginFactory::mPluginArray
	?instance@NmDataPluginFactory@@SAPAV1@XZ @ 90 NONAME ; class NmDataPluginFactory * NmDataPluginFactory::instance(void)
	?getStaticMetaObject@NmMessageListModel@@SAABUQMetaObject@@XZ @ 91 NONAME ; struct QMetaObject const & NmMessageListModel::getStaticMetaObject(void)
	?deleteMessageFromViewerView@NmBaseClientPlugin@@QAEXXZ @ 92 NONAME ; void NmBaseClientPlugin::deleteMessageFromViewerView(void)
	?tr@NmUiEngine@@SA?AVQString@@PBD0H@Z @ 93 NONAME ; class QString NmUiEngine::tr(char const *, char const *, int)
	?refresh@NmMessageListModel@@QAEXVNmId@@0ABV?$QList@PAVNmMessageEnvelope@@@@@Z @ 94 NONAME ; void NmMessageListModel::refresh(class NmId, class NmId, class QList<class NmMessageEnvelope *> const &)
	?mailboxById@NmUiEngine@@QAEPAVNmMailboxMetaData@@ABVNmId@@@Z @ 95 NONAME ; class NmMailboxMetaData * NmUiEngine::mailboxById(class NmId const &)
	?createNewMessage@NmUiEngine@@QAE?AV?$QPointer@VNmMessageCreationOperation@@@@ABVNmId@@@Z @ 96 NONAME ; class QPointer<class NmMessageCreationOperation> NmUiEngine::createNewMessage(class NmId const &)
	??_ENmMessageListModelItem@@UAE@I@Z @ 97 NONAME ; NmMessageListModelItem::~NmMessageListModelItem(unsigned int)
	?replyAllMail@NmBaseClientPlugin@@QAEXXZ @ 98 NONAME ; void NmBaseClientPlugin::replyAllMail(void)
	?handleMatchFound@NmUiEngine@@AAEXABVNmId@@0@Z @ 99 NONAME ; void NmUiEngine::handleMatchFound(class NmId const &, class NmId const &)
	?syncStateEvent@NmUiEngine@@IAEXW4NmSyncState@@ABVNmId@@@Z @ 100 NONAME ; void NmUiEngine::syncStateEvent(enum NmSyncState, class NmId const &)
	?refreshModelItem@NmMailboxListModel@@QAEXABVNmId@@@Z @ 101 NONAME ; void NmMailboxListModel::refreshModelItem(class NmId const &)
	?trUtf8@NmDataManager@@SA?AVQString@@PBD0@Z @ 102 NONAME ; class QString NmDataManager::trUtf8(char const *, char const *)
	?setEnvelopeProperties@NmMessageListModel@@QAEXW4NmEnvelopeProperties@@ABV?$QList@VNmId@@@@@Z @ 103 NONAME ; void NmMessageListModel::setEnvelopeProperties(enum NmEnvelopeProperties, class QList<class NmId> const &)
	??1NmStoreEnvelopesOperation@@MAE@XZ @ 104 NONAME ; NmStoreEnvelopesOperation::~NmStoreEnvelopesOperation(void)
	?tr@NmUiEngine@@SA?AVQString@@PBD0@Z @ 105 NONAME ; class QString NmUiEngine::tr(char const *, char const *)
	?mPluginLoaderArray@NmDataPluginFactory@@0V?$QList@PAVQPluginLoader@@@@A @ 106 NONAME ; class QList<class QPluginLoader *> NmDataPluginFactory::mPluginLoaderArray
	?trUtf8@NmBaseClientPlugin@@SA?AVQString@@PBD0@Z @ 107 NONAME ; class QString NmBaseClientPlugin::trUtf8(char const *, char const *)
	?deleteOperation@NmOperation@@AAEXXZ @ 108 NONAME ; void NmOperation::deleteOperation(void)
	?trUtf8@NmBaseClientPlugin@@SA?AVQString@@PBD0H@Z @ 109 NONAME ; class QString NmBaseClientPlugin::trUtf8(char const *, char const *, int)
	?createViewerViewCommands@NmBaseClientPlugin@@AAEXABVNmActionRequest@@AAV?$QList@PAVNmAction@@@@@Z @ 110 NONAME ; void NmBaseClientPlugin::createViewerViewCommands(class NmActionRequest const &, class QList<class NmAction *> &)
	?fetchMessagePart@NmUiEngine@@QAE?AV?$QPointer@VNmOperation@@@@ABVNmId@@000@Z @ 111 NONAME ; class QPointer<class NmOperation> NmUiEngine::fetchMessagePart(class NmId const &, class NmId const &, class NmId const &, class NmId const &)
	?tr@NmMailboxListModel@@SA?AVQString@@PBD0H@Z @ 112 NONAME ; class QString NmMailboxListModel::tr(char const *, char const *, int)
	?handleConnectEvent@NmUiEngine@@QAEXW4NmConnectState@@ABVNmId@@H@Z @ 113 NONAME ; void NmUiEngine::handleConnectEvent(enum NmConnectState, class NmId const &, int)
	?trUtf8@NmUiEngine@@SA?AVQString@@PBD0H@Z @ 114 NONAME ; class QString NmUiEngine::trUtf8(char const *, char const *, int)
	?createMailboxItem@NmMailboxListModel@@AAEPAVNmMailboxListModelItem@@PBVNmMailbox@@@Z @ 115 NONAME ; class NmMailboxListModelItem * NmMailboxListModel::createMailboxItem(class NmMailbox const *)
	?setTitleDivider@NmMessageListModelItem@@QAEXABVQString@@@Z @ 116 NONAME ; void NmMessageListModelItem::setTitleDivider(class QString const &)
	?markAsRead@NmBaseClientPlugin@@QAEXXZ @ 117 NONAME ; void NmBaseClientPlugin::markAsRead(void)
	?getInsertionIndex@NmMessageListModel@@ABEHABVNmMessageEnvelope@@@Z @ 118 NONAME ; int NmMessageListModel::getInsertionIndex(class NmMessageEnvelope const &) const
	?updateOperationProgress@NmOperation@@QAEXH@Z @ 119 NONAME ; void NmOperation::updateOperationProgress(int)
	?messageEventForListModel@NmUiEngine@@AAEXW4NmMessageEvent@@ABVNmId@@ABV?$QList@VNmId@@@@1@Z @ 120 NONAME ; void NmUiEngine::messageEventForListModel(enum NmMessageEvent, class NmId const &, class QList<class NmId> const &, class NmId const &)
	??1NmFolderListModel@@UAE@XZ @ 121 NONAME ; NmFolderListModel::~NmFolderListModel(void)
	?operationCompleted@NmUiEngine@@IAEXABVNmOperationCompletionEvent@@@Z @ 122 NONAME ; void NmUiEngine::operationCompleted(class NmOperationCompletionEvent const &)
	??1NmDataManager@@UAE@XZ @ 123 NONAME ; NmDataManager::~NmDataManager(void)
	?trUtf8@NmStoreEnvelopesOperation@@SA?AVQString@@PBD0@Z @ 124 NONAME ; class QString NmStoreEnvelopesOperation::trUtf8(char const *, char const *)
	?setAddress@NmMailboxMetaData@@QAEXABVQString@@@Z @ 125 NONAME ; void NmMailboxMetaData::setAddress(class QString const &)
	?getStaticMetaObject@NmMessageCreationOperation@@SAABUQMetaObject@@XZ @ 126 NONAME ; struct QMetaObject const & NmMessageCreationOperation::getStaticMetaObject(void)
	?updateActiveFolder@NmUiEngine@@QAEXABVNmId@@0@Z @ 127 NONAME ; void NmUiEngine::updateActiveFolder(class NmId const &, class NmId const &)
	?trUtf8@NmAddAttachmentsOperation@@SA?AVQString@@PBD0@Z @ 128 NONAME ; class QString NmAddAttachmentsOperation::trUtf8(char const *, char const *)
	?name@NmMailboxMetaData@@QBE?AVQString@@XZ @ 129 NONAME ; class QString NmMailboxMetaData::name(void) const
	?qt_metacall@NmDataManager@@UAEHW4Call@QMetaObject@@HPAPAX@Z @ 130 NONAME ; int NmDataManager::qt_metacall(enum QMetaObject::Call, int, void * *)
	?runAsyncOperation@NmOperation@@MAEXXZ @ 131 NONAME ; void NmOperation::runAsyncOperation(void)
	??0NmFolderListModel@@QAE@AAVNmDataManager@@PAVQObject@@@Z @ 132 NONAME ; NmFolderListModel::NmFolderListModel(class NmDataManager &, class QObject *)
	?folderTypeById@NmDataManager@@QAE?AW4NmFolderType@@VNmId@@0@Z @ 133 NONAME ; enum NmFolderType NmDataManager::folderTypeById(class NmId, class NmId)
	?tr@NmBaseClientPlugin@@SA?AVQString@@PBD0H@Z @ 134 NONAME ; class QString NmBaseClientPlugin::tr(char const *, char const *, int)
	??0NmMailboxMetaData@@QAE@XZ @ 135 NONAME ; NmMailboxMetaData::NmMailboxMetaData(void)
	?setEnvelope@NmMessageListModelItem@@QAEXPAVNmMessageEnvelope@@@Z @ 136 NONAME ; void NmMessageListModelItem::setEnvelope(class NmMessageEnvelope *)
	?saveMessage@NmUiEngine@@QAEHABVNmMessage@@@Z @ 137 NONAME ; int NmUiEngine::saveMessage(class NmMessage const &)
	?setId@NmMailboxMetaData@@QAEXABVNmId@@@Z @ 138 NONAME ; void NmMailboxMetaData::setId(class NmId const &)
	?folderTypeById@NmUiEngine@@QAE?AW4NmFolderType@@VNmId@@0@Z @ 139 NONAME ; enum NmFolderType NmUiEngine::folderTypeById(class NmId, class NmId)
	?mReferenceCount@NmDataPluginFactory@@0HA @ 140 NONAME ; int NmDataPluginFactory::mReferenceCount
	?tr@NmOperation@@SA?AVQString@@PBD0@Z @ 141 NONAME ; class QString NmOperation::tr(char const *, char const *)
	?updateMessageEnvelope@NmMessageListModel@@AAEXABVNmId@@00@Z @ 142 NONAME ; void NmMessageListModel::updateMessageEnvelope(class NmId const &, class NmId const &, class NmId const &)
	?tr@NmStoreEnvelopesOperation@@SA?AVQString@@PBD0@Z @ 143 NONAME ; class QString NmStoreEnvelopesOperation::tr(char const *, char const *)
	?messagesBelongUnderSameDivider@NmMessageListModel@@ABE_NPBVNmMessageEnvelope@@0@Z @ 144 NONAME ; bool NmMessageListModel::messagesBelongUnderSameDivider(class NmMessageEnvelope const *, class NmMessageEnvelope const *) const
	?matchFound@NmUiEngine@@IAEXABVNmId@@0@Z @ 145 NONAME ; void NmUiEngine::matchFound(class NmId const &, class NmId const &)
	?metaObject@NmDataManager@@UBEPBUQMetaObject@@XZ @ 146 NONAME ; struct QMetaObject const * NmDataManager::metaObject(void) const
	?isSendingMessage@NmUiEngine@@QBE_NXZ @ 147 NONAME ; bool NmUiEngine::isSendingMessage(void) const
	?freeIcons@NmIcons@@SAXXZ @ 148 NONAME ; void NmIcons::freeIcons(void)
	?tr@NmAddAttachmentsOperation@@SA?AVQString@@PBD0@Z @ 149 NONAME ; class QString NmAddAttachmentsOperation::tr(char const *, char const *)
	?itemFromModel@NmMessageListModel@@AAEPAVNmMessageListModelItem@@ABVNmId@@@Z @ 150 NONAME ; class NmMessageListModelItem * NmMessageListModel::itemFromModel(class NmId const &)
	?instance@NmUiEngine@@SAPAV1@XZ @ 151 NONAME ; class NmUiEngine * NmUiEngine::instance(void)
	?createMessageListCommands@NmBaseClientPlugin@@AAEXABVNmActionRequest@@AAV?$QList@PAVNmAction@@@@@Z @ 152 NONAME ; void NmBaseClientPlugin::createMessageListCommands(class NmActionRequest const &, class QList<class NmAction *> &)
	?updateEnvelopeProperty@NmBaseClientPlugin@@AAEXW4NmEnvelopeProperties@@@Z @ 153 NONAME ; void NmBaseClientPlugin::updateEnvelopeProperty(enum NmEnvelopeProperties)
	??1NmAddAttachmentsOperation@@MAE@XZ @ 154 NONAME ; NmAddAttachmentsOperation::~NmAddAttachmentsOperation(void)
	?goOffline@NmUiEngine@@QAEHABVNmId@@@Z @ 155 NONAME ; int NmUiEngine::goOffline(class NmId const &)
	?staticMetaObject@NmDataManager@@2UQMetaObject@@B @ 156 NONAME ; struct QMetaObject const NmDataManager::staticMetaObject
	?mInstance@NmUiEngine@@0PAV1@A @ 157 NONAME ; class NmUiEngine * NmUiEngine::mInstance
	?attach@NmBaseClientPlugin@@QAEXXZ @ 158 NONAME ; void NmBaseClientPlugin::attach(void)
	?setIgnoreFolderIds@NmMessageListModel@@QAEX_N@Z @ 159 NONAME ; void NmMessageListModel::setIgnoreFolderIds(bool)
	?metaObject@NmAddAttachmentsOperation@@UBEPBUQMetaObject@@XZ @ 160 NONAME ; struct QMetaObject const * NmAddAttachmentsOperation::metaObject(void) const
	?refresh@NmFolderListModel@@QAEXAAV?$QList@PAVNmFolder@@@@@Z @ 161 NONAME ; void NmFolderListModel::refresh(class QList<class NmFolder *> &)
	?handleCompletedRemoveDraftOperation@NmUiEngine@@QAEXXZ @ 162 NONAME ; void NmUiEngine::handleCompletedRemoveDraftOperation(void)
	?trUtf8@NmMailboxListModel@@SA?AVQString@@PBD0@Z @ 163 NONAME ; class QString NmMailboxListModel::trUtf8(char const *, char const *)
	?envelopeById@NmDataManager@@QAEPAVNmMessageEnvelope@@ABVNmId@@00@Z @ 164 NONAME ; class NmMessageEnvelope * NmDataManager::envelopeById(class NmId const &, class NmId const &, class NmId const &)
	?getStaticMetaObject@NmOperation@@SAABUQMetaObject@@XZ @ 165 NONAME ; struct QMetaObject const & NmOperation::getStaticMetaObject(void)
	?trUtf8@NmOperation@@SA?AVQString@@PBD0@Z @ 166 NONAME ; class QString NmOperation::trUtf8(char const *, char const *)
	?addAttachments@NmUiEngine@@QAE?AV?$QPointer@VNmAddAttachmentsOperation@@@@ABVNmMessage@@ABV?$QList@VQString@@@@@Z @ 167 NONAME ; class QPointer<class NmAddAttachmentsOperation> NmUiEngine::addAttachments(class NmMessage const &, class QList<class QString> const &)
	?doCancelOperation@NmOperation@@MAEXXZ @ 168 NONAME ; void NmOperation::doCancelOperation(void)
	?tr@NmOperation@@SA?AVQString@@PBD0H@Z @ 169 NONAME ; class QString NmOperation::tr(char const *, char const *, int)
	??_ENmOperation@@UAE@I@Z @ 170 NONAME ; NmOperation::~NmOperation(unsigned int)
	?tr@NmMessageCreationOperation@@SA?AVQString@@PBD0@Z @ 171 NONAME ; class QString NmMessageCreationOperation::tr(char const *, char const *)
	?qt_metacall@NmMessageListModel@@UAEHW4Call@QMetaObject@@HPAPAX@Z @ 172 NONAME ; int NmMessageListModel::qt_metacall(enum QMetaObject::Call, int, void * *)
	?staticMetaObject@NmOperation@@2UQMetaObject@@B @ 173 NONAME ; struct QMetaObject const NmOperation::staticMetaObject
	??1NmUiEngine@@EAE@XZ @ 174 NONAME ; NmUiEngine::~NmUiEngine(void)
	?messagePartFile@NmUiEngine@@QAE?AVXQSharableFile@@ABVNmId@@000@Z @ 175 NONAME ; class XQSharableFile NmUiEngine::messagePartFile(class NmId const &, class NmId const &, class NmId const &, class NmId const &)
	??_ENmMessageListModel@@UAE@I@Z @ 176 NONAME ; NmMessageListModel::~NmMessageListModel(unsigned int)
	?addPreliminaryOperation@NmOperation@@QAEXPAV1@@Z @ 177 NONAME ; void NmOperation::addPreliminaryOperation(class NmOperation *)
	?deleteMessages@NmUiEngine@@QAEHABVNmId@@0ABV?$QList@VNmId@@@@@Z @ 178 NONAME ; int NmUiEngine::deleteMessages(class NmId const &, class NmId const &, class QList<class NmId> const &)
	??_ENmStoreEnvelopesOperation@@UAE@I@Z @ 179 NONAME ; NmStoreEnvelopesOperation::~NmStoreEnvelopesOperation(unsigned int)
	?mailboxById@NmDataManager@@QAEPAVNmMailboxMetaData@@ABVNmId@@@Z @ 180 NONAME ; class NmMailboxMetaData * NmDataManager::mailboxById(class NmId const &)
	?messageListModelForSearch@NmUiEngine@@QAEAAVNmMessageListModel@@ABVNmId@@@Z @ 181 NONAME ; class NmMessageListModel & NmUiEngine::messageListModelForSearch(class NmId const &)
	?search@NmBaseClientPlugin@@QAEXXZ @ 182 NONAME ; void NmBaseClientPlugin::search(void)
	?pluginInstances@NmDataPluginFactory@@QAEPAV?$QList@PAVQObject@@@@XZ @ 183 NONAME ; class QList<class QObject *> * NmDataPluginFactory::pluginInstances(void)
	?tr@NmBaseClientPlugin@@SA?AVQString@@PBD0@Z @ 184 NONAME ; class QString NmBaseClientPlugin::tr(char const *, char const *)
	?listMessages@NmDataManager@@QAEXABVNmId@@0AAV?$QList@PAVNmMessageEnvelope@@@@@Z @ 185 NONAME ; void NmDataManager::listMessages(class NmId const &, class NmId const &, class QList<class NmMessageEnvelope *> &)
	??1NmBaseClientPlugin@@UAE@XZ @ 186 NONAME ; NmBaseClientPlugin::~NmBaseClientPlugin(void)
	?qt_metacast@NmDataManager@@UAEPAXPBD@Z @ 187 NONAME ; void * NmDataManager::qt_metacast(char const *)
	??0NmMessageCreationOperation@@QAE@XZ @ 188 NONAME ; NmMessageCreationOperation::NmMessageCreationOperation(void)
	?qt_metacall@NmBaseClientPlugin@@UAEHW4Call@QMetaObject@@HPAPAX@Z @ 189 NONAME ; int NmBaseClientPlugin::qt_metacall(enum QMetaObject::Call, int, void * *)
	?envelopePtr@NmMessageListModelItem@@QAEPAVNmMessageEnvelope@@XZ @ 190 NONAME ; class NmMessageEnvelope * NmMessageListModelItem::envelopePtr(void)
	?messageListModel@NmUiEngine@@QAEAAVNmMessageListModel@@ABVNmId@@0@Z @ 191 NONAME ; class NmMessageListModel & NmUiEngine::messageListModel(class NmId const &, class NmId const &)
	??1NmMailboxMetaData@@UAE@XZ @ 192 NONAME ; NmMailboxMetaData::~NmMailboxMetaData(void)
	?connectionEvent@NmUiEngine@@IAEXW4NmConnectState@@ABVNmId@@@Z @ 193 NONAME ; void NmUiEngine::connectionEvent(enum NmConnectState, class NmId const &)
	?mailbox@NmDataManager@@QAEPAVNmMailbox@@ABVNmId@@@Z @ 194 NONAME ; class NmMailbox * NmDataManager::mailbox(class NmId const &)
	?interfaceInstance@NmDataPluginFactory@@QAEPAVNmDataPluginInterface@@PAVQObject@@@Z @ 195 NONAME ; class NmDataPluginInterface * NmDataPluginFactory::interfaceInstance(class QObject *)
	?metaObject@NmMailboxListModel@@UBEPBUQMetaObject@@XZ @ 196 NONAME ; struct QMetaObject const * NmMailboxListModel::metaObject(void) const
	?IconId@NmMailboxMetaData@@QBE?AVNmId@@XZ @ 197 NONAME ; class NmId NmMailboxMetaData::IconId(void) const
	?sendOperationCompleted@NmUiEngine@@IAEXXZ @ 198 NONAME ; void NmUiEngine::sendOperationCompleted(void)
	??0NmFolderMetaData@@QAE@XZ @ 199 NONAME ; NmFolderMetaData::NmFolderMetaData(void)
	?staticMetaObject@NmAddAttachmentsOperation@@2UQMetaObject@@B @ 200 NONAME ; struct QMetaObject const NmAddAttachmentsOperation::staticMetaObject
	?connectionState@NmUiEngine@@QAE?AW4NmConnectState@@ABVNmId@@@Z @ 201 NONAME ; enum NmConnectState NmUiEngine::connectionState(class NmId const &)
	?createTitleDividerItem@NmMessageListModel@@AAEPAVNmMessageListModelItem@@PAVNmMessageEnvelope@@@Z @ 202 NONAME ; class NmMessageListModelItem * NmMessageListModel::createTitleDividerItem(class NmMessageEnvelope *)
	?setId@NmFolderMetaData@@QAEXABVNmId@@@Z @ 203 NONAME ; void NmFolderMetaData::setId(class NmId const &)
	??0NmOperation@@QAE@XZ @ 204 NONAME ; NmOperation::NmOperation(void)
	?cancelOperation@NmOperation@@QAEXXZ @ 205 NONAME ; void NmOperation::cancelOperation(void)
	??_ENmFolderMetaData@@UAE@I@Z @ 206 NONAME ; NmFolderMetaData::~NmFolderMetaData(unsigned int)
	?qt_metacast@NmMessageListModel@@UAEPAXPBD@Z @ 207 NONAME ; void * NmMessageListModel::qt_metacast(char const *)
	?operationProgressChanged@NmOperation@@IAEXH@Z @ 208 NONAME ; void NmOperation::operationProgressChanged(int)
	?trUtf8@NmOperation@@SA?AVQString@@PBD0H@Z @ 209 NONAME ; class QString NmOperation::trUtf8(char const *, char const *, int)
	??_ENmMailboxListModel@@UAE@I@Z @ 210 NONAME ; NmMailboxListModel::~NmMailboxListModel(unsigned int)
	?messageDeleted@NmUiEngine@@IAEXABVNmId@@00@Z @ 211 NONAME ; void NmUiEngine::messageDeleted(class NmId const &, class NmId const &, class NmId const &)
	?trUtf8@NmMessageCreationOperation@@SA?AVQString@@PBD0@Z @ 212 NONAME ; class QString NmMessageCreationOperation::trUtf8(char const *, char const *)
	?metaObject@NmUiEngine@@UBEPBUQMetaObject@@XZ @ 213 NONAME ; struct QMetaObject const * NmUiEngine::metaObject(void) const
	??_ENmBaseClientPlugin@@UAE@I@Z @ 214 NONAME ; NmBaseClientPlugin::~NmBaseClientPlugin(unsigned int)
	?markAsUnread@NmBaseClientPlugin@@QAEXXZ @ 215 NONAME ; void NmBaseClientPlugin::markAsUnread(void)
	?metaObject@NmBaseClientPlugin@@UBEPBUQMetaObject@@XZ @ 216 NONAME ; struct QMetaObject const * NmBaseClientPlugin::metaObject(void) const
	?tr@NmDataManager@@SA?AVQString@@PBD0@Z @ 217 NONAME ; class QString NmDataManager::tr(char const *, char const *)
	?mailboxListModel@NmUiEngine@@QAEAAVNmMailboxListModel@@XZ @ 218 NONAME ; class NmMailboxListModel & NmUiEngine::mailboxListModel(void)
	?fetchMessage@NmUiEngine@@QAE?AV?$QPointer@VNmOperation@@@@ABVNmId@@00@Z @ 219 NONAME ; class QPointer<class NmOperation> NmUiEngine::fetchMessage(class NmId const &, class NmId const &, class NmId const &)
	?setIconId@NmMailboxMetaData@@QAEXABVNmId@@@Z @ 220 NONAME ; void NmMailboxMetaData::setIconId(class NmId const &)
	??1NmDataPluginFactory@@EAE@XZ @ 221 NONAME ; NmDataPluginFactory::~NmDataPluginFactory(void)
	?refreshMailboxListModel@NmUiEngine@@QAEXXZ @ 222 NONAME ; void NmUiEngine::refreshMailboxListModel(void)
	?qt_metacall@NmStoreEnvelopesOperation@@UAEHW4Call@QMetaObject@@HPAPAX@Z @ 223 NONAME ; int NmStoreEnvelopesOperation::qt_metacall(enum QMetaObject::Call, int, void * *)
	?trUtf8@NmMessageListModel@@SA?AVQString@@PBD0@Z @ 224 NONAME ; class QString NmMessageListModel::trUtf8(char const *, char const *)
	?rowCount@NmFolderListModel@@UBEHABVQModelIndex@@@Z @ 225 NONAME ; int NmFolderListModel::rowCount(class QModelIndex const &) const
	?doUpdateOperationProgress@NmOperation@@MAEXXZ @ 226 NONAME ; void NmOperation::doUpdateOperationProgress(void)
	?tr@NmMailboxListModel@@SA?AVQString@@PBD0@Z @ 227 NONAME ; class QString NmMailboxListModel::tr(char const *, char const *)
	?removeMessage@NmUiEngine@@QAEHABVNmId@@00@Z @ 228 NONAME ; int NmUiEngine::removeMessage(class NmId const &, class NmId const &, class NmId const &)
	??_ENmUiEngine@@UAE@I@Z @ 229 NONAME ; NmUiEngine::~NmUiEngine(unsigned int)
	?operationCompleted@NmOperation@@IAEXH@Z @ 230 NONAME ; void NmOperation::operationCompleted(int)
	?callEmitDataChanged@NmMessageListModelItem@@QAEXXZ @ 231 NONAME ; void NmMessageListModelItem::callEmitDataChanged(void)
	?enableSyncIndicator@NmUiEngine@@QAEX_N@Z @ 232 NONAME ; void NmUiEngine::enableSyncIndicator(bool)
	?handleRequest@NmBaseClientPlugin@@IAEXW4NmActionResponseCommand@@ABVNmActionRequest@@@Z @ 233 NONAME ; void NmBaseClientPlugin::handleRequest(enum NmActionResponseCommand, class NmActionRequest const &)
	??0NmMessageListModel@@QAE@AAVNmDataManager@@PAVQObject@@@Z @ 234 NONAME ; NmMessageListModel::NmMessageListModel(class NmDataManager &, class QObject *)
	??_ENmAddAttachmentsOperation@@UAE@I@Z @ 235 NONAME ; NmAddAttachmentsOperation::~NmAddAttachmentsOperation(unsigned int)
	?syncState@NmUiEngine@@QAE?AW4NmSyncState@@ABVNmId@@@Z @ 236 NONAME ; enum NmSyncState NmUiEngine::syncState(class NmId const &)
	??1NmOperation@@MAE@XZ @ 237 NONAME ; NmOperation::~NmOperation(void)
	?tr@NmStoreEnvelopesOperation@@SA?AVQString@@PBD0H@Z @ 238 NONAME ; class QString NmStoreEnvelopesOperation::tr(char const *, char const *, int)
	?listMailboxes@NmDataManager@@QAEXAAV?$QList@PAVNmMailbox@@@@@Z @ 239 NONAME ; void NmDataManager::listMailboxes(class QList<class NmMailbox *> &)
	?message@NmUiEngine@@QAEPAVNmMessage@@ABVNmId@@00@Z @ 240 NONAME ; class NmMessage * NmUiEngine::message(class NmId const &, class NmId const &, class NmId const &)
	?refreshMailbox@NmUiEngine@@QAEHABVNmId@@@Z @ 241 NONAME ; int NmUiEngine::refreshMailbox(class NmId const &)
	?trUtf8@NmUiEngine@@SA?AVQString@@PBD0@Z @ 242 NONAME ; class QString NmUiEngine::trUtf8(char const *, char const *)
	?contentToMessagePart@NmUiEngine@@QAEHABVNmId@@00AAVNmMessagePart@@@Z @ 243 NONAME ; int NmUiEngine::contentToMessagePart(class NmId const &, class NmId const &, class NmId const &, class NmMessagePart &)
	?removeItem@NmMessageListModel@@AAEXHAAVNmMessageListModelItem@@@Z @ 244 NONAME ; void NmMessageListModel::removeItem(int, class NmMessageListModelItem &)
	??1NmMailboxListModel@@UAE@XZ @ 245 NONAME ; NmMailboxListModel::~NmMailboxListModel(void)
	??0NmBaseClientPlugin@@QAE@XZ @ 246 NONAME ; NmBaseClientPlugin::NmBaseClientPlugin(void)
	?forwardMail@NmBaseClientPlugin@@QAEXXZ @ 247 NONAME ; void NmBaseClientPlugin::forwardMail(void)
	?setItemType@NmMessageListModelItem@@QAEXW4NmMessageItemType@1@@Z @ 248 NONAME ; void NmMessageListModelItem::setItemType(enum NmMessageListModelItem::NmMessageItemType)
	??_ENmDataPluginFactory@@UAE@I@Z @ 249 NONAME ; NmDataPluginFactory::~NmDataPluginFactory(unsigned int)
	?mailboxListChanged@NmBaseClientPlugin@@AAEXABVNmId@@W4MailboxEventType@NmSettings@@@Z @ 250 NONAME ; void NmBaseClientPlugin::mailboxListChanged(class NmId const &, enum NmSettings::MailboxEventType)
	?expanded@NmMessageListModelItem@@QBE_NXZ @ 251 NONAME ; bool NmMessageListModelItem::expanded(void) const
	?columnCount@NmFolderListModel@@UBEHABVQModelIndex@@@Z @ 252 NONAME ; int NmFolderListModel::columnCount(class QModelIndex const &) const
	?pluginInstance@NmDataPluginFactory@@QAEPAVQObject@@VNmId@@@Z @ 253 NONAME ; class QObject * NmDataPluginFactory::pluginInstance(class NmId)
	?setNewParam@NmMessageListModel@@IAEXPAVNmUiStartParam@@@Z @ 254 NONAME ; void NmMessageListModel::setNewParam(class NmUiStartParam *)
	?data@NmMessageListModel@@UBE?AVQVariant@@ABVQModelIndex@@H@Z @ 255 NONAME ; class QVariant NmMessageListModel::data(class QModelIndex const &, int) const
	?goOnline@NmBaseClientPlugin@@AAEXABVNmId@@@Z @ 256 NONAME ; void NmBaseClientPlugin::goOnline(class NmId const &)
	?createNewMail@NmBaseClientPlugin@@QAEXXZ @ 257 NONAME ; void NmBaseClientPlugin::createNewMail(void)
	?qt_metacast@NmBaseClientPlugin@@UAEPAXPBD@Z @ 258 NONAME ; void * NmBaseClientPlugin::qt_metacast(char const *)
	?staticMetaObject@NmBaseClientPlugin@@2UQMetaObject@@B @ 259 NONAME ; struct QMetaObject const NmBaseClientPlugin::staticMetaObject
	?searchComplete@NmUiEngine@@IAEXXZ @ 260 NONAME ; void NmUiEngine::searchComplete(void)
	?setEnvelope@NmMessageListModelItem@@QAEXABVNmMessageEnvelope@@@Z @ 261 NONAME ; void NmMessageListModelItem::setEnvelope(class NmMessageEnvelope const &)
	?qt_metacast@NmAddAttachmentsOperation@@UAEPAXPBD@Z @ 262 NONAME ; void * NmAddAttachmentsOperation::qt_metacast(char const *)
	?createNewMailViewerToolBar@NmBaseClientPlugin@@QAEXXZ @ 263 NONAME ; void NmBaseClientPlugin::createNewMailViewerToolBar(void)
	?staticMetaObject@NmMailboxListModel@@2UQMetaObject@@B @ 264 NONAME ; struct QMetaObject const NmMailboxListModel::staticMetaObject
	?qt_metacall@NmMessageCreationOperation@@UAEHW4Call@QMetaObject@@HPAPAX@Z @ 265 NONAME ; int NmMessageCreationOperation::qt_metacall(enum QMetaObject::Call, int, void * *)
	?trUtf8@NmDataManager@@SA?AVQString@@PBD0H@Z @ 266 NONAME ; class QString NmDataManager::trUtf8(char const *, char const *, int)
	?trUtf8@NmMessageCreationOperation@@SA?AVQString@@PBD0H@Z @ 267 NONAME ; class QString NmMessageCreationOperation::trUtf8(char const *, char const *, int)
	?createForwardMessage@NmUiEngine@@QAE?AV?$QPointer@VNmMessageCreationOperation@@@@ABVNmId@@0@Z @ 268 NONAME ; class QPointer<class NmMessageCreationOperation> NmUiEngine::createForwardMessage(class NmId const &, class NmId const &)
	?handleSyncStateEvent@NmUiEngine@@QAEXW4NmSyncState@@ABVNmOperationCompletionEvent@@@Z @ 269 NONAME ; void NmUiEngine::handleSyncStateEvent(enum NmSyncState, class NmOperationCompletionEvent const &)
	?completeOperation@NmOperation@@QAEXH@Z @ 270 NONAME ; void NmOperation::completeOperation(int)
	?parent@NmFolderListModel@@UBE?AVQModelIndex@@ABV2@@Z @ 271 NONAME ; class QModelIndex NmFolderListModel::parent(class QModelIndex const &) const
	?folder@NmDataManager@@QAEPAVNmFolder@@ABVNmId@@0@Z @ 272 NONAME ; class NmFolder * NmDataManager::folder(class NmId const &, class NmId const &)
	??0NmMessageSendingOperation@@QAE@XZ @ 273 NONAME ; NmMessageSendingOperation::NmMessageSendingOperation(void)
	?replyMail@NmBaseClientPlugin@@QAEXXZ @ 274 NONAME ; void NmBaseClientPlugin::replyMail(void)
	??1NmMessageListModelItem@@UAE@XZ @ 275 NONAME ; NmMessageListModelItem::~NmMessageListModelItem(void)
	?mailboxPropertyChanged@NmBaseClientPlugin@@AAEXABVNmId@@VQVariant@@1@Z @ 276 NONAME ; void NmBaseClientPlugin::mailboxPropertyChanged(class NmId const &, class QVariant, class QVariant)
	?qt_metacall@NmOperation@@UAEHW4Call@QMetaObject@@HPAPAX@Z @ 277 NONAME ; int NmOperation::qt_metacall(enum QMetaObject::Call, int, void * *)
	?removeMessageFromModel@NmMessageListModel@@AAEXABVNmId@@@Z @ 278 NONAME ; void NmMessageListModel::removeMessageFromModel(class NmId const &)
	?trUtf8@NmMessageListModel@@SA?AVQString@@PBD0H@Z @ 279 NONAME ; class QString NmMessageListModel::trUtf8(char const *, char const *, int)
	?operationPartCompleted@NmAddAttachmentsOperation@@IAEXABVQString@@ABVNmId@@H@Z @ 280 NONAME ; void NmAddAttachmentsOperation::operationPartCompleted(class QString const &, class NmId const &, int)
	?trUtf8@NmStoreEnvelopesOperation@@SA?AVQString@@PBD0H@Z @ 281 NONAME ; class QString NmStoreEnvelopesOperation::trUtf8(char const *, char const *, int)
	?tr@NmMessageListModel@@SA?AVQString@@PBD0@Z @ 282 NONAME ; class QString NmMessageListModel::tr(char const *, char const *)
	?doCompleteOperation@NmOperation@@MAEXXZ @ 283 NONAME ; void NmOperation::doCompleteOperation(void)
	?dividerInsertionIndex@NmMessageListModel@@AAEHH@Z @ 284 NONAME ; int NmMessageListModel::dividerInsertionIndex(int)
	?createMessageItem@NmMessageListModel@@AAEPAVNmMessageListModelItem@@PAVNmMessageEnvelope@@@Z @ 285 NONAME ; class NmMessageListModelItem * NmMessageListModel::createMessageItem(class NmMessageEnvelope *)
	?id@NmFolderMetaData@@QBE?AVNmId@@XZ @ 286 NONAME ; class NmId NmFolderMetaData::id(void) const
	?createReplyMessage@NmUiEngine@@QAE?AV?$QPointer@VNmMessageCreationOperation@@@@ABVNmId@@0_N@Z @ 287 NONAME ; class QPointer<class NmMessageCreationOperation> NmUiEngine::createReplyMessage(class NmId const &, class NmId const &, bool)
	?getStandardFolderId@NmDataManager@@QAE?AVNmId@@ABV2@W4NmFolderType@@@Z @ 288 NONAME ; class NmId NmDataManager::getStandardFolderId(class NmId const &, enum NmFolderType)
	?address@NmMailboxMetaData@@QBE?AVQString@@XZ @ 289 NONAME ; class QString NmMailboxMetaData::address(void) const
	?dividersActive@NmMessageListModel@@QAE_NXZ @ 290 NONAME ; bool NmMessageListModel::dividersActive(void)
	?titleDivider@NmMessageListModelItem@@QBE?AVQString@@XZ @ 291 NONAME ; class QString NmMessageListModelItem::titleDivider(void) const
	?getStaticMetaObject@NmBaseClientPlugin@@SAABUQMetaObject@@XZ @ 292 NONAME ; struct QMetaObject const & NmBaseClientPlugin::getStaticMetaObject(void)
	?qt_metacast@NmMessageCreationOperation@@UAEPAXPBD@Z @ 293 NONAME ; void * NmMessageCreationOperation::qt_metacast(char const *)
	?updateEnvelope@NmMessageListModel@@AAEXW4NmEnvelopeProperties@@ABVNmId@@@Z @ 294 NONAME ; void NmMessageListModel::updateEnvelope(enum NmEnvelopeProperties, class NmId const &)
	??_ENmDataManager@@UAE@I@Z @ 295 NONAME ; NmDataManager::~NmDataManager(unsigned int)
	?qt_metacast@NmMailboxListModel@@UAEPAXPBD@Z @ 296 NONAME ; void * NmMailboxListModel::qt_metacast(char const *)
	?search@NmUiEngine@@QAEHABVNmId@@ABVQStringList@@@Z @ 297 NONAME ; int NmUiEngine::search(class NmId const &, class QStringList const &)
	?setEnvelopes@NmUiEngine@@QAE?AV?$QPointer@VNmStoreEnvelopesOperation@@@@ABVNmId@@0W4NmEnvelopeProperties@@ABV?$QList@PB$$CBVNmMessageEnvelope@@@@@Z @ 298 NONAME ; class QPointer<class NmStoreEnvelopesOperation> NmUiEngine::setEnvelopes(class NmId const &, class NmId const &, enum NmEnvelopeProperties, class QList<class NmMessageEnvelope const *> const &)
	?getActions@NmBaseClientPlugin@@UAEXABVNmActionRequest@@AAV?$QList@PAVNmAction@@@@@Z @ 299 NONAME ; void NmBaseClientPlugin::getActions(class NmActionRequest const &, class QList<class NmAction *> &)
	?qt_metacast@NmStoreEnvelopesOperation@@UAEPAXPBD@Z @ 300 NONAME ; void * NmStoreEnvelopesOperation::qt_metacast(char const *)
	??_ENmMailboxMetaData@@UAE@I@Z @ 301 NONAME ; NmMailboxMetaData::~NmMailboxMetaData(unsigned int)
	??0NmMessageListModelItem@@QAE@XZ @ 302 NONAME ; NmMessageListModelItem::NmMessageListModelItem(void)
	?tr@NmAddAttachmentsOperation@@SA?AVQString@@PBD0H@Z @ 303 NONAME ; class QString NmAddAttachmentsOperation::tr(char const *, char const *, int)
	?setDividers@NmMessageListModel@@QAEX_N@Z @ 304 NONAME ; void NmMessageListModel::setDividers(bool)
	?loadPlugin@NmDataPluginFactory@@QAEPAVQObject@@ABVQDir@@ABVQString@@@Z @ 305 NONAME ; class QObject * NmDataPluginFactory::loadPlugin(class QDir const &, class QString const &)
	?qt_metacast@NmOperation@@UAEPAXPBD@Z @ 306 NONAME ; void * NmOperation::qt_metacast(char const *)
	?tr@NmMessageListModel@@SA?AVQString@@PBD0H@Z @ 307 NONAME ; class QString NmMessageListModel::tr(char const *, char const *, int)
	?removeAttachment@NmUiEngine@@QAE?AV?$QPointer@VNmOperation@@@@ABVNmMessage@@ABVNmId@@@Z @ 308 NONAME ; class QPointer<class NmOperation> NmUiEngine::removeAttachment(class NmMessage const &, class NmId const &)
	?staticMetaObject@NmMessageListModel@@2UQMetaObject@@B @ 309 NONAME ; struct QMetaObject const NmMessageListModel::staticMetaObject
	?qt_metacall@NmAddAttachmentsOperation@@UAEHW4Call@QMetaObject@@HPAPAX@Z @ 310 NONAME ; int NmAddAttachmentsOperation::qt_metacall(enum QMetaObject::Call, int, void * *)
	?qt_metacall@NmUiEngine@@UAEHW4Call@QMetaObject@@HPAPAX@Z @ 311 NONAME ; int NmUiEngine::qt_metacall(enum QMetaObject::Call, int, void * *)
	?message@NmDataManager@@QAEPAVNmMessage@@ABVNmId@@00@Z @ 312 NONAME ; class NmMessage * NmDataManager::message(class NmId const &, class NmId const &, class NmId const &)
	?metaObject@NmOperation@@UBEPBUQMetaObject@@XZ @ 313 NONAME ; struct QMetaObject const * NmOperation::metaObject(void) const
	?getSignature@NmUiEngine@@QAEHABVNmId@@AAPAVQString@@@Z @ 314 NONAME ; int NmUiEngine::getSignature(class NmId const &, class QString * &)
	?handleFolderEvent@NmUiEngine@@AAEXW4NmFolderEvent@@ABV?$QList@VNmId@@@@ABVNmId@@@Z @ 315 NONAME ; void NmUiEngine::handleFolderEvent(enum NmFolderEvent, class QList<class NmId> const &, class NmId const &)
	?handleFolderCreatedEvent@NmUiEngine@@AAEXABV?$QList@VNmId@@@@ABVNmId@@@Z @ 316 NONAME ; void NmUiEngine::handleFolderCreatedEvent(class QList<class NmId> const &, class NmId const &)
	?handleFolderDeletedEvent@NmMessageListModel@@QAEXABVNmId@@0@Z @ 317 NONAME ; void NmMessageListModel::handleFolderDeletedEvent(class NmId const &, class NmId const &)
	?handleFolderDeletedEvent@NmUiEngine@@AAEXABV?$QList@VNmId@@@@ABVNmId@@@Z @ 318 NONAME ; void NmUiEngine::handleFolderDeletedEvent(class QList<class NmId> const &, class NmId const &)
	?createMessageListModel@NmUiEngine@@AAEXPAPAVNmMessageListModel@@ABVNmId@@1@Z @ 319 NONAME ; void NmUiEngine::createMessageListModel(class NmMessageListModel * *, class NmId const &, class NmId const &)

