EXPORTS
	_Z14GenerateHash8LRK6TDesC8 @ 1 NONAME
	_Z20FoldAndGenerateHashLRK7TDesC16 @ 2 NONAME
	_Z5Panic9TAgmPanic @ 3 NONAME
	_ZN10CAgnRptDef11SetIntervalEt @ 4 NONAME
	_ZN10CAgnRptDef12ExternalizeLER12RWriteStreami @ 5 NONAME
	_ZN10CAgnRptDef12InternalizeLER11RReadStreami @ 6 NONAME
	_ZN10CAgnRptDef12SetTimeZoneLERK8CTzRules @ 7 NONAME
	_ZN10CAgnRptDef12SetTimeZoneLEv @ 8 NONAME
	_ZN10CAgnRptDef12SetUntilTimeERK16TAgnCalendarTime @ 9 NONAME
	_ZN10CAgnRptDef13AddExceptionLERK16TAgnCalendarTime @ 10 NONAME
	_ZN10CAgnRptDef13CloneTzRulesLEv @ 11 NONAME
	_ZN10CAgnRptDef14ClearTimeArrayERP6RArrayI16TAgnCalendarTimeE @ 12 NONAME
	_ZN10CAgnRptDef16AddSporadicDateLERK16TAgnCalendarTime @ 13 NONAME
	_ZN10CAgnRptDef16PruneExceptionsLEv @ 14 NONAME
	_ZN10CAgnRptDef19RemoveAllExceptionsEv @ 15 NONAME
	_ZN10CAgnRptDef22RemoveAllSporadicDatesEv @ 16 NONAME
	_ZN10CAgnRptDef4NewLERK15CAgnSimpleEntry @ 17 NONAME
	_ZN10CAgnRptDef5CopyLERKS_ @ 18 NONAME
	_ZN10CAgnRptDef9SetRRuleLERK7TAgnRpt @ 19 NONAME
	_ZN10CAgnRptDefD0Ev @ 20 NONAME
	_ZN10CAgnRptDefD1Ev @ 21 NONAME
	_ZN10CAgnRptDefD2Ev @ 22 NONAME
	_ZN10TAgnFilter12InternalizeLER11RReadStream @ 23 NONAME
	_ZN10TAgnFilterC1ERKjRKN9CalCommon19TCalSearchBehaviourE @ 24 NONAME
	_ZN10TAgnFilterC1Ev @ 25 NONAME
	_ZN10TAgnFilterC2ERKjRKN9CalCommon19TCalSearchBehaviourE @ 26 NONAME
	_ZN10TAgnFilterC2Ev @ 27 NONAME
	_ZN11AgnDateTime15ResetToMidnightERK5TTime @ 28 NONAME
	_ZN11AgnDateTime17ConvertToUtcTimeLERK5TTime @ 29 NONAME
	_ZN11AgnDateTime18IsValidAgendaTTimeERK5TTime @ 30 NONAME
	_ZN11AgnDateTime19ConvertToLocalTimeLERK5TTime @ 31 NONAME
	_ZN11AgnDateTime7MaxDateEv @ 32 NONAME
	_ZN11AgnDateTime7MinDateEv @ 33 NONAME
	_ZN11CAgnContent11SetContentLEP6TDesC8S1_N11CCalContent12TDispositionE @ 34 NONAME
	_ZN11CAgnContent12InternalizeLER11RReadStream @ 35 NONAME
	_ZN11CAgnContentC1Ev @ 36 NONAME
	_ZN11CAgnContentC2Ev @ 37 NONAME
	_ZN11CAgnContentD0Ev @ 38 NONAME
	_ZN11CAgnContentD1Ev @ 39 NONAME
	_ZN11CAgnContentD2Ev @ 40 NONAME
	_ZN11TAgnEntryId12InternalizeLER11RReadStream @ 41 NONAME
	_ZN11TAgnEntryIdC1ERK9TStreamIdj @ 42 NONAME
	_ZN11TAgnEntryIdC1Ev @ 43 NONAME
	_ZN11TAgnEntryIdC2ERK9TStreamIdj @ 44 NONAME
	_ZN11TAgnEntryIdC2Ev @ 45 NONAME
	_ZN12CAgnAttendee11SetCalRoleLEN12CCalAttendee8TCalRoleE @ 46 NONAME
	_ZN12CAgnAttendee12SetCalStatusEN12CCalAttendee10TCalStatusE @ 47 NONAME
	_ZN12CAgnAttendee13SetVCalExpectEN12CCalAttendee11TVCalExpectE @ 48 NONAME
	_ZN12CAgnAttendee14SetCommonNameLERK7TDesC16 @ 49 NONAME
	_ZN12CAgnAttendee20SetResponseRequestedEi @ 50 NONAME
	_ZN12CAgnAttendee4NewLERK7TDesC16S2_ @ 51 NONAME
	_ZN12CAgnAttendee7SetRoleENS_8TAgnRoleE @ 52 NONAME
	_ZN12CAgnCategory12InternalizeLER11RReadStream @ 53 NONAME
	_ZN12CAgnCategory4NewLEN12CCalCategory16TCalCategoryTypeE @ 54 NONAME
	_ZN12CAgnCategory4NewLER11RReadStream @ 55 NONAME
	_ZN12CAgnCategory4NewLERK7TDesC16 @ 56 NONAME
	_ZN12CAgnCategory4NewLERKS_ @ 57 NONAME
	_ZN12CAgnTlsProxy7CreateLENS_18TAgnTlsTzRulesTypeE @ 58 NONAME
	_ZN12CAgnTlsProxy7ReleaseEPv @ 59 NONAME
	_ZN12CAgnTlsProxy8TzServerEv @ 60 NONAME
	_ZN12TAgnDailyRptC1ER10CAgnRptDef @ 61 NONAME
	_ZN12TAgnDailyRptC1ERKS_R10CAgnRptDef @ 62 NONAME
	_ZN12TAgnDailyRptC2ER10CAgnRptDef @ 63 NONAME
	_ZN12TAgnDailyRptC2ERKS_R10CAgnRptDef @ 64 NONAME
	_ZN13TAgnWeeklyRpt17SetFirstDayOfWeekE4TDay @ 65 NONAME
	_ZN13TAgnWeeklyRpt6SetDayE4TDay @ 66 NONAME
	_ZN13TAgnWeeklyRptC1ER10CAgnRptDef @ 67 NONAME
	_ZN13TAgnWeeklyRptC1ERKS_R10CAgnRptDef @ 68 NONAME
	_ZN13TAgnWeeklyRptC2ER10CAgnRptDef @ 69 NONAME
	_ZN13TAgnWeeklyRptC2ERKS_R10CAgnRptDef @ 70 NONAME
	_ZN14CAgnAttachment12SetAttributeEt @ 71 NONAME
	_ZN14CAgnAttachment12SetMimeTypeLERK6TDesC8 @ 72 NONAME
	_ZN14CAgnAttachment14ClearAttributeEt @ 73 NONAME
	_ZN14CAgnAttachment6SetUidEm @ 74 NONAME
	_ZN14CAgnAttachment7SetFlagEt @ 75 NONAME
	_ZN14CAgnAttachment7SetSizeEi @ 76 NONAME
	_ZN14CAgnAttachment8SetValueEP6TDesC8 @ 77 NONAME
	_ZN14CAgnAttachment9ClearFlagEt @ 78 NONAME
	_ZN14CAgnAttachment9SetLabelLERK7TDesC16 @ 79 NONAME
	_ZN14CAgnAttachmentD0Ev @ 80 NONAME
	_ZN14CAgnAttachmentD1Ev @ 81 NONAME
	_ZN14CAgnAttachmentD2Ev @ 82 NONAME
	_ZN14TAgnInstanceId10SetEntryIdERK11TAgnEntryId @ 83 NONAME
	_ZN14TAgnInstanceId12InternalizeLER11RReadStream @ 84 NONAME
	_ZN14TAgnInstanceId7SetDateERK16TAgnCalendarTime @ 85 NONAME
	_ZN15CAgnSimpleEntry10SetEntryIdERK11TAgnEntryId @ 86 NONAME
	_ZN15CAgnSimpleEntry10SetRptDefLERK10CAgnRptDef @ 87 NONAME
	_ZN15CAgnSimpleEntry11ClearRepeatEv @ 88 NONAME
	_ZN15CAgnSimpleEntry11SetGuidHashEm @ 89 NONAME
	_ZN15CAgnSimpleEntry11SetLocalUidEm @ 90 NONAME
	_ZN15CAgnSimpleEntry11SetPriorityEh @ 91 NONAME
	_ZN15CAgnSimpleEntry12InternalizeLER11RReadStreami @ 92 NONAME
	_ZN15CAgnSimpleEntry13SetIncompleteEv @ 93 NONAME
	_ZN15CAgnSimpleEntry14SetAlarmOffsetERK20TTimeIntervalMinutes @ 94 NONAME
	_ZN15CAgnSimpleEntry19MoveStartTimeLocalLERK5TTime @ 95 NONAME
	_ZN15CAgnSimpleEntry19SetLastModifiedDateEv @ 96 NONAME
	_ZN15CAgnSimpleEntry19SetStartAndEndTimeLERK16TAgnCalendarTimeS2_ @ 97 NONAME
	_ZN15CAgnSimpleEntry20SetCompletedDateUtcLERK5TTime @ 98 NONAME
	_ZN15CAgnSimpleEntry22SetLastModifiedDateUtcERK5TTime @ 99 NONAME
	_ZN15CAgnSimpleEntry32AdjustStartUntilTimeForRepEntryLEv @ 100 NONAME
	_ZN15CAgnSimpleEntry6RptDefEv @ 101 NONAME
	_ZN15CAgnSimpleEntry9SetStatusEN9CCalEntry7TStatusE @ 102 NONAME
	_ZN15TGsChildRefDataC1EmRK16TAgnCalendarTime @ 103 NONAME
	_ZN15TGsChildRefDataC2EmRK16TAgnCalendarTime @ 104 NONAME
	_ZN16TAgnCalendarTime12InternalizeLER11RReadStream @ 105 NONAME
	_ZN16TAgnCalendarTime12SetFloatingLERK5TTime @ 106 NONAME
	_ZN16TAgnCalendarTime7SetUtcLERK5TTime @ 107 NONAME
	_ZN16TAgnCalendarTime9SetLocalLERK5TTime @ 108 NONAME
	_ZN16TAgnCalendarTimeC1Ev @ 109 NONAME
	_ZN16TAgnCalendarTimeC2Ev @ 110 NONAME
	_ZN17AttachmentFactory14NewAttachmentLEN11CCalContent12TDispositionE @ 111 NONAME
	_ZN17AttachmentFactory14NewAttachmentLER11RReadStream @ 112 NONAME
	_ZN17AttachmentFactory6CloneLERK14CAgnAttachment @ 113 NONAME
	_ZN18CAgnAttachmentFile12InternalizeLER11RReadStream @ 114 NONAME
	_ZN18CAgnAttachmentFile12SetFileNameLERK7TDesC16 @ 115 NONAME
	_ZN18CAgnAttachmentFile13SetContentIdLERK6TDesC8 @ 116 NONAME
	_ZN18CAgnAttachmentFile14CopyFileHandleERK5RFile @ 117 NONAME
	_ZN18CAgnAttachmentFile22SetLastModifiedTimeUtcERK5TTime @ 118 NONAME
	_ZN18CAgnAttachmentFile16SetHasFileHandleEi @ 119 NONAME
	_ZN18CAgnAttachmentFile9SetDriveLERK7TDesC16 @ 120 NONAME
	_ZN18CAgnAttachmentFileD0Ev @ 121 NONAME
	_ZN18CAgnAttachmentFileD1Ev @ 122 NONAME
	_ZN18CAgnAttachmentFileD2Ev @ 123 NONAME
	_ZN18TAgnYearlyByDayRpt13FindStartDayLE4TDayN7TAgnRpt12TWeekInMonthE6TMonthi @ 124 NONAME
	_ZN18TAgnYearlyByDayRptC1ER10CAgnRptDef @ 125 NONAME
	_ZN18TAgnYearlyByDayRptC1ERKS_R10CAgnRptDef @ 126 NONAME
	_ZN18TAgnYearlyByDayRptC2ER10CAgnRptDef @ 127 NONAME
	_ZN18TAgnYearlyByDayRptC2ERKS_R10CAgnRptDef @ 128 NONAME
	_ZN19TAgnYearlyByDateRptC1ER10CAgnRptDef @ 129 NONAME
	_ZN19TAgnYearlyByDateRptC1ERKS_R10CAgnRptDef @ 130 NONAME
	_ZN19TAgnYearlyByDateRptC2ER10CAgnRptDef @ 131 NONAME
	_ZN19TAgnYearlyByDateRptC2ERKS_R10CAgnRptDef @ 132 NONAME
	_ZN20TAgnMonthlyByDaysRpt6SetDayE4TDayN7TAgnRpt12TWeekInMonthE @ 133 NONAME
	_ZN20TAgnMonthlyByDaysRptC1ER10CAgnRptDef @ 134 NONAME
	_ZN20TAgnMonthlyByDaysRptC1ERKS_R10CAgnRptDef @ 135 NONAME
	_ZN20TAgnMonthlyByDaysRptC2ER10CAgnRptDef @ 136 NONAME
	_ZN20TAgnMonthlyByDaysRptC2ERKS_R10CAgnRptDef @ 137 NONAME
	_ZN21TAgnMonthlyByDatesRpt7SetDateEj @ 138 NONAME
	_ZN21TAgnMonthlyByDatesRptC1ER10CAgnRptDef @ 139 NONAME
	_ZN21TAgnMonthlyByDatesRptC1ERKS_R10CAgnRptDef @ 140 NONAME
	_ZN21TAgnMonthlyByDatesRptC2ER10CAgnRptDef @ 141 NONAME
	_ZN21TAgnMonthlyByDatesRptC2ERKS_R10CAgnRptDef @ 142 NONAME
	_ZN24CAgnSimpleEntryAllocator18CreateSimpleEntryLEN9CCalEntry5TTypeEPK15CAgnSimpleEntry @ 143 NONAME
	_ZN24CAgnSimpleEntryAllocator6DeleteEP15CAgnSimpleEntry @ 144 NONAME
	_ZN24CAgnSimpleEntryAllocatorC1Ev @ 145 NONAME
	_ZN24CAgnSimpleEntryAllocatorC2Ev @ 146 NONAME
	_ZN24CAgnSimpleEntryAllocatorD0Ev @ 147 NONAME
	_ZN24CAgnSimpleEntryAllocatorD1Ev @ 148 NONAME
	_ZN24CAgnSimpleEntryAllocatorD2Ev @ 149 NONAME
	_ZN7TAgnRpt11SetIntervalEt @ 150 NONAME
	_ZN9CAgnEntry10ClearAlarmEv @ 151 NONAME
	_ZN9CAgnEntry10SetSummaryEP7HBufC16 @ 152 NONAME
	_ZN9CAgnEntry11AddChildIdLERK15TGsChildRefData @ 153 NONAME
	_ZN9CAgnEntry11SetParentIdEm @ 154 NONAME
	_ZN9CAgnEntry12AddAttendeeLEP12CAgnAttendee @ 155 NONAME
	_ZN9CAgnEntry12AddCategoryLEP12CAgnCategory @ 156 NONAME
	_ZN9CAgnEntry12InternalizeLER11RReadStream @ 157 NONAME
	_ZN9CAgnEntry12PruneRDatesLERK16TAgnCalendarTimeN9CalCommon16TRecurrenceRangeE @ 158 NONAME
	_ZN9CAgnEntry12SetGeoValueLERKdS1_ @ 159 NONAME
	_ZN9CAgnEntry12SetLocationLERK7TDesC16 @ 160 NONAME
	_ZN9CAgnEntry13RemoveChildIdEm @ 161 NONAME
	_ZN9CAgnEntry13SetOrganizerLEP12CAgnAttendee @ 162 NONAME
	_ZN9CAgnEntry14AddAttachmentLEP14CAgnAttachment @ 163 NONAME
	_ZN9CAgnEntry14DeleteAttendeeEi @ 164 NONAME
	_ZN9CAgnEntry14DeleteCategoryEi @ 165 NONAME
	_ZN9CAgnEntry14SetAlarmActionEP11CAgnContent @ 166 NONAME
	_ZN9CAgnEntry14SetBusyStatusLEN9CCalEntry7TTranspE @ 167 NONAME
	_ZN9CAgnEntry14SetDTStampUtcLERK5TTime @ 168 NONAME
	_ZN9CAgnEntry14SetDescriptionEP7HBufC16 @ 169 NONAME
	_ZN9CAgnEntry14SetPhoneOwnerLEP12CAgnAttendee @ 170 NONAME
	_ZN9CAgnEntry17DeleteAttachmentLERK14CAgnAttachment @ 171 NONAME
	_ZN9CAgnEntry17SetSequenceNumberEi @ 172 NONAME
	_ZN9CAgnEntry18SetAlarmSoundNameLERK7TDesC16 @ 173 NONAME
	_ZN9CAgnEntry18SetSummaryStreamIdERK9TStreamId @ 174 NONAME
	_ZN9CAgnEntry18VerifyBeforeStoreLEv @ 175 NONAME
	_ZN9CAgnEntry19SetRecurrenceRangeLEN9CalCommon16TRecurrenceRangeE @ 176 NONAME
	_ZN9CAgnEntry19UpdateRecurrenceIdLERK16TAgnCalendarTime @ 177 NONAME
	_ZN9CAgnEntry21SetReplicationStatusLEN9CCalEntry18TReplicationStatusE @ 178 NONAME
	_ZN9CAgnEntry22InternalizeFromBufferLER11RReadStream @ 179 NONAME
	_ZN9CAgnEntry22SetAlarmActionStreamIdERK9TStreamId @ 180 NONAME
	_ZN9CAgnEntry22SetDescriptionStreamIdERK9TStreamId @ 181 NONAME
	_ZN9CAgnEntry26SetRecurrenceIdFromParentLERKS_ @ 182 NONAME
	_ZN9CAgnEntry4NewLEN9CCalEntry5TTypeE @ 183 NONAME
	_ZN9CAgnEntry4NewLEN9CCalEntry5TTypeEP6HBufC8NS0_7TMethodEj @ 184 NONAME
	_ZN9CAgnEntry4NewLEN9CCalEntry5TTypeEP6HBufC8NS0_7TMethodEjRK16TAgnCalendarTimeN9CalCommon16TRecurrenceRangeE @ 185 NONAME
	_ZN9CAgnEntry4NewLER11RReadStream @ 186 NONAME
	_ZN9CAgnEntry7SetGuidEP6HBufC8 @ 187 NONAME
	_ZN9CAgnEntry9CopyFromLERKS_N9CCalEntry9TCopyTypeE @ 188 NONAME
	_ZN9CAgnEntry9SetMethodEN9CCalEntry7TMethodE @ 189 NONAME
	_ZN9CAgnEntryD0Ev @ 190 NONAME
	_ZN9CAgnEntryD1Ev @ 191 NONAME
	_ZN9CAgnEntryD2Ev @ 192 NONAME
	_ZNK10CAgnRptDef10ExceptionsEv @ 193 NONAME
	_ZNK10CAgnRptDef13LastInstanceLEv @ 194 NONAME
	_ZNK10CAgnRptDef13FindExceptionERK16TAgnCalendarTime @ 195 NONAME
	_ZNK10CAgnRptDef14FirstInstanceLEv @ 196 NONAME
	_ZNK10CAgnRptDef13IsAnInstanceLERK5TTime @ 197 NONAME
	_ZNK10CAgnRptDef14InstanceCountLEv @ 198 NONAME
	_ZNK10CAgnRptDef16SporadicDateListEv @ 199 NONAME
	_ZNK10CAgnRptDef18NudgeNextInstanceLERK5TTimeRS0_i @ 200 NONAME
	_ZNK10CAgnRptDef21NudgeNextInstanceUtcLERK5TTimeRS0_ @ 201 NONAME
	_ZNK10CAgnRptDef23IsAnUnexceptedInstanceLERK5TTime @ 202 NONAME
	_ZNK10CAgnRptDef25NudgePreviousInstanceUtcLERK5TTimeRS0_ @ 203 NONAME
	_ZNK10CAgnRptDef28ConvertFromRepeatLocalToUtcLERK5TTime @ 204 NONAME
	_ZNK10CAgnRptDef28ConvertFromUtcToRepeatLocalLERK5TTime @ 205 NONAME
	_ZNK10CAgnRptDef32NudgePreviousUnexceptedInstanceLERK5TTimeRS0_ @ 206 NONAME
	_ZNK10CAgnRptDef4TypeEv @ 207 NONAME
	_ZNK10CAgnRptDef5RRuleEv @ 208 NONAME
	_ZNK10TAgnFilter12ExternalizeLER12RWriteStream @ 209 NONAME
	_ZNK10TAgnFilter7IsValidERK15CAgnSimpleEntry @ 210 NONAME
	_ZNK11CAgnContent12ExternalizeLER12RWriteStream @ 211 NONAME
	_ZNK11CAgnContent4TypeEv @ 212 NONAME
	_ZNK11CAgnContent6CloneLEv @ 213 NONAME
	_ZNK11CAgnContent7ContentEv @ 214 NONAME
	_ZNK11CAgnContent8MimeTypeEv @ 215 NONAME
	_ZNK11TAgnEntryId12ExternalizeLER12RWriteStream @ 216 NONAME
	_ZNK11TAgnEntryId8IsNullIdEv @ 217 NONAME
	_ZNK11TAgnEntryId9PartialIdEv @ 218 NONAME
	_ZNK11TAgnEntryIdeqERKS_ @ 219 NONAME
	_ZNK11TAgnEntryIdneERKS_ @ 220 NONAME
	_ZNK12CAgnAttendee10CommonNameEv @ 221 NONAME
	_ZNK12CAgnAttendee10VCalExpectEv @ 222 NONAME
	_ZNK12CAgnAttendee17ResponseRequestedEv @ 223 NONAME
	_ZNK12CAgnAttendee6CloneLEv @ 224 NONAME
	_ZNK12CAgnAttendee6SentByEv @ 225 NONAME
	_ZNK12CAgnAttendee7AddressEv @ 226 NONAME
	_ZNK12CAgnAttendee7CalRoleEv @ 227 NONAME
	_ZNK12CAgnAttendee9CalStatusEv @ 228 NONAME
	_ZNK12CAgnCategory12ExternalizeLER12RWriteStream @ 229 NONAME
	_ZNK12CAgnCategory20ExtendedCategoryNameEv @ 230 NONAME
	_ZNK13TAgnWeeklyRpt14FirstDayOfWeekEv @ 231 NONAME
	_ZNK13TAgnWeeklyRpt8IsDaySetE4TDay @ 232 NONAME
	_ZNK14CAgnAttachment14IsAttributeSetEt @ 233 NONAME
	_ZNK14CAgnAttachment3UidEv @ 234 NONAME
	_ZNK14CAgnAttachment4SizeEv @ 235 NONAME
	_ZNK14CAgnAttachment5LabelEv @ 236 NONAME
	_ZNK14CAgnAttachment8FlagsSetEt @ 237 NONAME
	_ZNK14TAgnInstanceId12ExternalizeLER12RWriteStream @ 238 NONAME
	_ZNK14TAgnInstanceId4DateEv @ 239 NONAME
	_ZNK14TAgnInstanceIdeqERKS_ @ 240 NONAME
	_ZNK14TAgnInstanceIdneERKS_ @ 241 NONAME
	_ZNK15CAgnSimpleEntry11AlarmOffsetEv @ 242 NONAME
	_ZNK15CAgnSimpleEntry12ExternalizeLER12RWriteStreami @ 243 NONAME
	_ZNK15CAgnSimpleEntry16CompletedDateUtcEv @ 244 NONAME
	_ZNK15CAgnSimpleEntry17ValidToTimeLocalLEv @ 245 NONAME
	_ZNK15CAgnSimpleEntry18DurationInSecondsLEv @ 246 NONAME ABSENT
	_ZNK15CAgnSimpleEntry19LastModifiedDateUtcEv @ 247 NONAME
	_ZNK15CAgnSimpleEntry4TypeEv @ 248 NONAME
	_ZNK15CAgnSimpleEntry6RptDefEv @ 249 NONAME
	_ZNK15CAgnSimpleEntry6StatusEv @ 250 NONAME
	_ZNK15CAgnSimpleEntry7EndTimeEv @ 251 NONAME
	_ZNK15CAgnSimpleEntry7EntryIdEv @ 252 NONAME
	_ZNK15CAgnSimpleEntry8GuidHashEv @ 253 NONAME
	_ZNK15CAgnSimpleEntry8HasAlarmEv @ 254 NONAME
	_ZNK15CAgnSimpleEntry8LocalUidEv @ 255 NONAME
	_ZNK15CAgnSimpleEntry8PriorityEv @ 256 NONAME
	_ZNK15CAgnSimpleEntry8TimeModeEv @ 257 NONAME
	_ZNK15CAgnSimpleEntry9EntryTimeEv @ 258 NONAME
	_ZNK15CAgnSimpleEntry9StartTimeEv @ 259 NONAME
	_ZNK15TGsChildRefData12RecurrenceIdEv @ 260 NONAME
	_ZNK15TGsChildRefData7ChildIdEv @ 261 NONAME
	_ZNK16TAgnCalendarTime4UtcLEv @ 262 NONAME
	_ZNK16TAgnCalendarTime5IsSetEv @ 263 NONAME
	_ZNK16TAgnCalendarTime6LocalLEv @ 264 NONAME
	_ZNK16TAgnCalendarTime8TimeModeEv @ 265 NONAME
	_ZNK16TAgnCalendarTime9DateTimeLEN20MAgnCalendarTimeMode7TFormatE @ 266 NONAME
	_ZNK16TAgnCalendarTimeeqERKS_ @ 267 NONAME
	_ZNK16TAgnCalendarTimegeERKS_ @ 268 NONAME
	_ZNK16TAgnCalendarTimegtERKS_ @ 269 NONAME
	_ZNK16TAgnCalendarTimeleERKS_ @ 270 NONAME
	_ZNK16TAgnCalendarTimeltERKS_ @ 271 NONAME
	_ZNK16TAgnCalendarTimeneERKS_ @ 272 NONAME
	_ZNK18CAgnAttachmentFile10FileHandleEv @ 273 NONAME
	_ZNK18CAgnAttachmentFile12ExternalizeLER12RWriteStream @ 274 NONAME
	_ZNK18CAgnAttachmentFile19LastModifiedTimeUtcEv @ 275 NONAME
	_ZNK18CAgnAttachmentFile5DriveEv @ 276 NONAME
	_ZNK18CAgnAttachmentFile8FileNameEv @ 277 NONAME
	_ZNK18CAgnAttachmentFile9ContentIdEv @ 278 NONAME
	_ZNK18TAgnYearlyByDayRpt12GetStartDayLER4TDayRN7TAgnRpt12TWeekInMonthER6TMonthRi @ 279 NONAME
	_ZNK20TAgnMonthlyByDaysRpt8IsDaySetE4TDayN7TAgnRpt12TWeekInMonthE @ 280 NONAME
	_ZNK21TAgnMonthlyByDatesRpt9IsDateSetEj @ 281 NONAME
	_ZNK7TAgnRpt22FindRptUntilTimeLocalLEj @ 282 NONAME
	_ZNK7TAgnRpt8IntervalEv @ 283 NONAME
	_ZNK7TAgnRpt10UntilTimeLEv @ 284 NONAME
	_ZNK9CAgnEntry10AttachmentEi @ 285 NONAME
	_ZNK9CAgnEntry10BusyStatusEv @ 286 NONAME
	_ZNK9CAgnEntry10GsDataTypeEv @ 287 NONAME
	_ZNK9CAgnEntry10PhoneOwnerEv @ 288 NONAME
	_ZNK9CAgnEntry11AlarmActionEv @ 289 NONAME
	_ZNK9CAgnEntry11DTStampUtcLEv @ 290 NONAME
	_ZNK9CAgnEntry11DescriptionEv @ 291 NONAME
	_ZNK9CAgnEntry11HasChildrenEv @ 292 NONAME
	_ZNK9CAgnEntry12ExternalizeLER12RWriteStream @ 293 NONAME
	_ZNK9CAgnEntry12RecurrenceIdEv @ 294 NONAME
	_ZNK9CAgnEntry13AttendeeCountEv @ 295 NONAME
	_ZNK9CAgnEntry13CategoryCountEv @ 296 NONAME
	_ZNK9CAgnEntry13FetchAttendeeEi @ 297 NONAME
	_ZNK9CAgnEntry13FetchCategoryEi @ 298 NONAME
	_ZNK9CAgnEntry13SummaryChangeEv @ 299 NONAME
	_ZNK9CAgnEntry14AlarmSoundNameEv @ 300 NONAME
	_ZNK9CAgnEntry14SequenceNumberEv @ 301 NONAME
	_ZNK9CAgnEntry15AttachmentCountEv @ 302 NONAME
	_ZNK9CAgnEntry15RecurrenceRangeEv @ 303 NONAME
	_ZNK9CAgnEntry15SummaryIsLoadedEv @ 304 NONAME
	_ZNK9CAgnEntry15SummaryStreamIdEv @ 305 NONAME
	_ZNK9CAgnEntry17AlarmActionChangeEv @ 306 NONAME
	_ZNK9CAgnEntry17DescriptionChangeEv @ 307 NONAME
	_ZNK9CAgnEntry17ReplicationStatusEv @ 308 NONAME
	_ZNK9CAgnEntry19AlarmActionIsLoadedEv @ 309 NONAME
	_ZNK9CAgnEntry19AlarmActionStreamIdEv @ 310 NONAME
	_ZNK9CAgnEntry19DescriptionIsLoadedEv @ 311 NONAME
	_ZNK9CAgnEntry19DescriptionStreamIdEv @ 312 NONAME
	_ZNK9CAgnEntry20ExternalizeToBufferLER12RWriteStream @ 313 NONAME
	_ZNK9CAgnEntry4GuidEv @ 314 NONAME
	_ZNK9CAgnEntry6CloneLEv @ 315 NONAME
	_ZNK9CAgnEntry6MethodEv @ 316 NONAME
	_ZNK9CAgnEntry7SummaryEv @ 317 NONAME
	_ZNK9CAgnEntry8ChildIdsEv @ 318 NONAME
	_ZNK9CAgnEntry8CompareLERKS_ @ 319 NONAME
	_ZNK9CAgnEntry8GeoValueERdS0_ @ 320 NONAME
	_ZNK9CAgnEntry8LocationEv @ 321 NONAME
	_ZNK9CAgnEntry8ParentIdEv @ 322 NONAME
	_ZNK9CAgnEntry9OrganizerEv @ 323 NONAME
	_ZN8AgmDebug12DebugLogIPCLEiji @ 324 NONAME
	_ZN8AgmDebug14DebugLogAlarmLERK14TAgnAlarmEntry @ 325 NONAME
	_ZN8AgmDebug14DebugLogEntryLER9CAgnEntry18TAgmEntryDumpLevel @ 326 NONAME
	_ZN8AgmDebug18DebugLogTimeStampLEPKcz @ 327 NONAME
	_ZN8AgmDebug8DebugLogEPKcz @ 328 NONAME
	_ZN8AgmDebug9TTimeStrLERK5TTimeR6TDes16 @ 329 NONAME
	_ZNK18CAgnAttachmentFile15IsFileHandleSetEv @ 330 NONAME
	_ZN9CAgnEntry10SetUserIntEm @ 331 NONAME
	_ZNK9CAgnEntry7UserIntEv @ 332 NONAME
	_ZN15CAgnSimpleEntry20InternalizeGuidHashLER11RReadStream @ 333 NONAME
	_ZNK15CAgnSimpleEntry20ExternalizeGuidHashLER12RWriteStream @ 334 NONAME
	_ZN7TAgnRpt8SetCountEi @ 335 NONAME
	_ZNK7TAgnRpt5CountEv @ 336 NONAME
	_ZNK15CAgnSimpleEntry13DurationPlusLERK5TTime @ 337 NONAME
	_ZN12CAgnTlsProxy24__dbgClearTzClientCacheLEi @ 338 NONAME
	_ZN19TFindInstanceParams12InternalizeLER11RReadStream @ 339 NONAME
	_ZNK15CAgnSimpleEntry19ValidFromTimeLocalLEv @ 340 NONAME
	_ZNK16TAgnCalendarTime11IsValidTimeEv @ 341 NONAME
	_ZNK19TFindInstanceParams12ExternalizeLER12RWriteStream @ 342 NONAME
	_ZNK15CAgnSimpleEntry14DurationMinusLERK5TTime @ 343 NONAME
	_ZN11CAgnTzRules10SetTzRulesEP8CTzRules @ 344 NONAME
	_ZN12CAgnTlsProxy22AddSystemTimeObserverLEP20MAgnTzChangeObserver @ 345 NONAME
	_ZN12CAgnTlsProxy24RemoveSystemTimeObserverEP20MAgnTzChangeObserver @ 346 NONAME
	_ZN12CAgnTlsProxy24GetCurrentSystemTzRulesLEv @ 347 NONAME
	_ZNK10CAgnRptDef10AgnTzRulesEv @ 348 NONAME
	_ZNK11CAgnTzRules7TzRulesEv @ 349 NONAME
	_ZN11CAgnTzRules15SetSystemTzRuleEi @ 350 NONAME
	_ZN11CAgnTzRules17SetTzZoneStreamIdE9TStreamId @ 351 NONAME
	_ZN11CAgnTzRules26SetUseCurrentSystemTzRulesEi @ 352 NONAME
	_ZNK11CAgnTzRules12SystemTzRuleEv @ 353 NONAME
	_ZNK11CAgnTzRules14TzZoneStreamIdEv @ 354 NONAME
	_ZNK11CAgnTzRules23UseCurrentSystemTzRulesEv @ 355 NONAME
	_ZTI11CAgnTzRules @ 356 NONAME
	_ZTV11CAgnTzRules @ 357 NONAME
	_ZNK11CAgnTzRules22HasValidTzZoneStreamIdEv @ 358 NONAME
	_ZN16CAgnSortCriteria12InternalizeLER11RReadStream @ 359 NONAME
	_ZN16CAgnSortCriteria16AppendCriterionLEN9CalCommon17TCalSortAttributeENS0_17TCalSortDirectionE @ 360 NONAME
	_ZN16CAgnSortCriteria18SetEntryTypeOrderLERK6RArrayIN9CCalEntry5TTypeEE @ 361 NONAME
	_ZN16CAgnSortCriteria4NewLEv @ 362 NONAME
	_ZN16CAgnSortCriteriaD0Ev @ 363 NONAME
	_ZN16CAgnSortCriteriaD1Ev @ 364 NONAME
	_ZN16CAgnSortCriteriaD2Ev @ 365 NONAME
	_ZNK16CAgnSortCriteria12ExternalizeLER12RWriteStream @ 366 NONAME
	_ZNK16CAgnSortCriteria14EntryTypeOrderEv @ 367 NONAME
	_ZNK16CAgnSortCriteria3AtLEi @ 368 NONAME
	_ZNK16CAgnSortCriteria5CountEv @ 369 NONAME
	_ZN15CAgnSimpleEntry10SetUserIntEm @ 370 NONAME
	_ZNK15CAgnSimpleEntry7UserIntEv @ 371 NONAME
	_ZN12TAgnInstance12InternalizeLER11RReadStream @ 372 NONAME
	_ZNK12TAgnInstance12ExternalizeLER12RWriteStream @ 373 NONAME
	_ZN15CAgnSimpleEntry15SetCollectionIdEh @ 374 NONAME
	_ZNK15CAgnSimpleEntry12CollectionIdEv @ 375 NONAME
	_ZN16CAgnCalendarInfo10SetEnabledEi @ 376 NONAME
	_ZN16CAgnCalendarInfo10SetIsValidEi @ 377 NONAME
	_ZN16CAgnCalendarInfo16FileInternalizeLER11RReadStream @ 378 NONAME
	_ZN16CAgnCalendarInfo12SetFileNameLERK7TDesC16 @ 379 NONAME
	_ZN16CAgnCalendarInfo15SetDescriptionLERK7TDesC16 @ 380 NONAME
	_ZN16CAgnCalendarInfo4NewLER11RReadStream @ 381 NONAME ABSENT
	_ZN16CAgnCalendarInfo4NewLEv @ 382 NONAME
	_ZN16CAgnCalendarInfo8SetColorE4TRgb @ 383 NONAME
	_ZN16CAgnCalendarInfo8SetNameLERK7TDesC16 @ 384 NONAME
	_ZN16CAgnCalendarInfoD0Ev @ 385 NONAME
	_ZN16CAgnCalendarInfoD1Ev @ 386 NONAME
	_ZN16CAgnCalendarInfoD2Ev @ 387 NONAME
	_ZNK16CAgnCalendarInfo12DescriptionLEv @ 388 NONAME
	_ZNK16CAgnCalendarInfo16FileExternalizeLER12RWriteStream @ 389 NONAME
	_ZNK16CAgnCalendarInfo5ColorEv @ 390 NONAME
	_ZNK16CAgnCalendarInfo5NameLEv @ 391 NONAME
	_ZNK16CAgnCalendarInfo7EnabledEv @ 392 NONAME
	_ZNK16CAgnCalendarInfo7IsValidEv @ 393 NONAME
	_ZNK16CAgnCalendarInfo9FileNameLEv @ 394 NONAME
	_ZN18CAgnFileChangeInfo12InternalizeLER11RReadStream @ 395 NONAME
	_ZN18CAgnFileChangeInfo4NewLEP7HBufC16N22MCalFileChangeObserver11TChangeTypeE @ 396 NONAME
	_ZN18CAgnFileChangeInfo4NewLER11RReadStream @ 397 NONAME
	_ZN18CAgnFileChangeInfoD0Ev @ 398 NONAME
	_ZN18CAgnFileChangeInfoD1Ev @ 399 NONAME
	_ZN18CAgnFileChangeInfoD2Ev @ 400 NONAME
	_ZNK18CAgnFileChangeInfo10ChangeTypeEv @ 401 NONAME
	_ZNK18CAgnFileChangeInfo12ExternalizeLER12RWriteStream @ 402 NONAME
	_ZNK18CAgnFileChangeInfo9FileNameLEv @ 403 NONAME
	_ZN16CAgnCalendarInfo10ConstructLEv @ 404 NONAME
	_ZN16CAgnCalendarInfo12SetPropertyLERK6TDesC8S2_ @ 405 NONAME
	_ZN16CAgnCalendarInfo15IpcInternalizeLER11RReadStream @ 406 NONAME
	_ZN16CAgnCalendarInfo15RemovePropertyLERK6TDesC8 @ 407 NONAME
	_ZN16CAgnCalendarInfoC1Ev @ 408 NONAME
	_ZN16CAgnCalendarInfoC2Ev @ 409 NONAME
	_ZN24CAgnCalendarInfoProperty7CompareEPK6TDesC8RKS_ @ 410 NONAME
	_ZN24CAgnCalendarInfoProperty8SetStateENS_6TStateE @ 411 NONAME
	_ZN24CAgnCalendarInfoProperty8SetValueEP6HBufC8 @ 412 NONAME
	_ZNK16CAgnCalendarInfo13PropertyKeysLEv @ 413 NONAME
	_ZNK16CAgnCalendarInfo14PropertyValueLERK6TDesC8 @ 414 NONAME
	_ZNK16CAgnCalendarInfo15IpcExternalizeLER12RWriteStream @ 415 NONAME
	_ZNK16CAgnCalendarInfo22ExternalizePropertiesLER10CFileStorePKS_ @ 416 NONAME
	_ZNK24CAgnCalendarInfoProperty5ValueEv @ 417 NONAME
	_ZNK24CAgnCalendarInfoProperty8StreamIdEv @ 418 NONAME
	_ZTI16CAgnCalendarInfo @ 419 NONAME
	_ZTI24CAgnCalendarInfoProperty @ 420 NONAME
	_ZTV16CAgnCalendarInfo @ 421 NONAME
	_ZTV24CAgnCalendarInfoProperty @ 422 NONAME
	_ZNK24CAgnCalendarInfoProperty5StateEv @ 423 NONAME

