EXPORTS
	_ZN10CalTestOom16OutOfMemoryTestLER19MCalTestOomCallBackNS0_5TTypeER11CCalSession @ 1 NONAME
	_ZN15CCalTestLibrary10GetSessionEv @ 2 NONAME
	_ZN15CCalTestLibrary10RandomTextER6TDes16i @ 3 NONAME
	_ZN15CCalTestLibrary11CreateFileLERK7TDesC16 @ 4 NONAME
	_ZN15CCalTestLibrary11DeleteFileLERK7TDesC16i @ 5 NONAME
	_ZN15CCalTestLibrary11DeleteViewsEv @ 6 NONAME
	_ZN15CCalTestLibrary11FileSessionEv @ 7 NONAME
	_ZN15CCalTestLibrary11RandomText8ER5TDes8i @ 8 NONAME
	_ZN15CCalTestLibrary11StoreEntryLERK9CCalEntry @ 9 NONAME
	_ZN15CCalTestLibrary12ReplaceFileLERK7TDesC16 @ 10 NONAME
	_ZN15CCalTestLibrary12SetTimeZoneLERK6TDesC8 @ 11 NONAME
	_ZN15CCalTestLibrary12TestRegisterEv @ 12 NONAME
	_ZN15CCalTestLibrary13DataExchangeLEv @ 13 NONAME
	_ZN15CCalTestLibrary13PIMTestServerEv @ 14 NONAME
	_ZN15CCalTestLibrary14BaseConstructLEv @ 15 NONAME
	_ZN15CCalTestLibrary14CleanDatabaseLEv @ 16 NONAME
	_ZN15CCalTestLibrary15CreateCalEntryLEN9CCalEntry5TTypeERP6HBufC8 @ 17 NONAME
	_ZN15CCalTestLibrary15CreateTestFileLERK6TDesC8RK7TDesC16 @ 18 NONAME
	_ZN15CCalTestLibrary16RegisterCalFileLERK7TDesC16 @ 19 NONAME
	_ZN15CCalTestLibrary17CloseAgendaServerEv @ 20 NONAME
	_ZN15CCalTestLibrary17SynCGetEntryViewLEv @ 21 NONAME
	_ZN15CCalTestLibrary18AsynCGetEntryViewLEv @ 22 NONAME
	_ZN15CCalTestLibrary18FetchAllInstancesLER13RPointerArrayI12CCalInstanceE @ 23 NONAME
	_ZN15CCalTestLibrary19OutputInstanceDataLERK13RPointerArrayI12CCalInstanceE @ 24 NONAME
	_ZN15CCalTestLibrary20ConnectAgendaServerLEv @ 25 NONAME
	_ZN15CCalTestLibrary20SynCGetInstanceViewLEv @ 26 NONAME
	_ZN15CCalTestLibrary21AsynCGetInstanceViewLEv @ 27 NONAME
	_ZN15CCalTestLibrary24SetEntryStartAndEndTimeLEP9CCalEntryRK5TTimeS4_i @ 28 NONAME
	_ZN15CCalTestLibrary24__dbgClearTzClientCacheLEi @ 29 NONAME
	_ZN15CCalTestLibrary4NewLEi @ 30 NONAME
	_ZN15CCalTestLibrary5NewLCEi @ 31 NONAME
	_ZN15CCalTestLibrary7ExportLERK7TDesC16R13RPointerArrayI9CCalEntryE @ 32 NONAME
	_ZN15CCalTestLibrary7ImportLERK6TDesC8R13RPointerArrayI9CCalEntryE @ 33 NONAME
	_ZN15CCalTestLibrary7ImportLERK7TDesC16R13RPointerArrayI9CCalEntryE @ 34 NONAME
	_ZN15CCalTestLibrary8GetIterLEv @ 35 NONAME
	_ZN15CCalTestLibrary9OpenFileLERK7TDesC16i @ 36 NONAME
	_ZN15CCalTestLibraryC1Ei @ 37 NONAME
	_ZN15CCalTestLibraryC2Ei @ 38 NONAME
	_ZN15CCalTestLibraryD0Ev @ 39 NONAME
	_ZN15CCalTestLibraryD1Ev @ 40 NONAME
	_ZN15CCalTestLibraryD2Ev @ 41 NONAME
	_ZN17TPerformanceTimer4StopEv @ 42 NONAME
	_ZN17TPerformanceTimer5StartEv @ 43 NONAME
	_ZN17TPerformanceTimerC1ER5RTest @ 44 NONAME
	_ZN17TPerformanceTimerC2ER5RTest @ 45 NONAME
	_ZNK17TPerformanceTimer11ElapsedTimeEv @ 46 NONAME
	_ZNK17TPerformanceTimer8PrintOutEv @ 47 NONAME
	_ZTI12CSetTimezone @ 48 NONAME
	_ZTI15CCalTestLibrary @ 49 NONAME
	_ZTV12CSetTimezone @ 50 NONAME
	_ZTV15CCalTestLibrary @ 51 NONAME
	_ZN15CCalTestLibrary24WaitForAgendaServerCloseEv @ 52 NONAME
	_ZN15CCalTestLibrary17WaitForAlarmEventEi17TAlarmChangeEvent11TAlarmStatei @ 53 NONAME
	_ZN15CCalTestLibrary20CreateCalSubSessionLERK7TDesC16 @ 54 NONAME

