EXPORTS
	_Z30NewPhoneUIStateMachineFactoryLv @ 1 NONAME
	_ZN10CPhoneIdle10ConstructLEv @ 2 NONAME
	_ZN10CPhoneIdle12HandleErrorLERK12TPEErrorInfo @ 3 NONAME
	_ZN10CPhoneIdle25HandlePhoneEngineMessageLEii @ 4 NONAME
	_ZN10CPhoneIdleC1EP18MPhoneStateMachineP23MPhoneViewCommandHandleP19MPhoneCustomization @ 5 NONAME
	_ZN10CPhoneIdleC2EP18MPhoneStateMachineP23MPhoneViewCommandHandleP19MPhoneCustomization @ 6 NONAME
	_ZN10CPhoneIdleD0Ev @ 7 NONAME
	_ZN10CPhoneIdleD1Ev @ 8 NONAME
	_ZN10CPhoneIdleD2Ev @ 9 NONAME
	_ZN14CPhoneAlerting10ConstructLEv @ 10 NONAME
	_ZN14CPhoneAlerting14HandleCommandLEi @ 11 NONAME
	_ZN14CPhoneAlerting16HandleConnectedLEi @ 12 NONAME
	_ZN14CPhoneAlerting17HandleKeyMessageLEN15MPhoneKeyEvents22TPhoneKeyEventMessagesE8TKeyCode @ 13 NONAME
	_ZN14CPhoneAlerting20HandleDisconnectingLEi @ 14 NONAME
	_ZN14CPhoneAlerting25HandlePhoneEngineMessageLEii @ 15 NONAME
	_ZN14CPhoneAlerting30CheckIfShowCallTerminationNoteEv @ 16 NONAME
	_ZN14CPhoneAlertingC1EP18MPhoneStateMachineP23MPhoneViewCommandHandleP19MPhoneCustomization @ 17 NONAME
	_ZN14CPhoneAlertingC2EP18MPhoneStateMachineP23MPhoneViewCommandHandleP19MPhoneCustomization @ 18 NONAME
	_ZN14CPhoneAlertingD0Ev @ 19 NONAME
	_ZN14CPhoneAlertingD1Ev @ 20 NONAME
	_ZN14CPhoneAlertingD2Ev @ 21 NONAME
	_ZN14CPhoneIncoming10ConstructLEv @ 22 NONAME
	_ZN14CPhoneIncoming12HandleErrorLERK12TPEErrorInfo @ 23 NONAME
	_ZN14CPhoneIncoming25HandlePhoneEngineMessageLEii @ 24 NONAME
	_ZN14CPhoneIncomingC1EP18MPhoneStateMachineP23MPhoneViewCommandHandleP19MPhoneCustomization @ 25 NONAME
	_ZN14CPhoneIncomingC2EP18MPhoneStateMachineP23MPhoneViewCommandHandleP19MPhoneCustomization @ 26 NONAME
	_ZN14CPhoneIncomingD0Ev @ 27 NONAME
	_ZN14CPhoneIncomingD1Ev @ 28 NONAME
	_ZN14CPhoneIncomingD2Ev @ 29 NONAME
	_ZN15CPhoneCallSetup10ConstructLEv @ 30 NONAME
	_ZN15CPhoneCallSetup17HandleConnectingLEi @ 31 NONAME
	_ZN15CPhoneCallSetup25HandlePhoneEngineMessageLEii @ 32 NONAME
	_ZN15CPhoneCallSetupC1EP18MPhoneStateMachineP23MPhoneViewCommandHandleP19MPhoneCustomization @ 33 NONAME
	_ZN15CPhoneCallSetupC2EP18MPhoneStateMachineP23MPhoneViewCommandHandleP19MPhoneCustomization @ 34 NONAME
	_ZN15CPhoneCallSetupD0Ev @ 35 NONAME
	_ZN15CPhoneCallSetupD1Ev @ 36 NONAME
	_ZN15CPhoneCallSetupD2Ev @ 37 NONAME
	_ZN15CPhoneEmergency20HandleRemConCommandLE25TRemConCoreApiOperationId26TRemConCoreApiButtonAction @ 38 NONAME
	_ZN15CPhoneGsmInCall14HandleCommandLEi @ 39 NONAME
	_ZN16CPhoneSingleCall10ConstructLEv @ 40 NONAME
	_ZN16CPhoneSingleCall14HandleCommandLEi @ 41 NONAME
	_ZN16CPhoneSingleCall17HandleKeyMessageLEN15MPhoneKeyEvents22TPhoneKeyEventMessagesE8TKeyCode @ 42 NONAME
	_ZN16CPhoneSingleCall25HandlePhoneEngineMessageLEii @ 43 NONAME
	_ZN16CPhoneSingleCallC1EP18MPhoneStateMachineP23MPhoneViewCommandHandleP19MPhoneCustomization @ 44 NONAME
	_ZN16CPhoneSingleCallC2EP18MPhoneStateMachineP23MPhoneViewCommandHandleP19MPhoneCustomization @ 45 NONAME
	_ZN16CPhoneSingleCallD0Ev @ 46 NONAME
	_ZN16CPhoneSingleCallD1Ev @ 47 NONAME
	_ZN16CPhoneSingleCallD2Ev @ 48 NONAME
	_ZN16CPhoneTwoSingles10ConstructLEv @ 49 NONAME
	_ZN16CPhoneTwoSingles17HandleKeyMessageLEN15MPhoneKeyEvents22TPhoneKeyEventMessagesE8TKeyCode @ 50 NONAME
	_ZN16CPhoneTwoSingles25HandleNumberEntryClearedLEv @ 51 NONAME
	_ZN16CPhoneTwoSingles25HandlePhoneEngineMessageLEii @ 52 NONAME
	_ZN16CPhoneTwoSingles26HandleConnectedConferenceLEi @ 53 NONAME
	_ZN16CPhoneTwoSinglesC1EP18MPhoneStateMachineP23MPhoneViewCommandHandleP19MPhoneCustomization @ 54 NONAME
	_ZN16CPhoneTwoSinglesC2EP18MPhoneStateMachineP23MPhoneViewCommandHandleP19MPhoneCustomization @ 55 NONAME
	_ZN16CPhoneTwoSinglesD0Ev @ 56 NONAME
	_ZN16CPhoneTwoSinglesD1Ev @ 57 NONAME
	_ZN16CPhoneTwoSinglesD2Ev @ 58 NONAME
	_ZN21CPhoneStateMachineGSM18CreatePhoneEngineLER14MEngineMonitor @ 59 NONAME
	_ZN21CPhoneStateMachineGSM5StateEv @ 60 NONAME
	_ZN21CPhoneStateMachineGSMC1EP23MPhoneViewCommandHandle @ 61 NONAME
	_ZN21CPhoneStateMachineGSMC2EP23MPhoneViewCommandHandle @ 62 NONAME
	_ZN21CPhoneStateMachineGSMD0Ev @ 63 NONAME
	_ZN21CPhoneStateMachineGSMD1Ev @ 64 NONAME
	_ZN21CPhoneStateMachineGSMD2Ev @ 65 NONAME
	_ZN22CPhoneSingleAndWaiting12HandleErrorLERK12TPEErrorInfo @ 66 NONAME
	_ZN25CPhoneResourceResolverGSM10ConstructLEv @ 67 NONAME
	_ZN25CPhoneResourceResolverGSMC1Ev @ 68 NONAME
	_ZN25CPhoneResourceResolverGSMC2Ev @ 69 NONAME
	_ZN25CPhoneResourceResolverGSMD0Ev @ 70 NONAME
	_ZN25CPhoneResourceResolverGSMD1Ev @ 71 NONAME
	_ZN25CPhoneResourceResolverGSMD2Ev @ 72 NONAME
	_ZN26CPhoneErrorMessagesHandler19SendGlobalInfoNoteLEii @ 73 NONAME
	_ZN26CPhoneErrorMessagesHandler20SendGlobalErrorNoteLEii @ 74 NONAME
	_ZN26CPhoneErrorMessagesHandler22SendGlobalWarningNoteLEii @ 75 NONAME
	_ZN26CPhoneErrorMessagesHandler22ShowErrorSpecificNoteLERK12TPEErrorInfo @ 76 NONAME
	_ZN26CPhoneErrorMessagesHandlerC1EP23MPhoneViewCommandHandleP18MPhoneStateMachine @ 77 NONAME
	_ZN26CPhoneErrorMessagesHandlerC2EP23MPhoneViewCommandHandleP18MPhoneStateMachine @ 78 NONAME
	_ZN26CPhoneErrorMessagesHandlerD0Ev @ 79 NONAME
	_ZN26CPhoneErrorMessagesHandlerD1Ev @ 80 NONAME
	_ZN26CPhoneErrorMessagesHandlerD2Ev @ 81 NONAME
	_ZN26CPhoneTwoSinglesAndWaiting12HandleErrorLERK12TPEErrorInfo @ 82 NONAME
	_ZNK16CPhoneSingleCall6CallIdEv @ 83 NONAME
	_ZNK25CPhoneResourceResolverGSM17ResolveResourceIDERKi @ 84 NONAME
	_ZTI10CPhoneIdle @ 85 NONAME
	_ZTI13CPhoneStartup @ 86 NONAME
	_ZTI14CPhoneAlerting @ 87 NONAME
	_ZTI14CPhoneIncoming @ 88 NONAME
	_ZTI15CPhoneCallSetup @ 89 NONAME
	_ZTI15CPhoneEmergency @ 90 NONAME
	_ZTI15CPhoneGsmInCall @ 91 NONAME
	_ZTI16CPhoneConference @ 92 NONAME
	_ZTI16CPhoneSingleCall @ 93 NONAME
	_ZTI16CPhoneTwoSingles @ 94 NONAME
	_ZTI21CPhoneStateMachineGSM @ 95 NONAME
	_ZTI22CPhoneSingleAndWaiting @ 96 NONAME
	_ZTI23CPhoneSingleAndAlerting @ 97 NONAME
	_ZTI24CPhoneSingleAndCallSetup @ 98 NONAME
	_ZTI25CPhoneCallSetupAndWaiting @ 99 NONAME
	_ZTI25CPhoneConferenceAndSingle @ 100 NONAME
	_ZTI25CPhoneResourceResolverGSM @ 101 NONAME
	_ZTI26CPhoneConferenceAndWaiting @ 102 NONAME
	_ZTI26CPhoneErrorMessagesHandler @ 103 NONAME
	_ZTI26CPhoneTwoSinglesAndWaiting @ 104 NONAME
	_ZTI28CPhoneConferenceAndCallSetup @ 105 NONAME
	_ZTI30CPhoneUIStateMachineFactoryGSM @ 106 NONAME
	_ZTI31CPhoneGeneralGsmMessagesHandler @ 107 NONAME
	_ZTI34CPhoneSingleAndCallSetupAndWaiting @ 108 NONAME
	_ZTI35CPhoneConferenceAndSingleAndWaiting @ 109 NONAME
	_ZTI38CPhoneConferenceAndWaitingAndCallSetup @ 110 NONAME
	_ZTV10CPhoneIdle @ 111 NONAME
	_ZTV13CPhoneStartup @ 112 NONAME
	_ZTV14CPhoneAlerting @ 113 NONAME
	_ZTV14CPhoneIncoming @ 114 NONAME
	_ZTV15CPhoneCallSetup @ 115 NONAME
	_ZTV15CPhoneEmergency @ 116 NONAME
	_ZTV15CPhoneGsmInCall @ 117 NONAME
	_ZTV16CPhoneConference @ 118 NONAME
	_ZTV16CPhoneSingleCall @ 119 NONAME
	_ZTV16CPhoneTwoSingles @ 120 NONAME
	_ZTV21CPhoneStateMachineGSM @ 121 NONAME
	_ZTV22CPhoneSingleAndWaiting @ 122 NONAME
	_ZTV23CPhoneSingleAndAlerting @ 123 NONAME
	_ZTV24CPhoneSingleAndCallSetup @ 124 NONAME
	_ZTV25CPhoneCallSetupAndWaiting @ 125 NONAME
	_ZTV25CPhoneConferenceAndSingle @ 126 NONAME
	_ZTV25CPhoneResourceResolverGSM @ 127 NONAME
	_ZTV26CPhoneConferenceAndWaiting @ 128 NONAME
	_ZTV26CPhoneErrorMessagesHandler @ 129 NONAME
	_ZTV26CPhoneTwoSinglesAndWaiting @ 130 NONAME
	_ZTV28CPhoneConferenceAndCallSetup @ 131 NONAME
	_ZTV30CPhoneUIStateMachineFactoryGSM @ 132 NONAME
	_ZTV31CPhoneGeneralGsmMessagesHandler @ 133 NONAME
	_ZTV34CPhoneSingleAndCallSetupAndWaiting @ 134 NONAME
	_ZTV35CPhoneConferenceAndSingleAndWaiting @ 135 NONAME
	_ZTV38CPhoneConferenceAndWaitingAndCallSetup @ 136 NONAME
	_ZThn12_N10CPhoneIdleD0Ev @ 137 NONAME
	_ZThn12_N10CPhoneIdleD1Ev @ 138 NONAME
	_ZThn12_N14CPhoneAlertingD0Ev @ 139 NONAME
	_ZThn12_N14CPhoneAlertingD1Ev @ 140 NONAME
	_ZThn12_N14CPhoneIncomingD0Ev @ 141 NONAME
	_ZThn12_N14CPhoneIncomingD1Ev @ 142 NONAME
	_ZThn12_N15CPhoneCallSetupD0Ev @ 143 NONAME
	_ZThn12_N15CPhoneCallSetupD1Ev @ 144 NONAME
	_ZThn12_N16CPhoneSingleCallD0Ev @ 145 NONAME
	_ZThn12_N16CPhoneSingleCallD1Ev @ 146 NONAME
	_ZThn12_N16CPhoneTwoSinglesD0Ev @ 147 NONAME
	_ZThn12_N16CPhoneTwoSinglesD1Ev @ 148 NONAME
	_ZThn16_N10CPhoneIdleD0Ev @ 149 NONAME
	_ZThn16_N10CPhoneIdleD1Ev @ 150 NONAME
	_ZThn16_N14CPhoneAlerting14HandleCommandLEi @ 151 NONAME
	_ZThn16_N14CPhoneAlertingD0Ev @ 152 NONAME
	_ZThn16_N14CPhoneAlertingD1Ev @ 153 NONAME
	_ZThn16_N14CPhoneIncomingD0Ev @ 154 NONAME
	_ZThn16_N14CPhoneIncomingD1Ev @ 155 NONAME
	_ZThn16_N15CPhoneCallSetupD0Ev @ 156 NONAME
	_ZThn16_N15CPhoneCallSetupD1Ev @ 157 NONAME
	_ZThn16_N15CPhoneGsmInCall14HandleCommandLEi @ 158 NONAME
	_ZThn16_N16CPhoneSingleCall14HandleCommandLEi @ 159 NONAME
	_ZThn16_N16CPhoneSingleCallD0Ev @ 160 NONAME
	_ZThn16_N16CPhoneSingleCallD1Ev @ 161 NONAME
	_ZThn16_N16CPhoneTwoSinglesD0Ev @ 162 NONAME
	_ZThn16_N16CPhoneTwoSinglesD1Ev @ 163 NONAME
	_ZThn20_N10CPhoneIdleD0Ev @ 164 NONAME
	_ZThn20_N10CPhoneIdleD1Ev @ 165 NONAME
	_ZThn20_N14CPhoneAlertingD0Ev @ 166 NONAME
	_ZThn20_N14CPhoneAlertingD1Ev @ 167 NONAME
	_ZThn20_N14CPhoneIncomingD0Ev @ 168 NONAME
	_ZThn20_N14CPhoneIncomingD1Ev @ 169 NONAME
	_ZThn20_N15CPhoneCallSetupD0Ev @ 170 NONAME
	_ZThn20_N15CPhoneCallSetupD1Ev @ 171 NONAME
	_ZThn20_N15CPhoneEmergency20HandleRemConCommandLE25TRemConCoreApiOperationId26TRemConCoreApiButtonAction @ 172 NONAME
	_ZThn20_N16CPhoneSingleCallD0Ev @ 173 NONAME
	_ZThn20_N16CPhoneSingleCallD1Ev @ 174 NONAME
	_ZThn20_N16CPhoneTwoSinglesD0Ev @ 175 NONAME
	_ZThn20_N16CPhoneTwoSinglesD1Ev @ 176 NONAME
	_ZThn24_N16CPhoneTwoSingles25HandleNumberEntryClearedLEv @ 177 NONAME
	_ZThn4_N10CPhoneIdle12HandleErrorLERK12TPEErrorInfo @ 178 NONAME
	_ZThn4_N10CPhoneIdle25HandlePhoneEngineMessageLEii @ 179 NONAME
	_ZThn4_N10CPhoneIdleD0Ev @ 180 NONAME
	_ZThn4_N10CPhoneIdleD1Ev @ 181 NONAME
	_ZThn4_N14CPhoneAlerting25HandlePhoneEngineMessageLEii @ 182 NONAME
	_ZThn4_N14CPhoneAlertingD0Ev @ 183 NONAME
	_ZThn4_N14CPhoneAlertingD1Ev @ 184 NONAME
	_ZThn4_N14CPhoneIncoming12HandleErrorLERK12TPEErrorInfo @ 185 NONAME
	_ZThn4_N14CPhoneIncoming25HandlePhoneEngineMessageLEii @ 186 NONAME
	_ZThn4_N14CPhoneIncomingD0Ev @ 187 NONAME
	_ZThn4_N14CPhoneIncomingD1Ev @ 188 NONAME
	_ZThn4_N15CPhoneCallSetup25HandlePhoneEngineMessageLEii @ 189 NONAME
	_ZThn4_N15CPhoneCallSetupD0Ev @ 190 NONAME
	_ZThn4_N15CPhoneCallSetupD1Ev @ 191 NONAME
	_ZThn4_N16CPhoneSingleCall25HandlePhoneEngineMessageLEii @ 192 NONAME
	_ZThn4_N16CPhoneSingleCallD0Ev @ 193 NONAME
	_ZThn4_N16CPhoneSingleCallD1Ev @ 194 NONAME
	_ZThn4_N16CPhoneTwoSingles25HandlePhoneEngineMessageLEii @ 195 NONAME
	_ZThn4_N16CPhoneTwoSinglesD0Ev @ 196 NONAME
	_ZThn4_N16CPhoneTwoSinglesD1Ev @ 197 NONAME
	_ZThn4_N21CPhoneStateMachineGSM18CreatePhoneEngineLER14MEngineMonitor @ 198 NONAME
	_ZThn4_N21CPhoneStateMachineGSM5StateEv @ 199 NONAME
	_ZThn4_N21CPhoneStateMachineGSMD0Ev @ 200 NONAME
	_ZThn4_N21CPhoneStateMachineGSMD1Ev @ 201 NONAME
	_ZThn4_N22CPhoneSingleAndWaiting12HandleErrorLERK12TPEErrorInfo @ 202 NONAME
	_ZThn4_N25CPhoneResourceResolverGSMD0Ev @ 203 NONAME
	_ZThn4_N25CPhoneResourceResolverGSMD1Ev @ 204 NONAME
	_ZThn4_N26CPhoneErrorMessagesHandler22ShowErrorSpecificNoteLERK12TPEErrorInfo @ 205 NONAME
	_ZThn4_N26CPhoneErrorMessagesHandlerD0Ev @ 206 NONAME
	_ZThn4_N26CPhoneErrorMessagesHandlerD1Ev @ 207 NONAME
	_ZThn4_N26CPhoneTwoSinglesAndWaiting12HandleErrorLERK12TPEErrorInfo @ 208 NONAME
	_ZThn4_NK25CPhoneResourceResolverGSM17ResolveResourceIDERKi @ 209 NONAME
	_ZThn8_N10CPhoneIdleD0Ev @ 210 NONAME
	_ZThn8_N10CPhoneIdleD1Ev @ 211 NONAME
	_ZThn8_N14CPhoneAlerting17HandleKeyMessageLEN15MPhoneKeyEvents22TPhoneKeyEventMessagesE8TKeyCode @ 212 NONAME
	_ZThn8_N14CPhoneAlertingD0Ev @ 213 NONAME
	_ZThn8_N14CPhoneAlertingD1Ev @ 214 NONAME
	_ZThn8_N14CPhoneIncomingD0Ev @ 215 NONAME
	_ZThn8_N14CPhoneIncomingD1Ev @ 216 NONAME
	_ZThn8_N15CPhoneCallSetupD0Ev @ 217 NONAME
	_ZThn8_N15CPhoneCallSetupD1Ev @ 218 NONAME
	_ZThn8_N16CPhoneSingleCall17HandleKeyMessageLEN15MPhoneKeyEvents22TPhoneKeyEventMessagesE8TKeyCode @ 219 NONAME
	_ZThn8_N16CPhoneSingleCallD0Ev @ 220 NONAME
	_ZThn8_N16CPhoneSingleCallD1Ev @ 221 NONAME
	_ZThn8_N16CPhoneTwoSingles17HandleKeyMessageLEN15MPhoneKeyEvents22TPhoneKeyEventMessagesE8TKeyCode @ 222 NONAME
	_ZThn8_N16CPhoneTwoSinglesD0Ev @ 223 NONAME
	_ZThn8_N16CPhoneTwoSinglesD1Ev @ 224 NONAME

