EXPORTS
	??0GlxSettingInterface@@IAE@XZ @ 1 NONAME ; GlxSettingInterface::GlxSettingInterface(void)
	?initTransitionEffect@GlxEffectEngine@@AAEXXZ @ 2 NONAME ; void GlxEffectEngine::initTransitionEffect(void)
	?transitionEffectFinished@GlxEffectEngine@@QAEXABUEffectStatus@HbEffect@@@Z @ 3 NONAME ; void GlxEffectEngine::transitionEffectFinished(struct HbEffect::EffectStatus const &)
	?metaObject@GlxEffectEngine@@UBEPBUQMetaObject@@XZ @ 4 NONAME ; struct QMetaObject const * GlxEffectEngine::metaObject(void) const
	??1GlxEffectEngine@@UAE@XZ @ 5 NONAME ; GlxEffectEngine::~GlxEffectEngine(void)
	??_EGlxEffectEngine@@UAE@I@Z @ 6 NONAME ; GlxEffectEngine::~GlxEffectEngine(unsigned int)
	?qt_metacast@GlxEffectEngine@@UAEPAXPBD@Z @ 7 NONAME ; void * GlxEffectEngine::qt_metacast(char const *)
	?isEffectRuning@GlxEffectEngine@@QAE_NABV?$QList@PAVQGraphicsItem@@@@@Z @ 8 NONAME ; bool GlxEffectEngine::isEffectRuning(class QList<class QGraphicsItem *> const &)
	?getStaticMetaObject@GlxEffectEngine@@SAABUQMetaObject@@XZ @ 9 NONAME ; struct QMetaObject const & GlxEffectEngine::getStaticMetaObject(void)
	?staticMetaObject@GlxEffectEngine@@2UQMetaObject@@B @ 10 NONAME ; struct QMetaObject const GlxEffectEngine::staticMetaObject
	?registerTransitionEffect@GlxEffectEngine@@QAEXXZ @ 11 NONAME ; void GlxEffectEngine::registerTransitionEffect(void)
	?cleanTransitionEfffect@GlxEffectEngine@@AAEXXZ @ 12 NONAME ; void GlxEffectEngine::cleanTransitionEfffect(void)
	?deregistertransitionEffect@GlxEffectEngine@@QAEXXZ @ 13 NONAME ; void GlxEffectEngine::deregistertransitionEffect(void)
	?instance@GlxSettingInterface@@SAPAV1@XZ @ 14 NONAME ; class GlxSettingInterface * GlxSettingInterface::instance(void)
	?trUtf8@GlxEffectEngine@@SA?AVQString@@PBD0H@Z @ 15 NONAME ; class QString GlxEffectEngine::trUtf8(char const *, char const *, int)
	?effectFinished@GlxEffectEngine@@IAEXXZ @ 16 NONAME ; void GlxEffectEngine::effectFinished(void)
	??0GlxEffectEngine@@QAE@XZ @ 17 NONAME ; GlxEffectEngine::GlxEffectEngine(void)
	?runEffect@GlxEffectEngine@@QAEXAAV?$QList@PAVQGraphicsItem@@@@W4GlxEffect@@@Z @ 18 NONAME ; void GlxEffectEngine::runEffect(class QList<class QGraphicsItem *> &, enum GlxEffect)
	??_EGlxSettingInterface@@UAE@I@Z @ 19 NONAME ; GlxSettingInterface::~GlxSettingInterface(unsigned int)
	?deRegisterEffect@GlxEffectEngine@@QAEXABVQString@@@Z @ 20 NONAME ; void GlxEffectEngine::deRegisterEffect(class QString const &)
	?runEffect@GlxEffectEngine@@QAEXAAV?$QList@PAVQGraphicsItem@@@@ABVQString@@@Z @ 21 NONAME ; void GlxEffectEngine::runEffect(class QList<class QGraphicsItem *> &, class QString const &)
	?trUtf8@GlxEffectEngine@@SA?AVQString@@PBD0@Z @ 22 NONAME ; class QString GlxEffectEngine::trUtf8(char const *, char const *)
	??0GlxSettingInterface@@IAE@AAV0@@Z @ 23 NONAME ; GlxSettingInterface::GlxSettingInterface(class GlxSettingInterface &)
	?cancelEffect@GlxEffectEngine@@QAEXAAV?$QList@PAVQGraphicsItem@@@@W4GlxEffect@@@Z @ 24 NONAME ; void GlxEffectEngine::cancelEffect(class QList<class QGraphicsItem *> &, enum GlxEffect)
	?tr@GlxEffectEngine@@SA?AVQString@@PBD0@Z @ 25 NONAME ; class QString GlxEffectEngine::tr(char const *, char const *)
	?isEffectRuning@GlxEffectEngine@@QAE_NPAVQGraphicsItem@@@Z @ 26 NONAME ; bool GlxEffectEngine::isEffectRuning(class QGraphicsItem *)
	?qt_metacall@GlxEffectEngine@@UAEHW4Call@QMetaObject@@HPAPAX@Z @ 27 NONAME ; int GlxEffectEngine::qt_metacall(enum QMetaObject::Call, int, void * *)
	?runEffect@GlxEffectEngine@@QAEXPAVQGraphicsItem@@ABVQString@@@Z @ 28 NONAME ; void GlxEffectEngine::runEffect(class QGraphicsItem *, class QString const &)
	?slideShowEffectFinished@GlxEffectEngine@@QAEXABUEffectStatus@HbEffect@@@Z @ 29 NONAME ; void GlxEffectEngine::slideShowEffectFinished(struct HbEffect::EffectStatus const &)
	?registerEffect@GlxEffectEngine@@QAEXABVQString@@@Z @ 30 NONAME ; void GlxEffectEngine::registerEffect(class QString const &)
	?cancelEffect@GlxEffectEngine@@QAEXABV?$QList@PAVQGraphicsItem@@@@@Z @ 31 NONAME ; void GlxEffectEngine::cancelEffect(class QList<class QGraphicsItem *> const &)
	?tr@GlxEffectEngine@@SA?AVQString@@PBD0H@Z @ 32 NONAME ; class QString GlxEffectEngine::tr(char const *, char const *, int)
	??1GlxSettingInterface@@MAE@XZ @ 33 NONAME ; GlxSettingInterface::~GlxSettingInterface(void)
	?cancelEffect@GlxEffectEngine@@QAEXPAVQGraphicsItem@@@Z @ 34 NONAME ; void GlxEffectEngine::cancelEffect(class QGraphicsItem *)

