EXPORTS
	?NewPhoneUIStateMachineFactoryL@@YAPAVCPhoneUIStateMachineFactoryBase@@XZ @ 1 NONAME ; class CPhoneUIStateMachineFactoryBase * NewPhoneUIStateMachineFactoryL(void)
	??1CPhoneResourceResolverGSM@@UAE@XZ @ 2 NONAME ; CPhoneResourceResolverGSM::~CPhoneResourceResolverGSM(void)
	?HandleKeyMessageL@CPhoneSingleCall@@UAEXW4TPhoneKeyEventMessages@MPhoneKeyEvents@@W4TKeyCode@@@Z @ 3 NONAME ; void CPhoneSingleCall::HandleKeyMessageL(enum MPhoneKeyEvents::TPhoneKeyEventMessages, enum TKeyCode)
	?ConstructL@CPhoneTwoSingles@@MAEXXZ @ 4 NONAME ; void CPhoneTwoSingles::ConstructL(void)
	??0CPhoneCallSetup@@IAE@PAVMPhoneStateMachine@@PAVMPhoneViewCommandHandle@@PAVMPhoneCustomization@@@Z @ 5 NONAME ; CPhoneCallSetup::CPhoneCallSetup(class MPhoneStateMachine *, class MPhoneViewCommandHandle *, class MPhoneCustomization *)
	?HandlePhoneEngineMessageL@CPhoneCallSetup@@UAEXHH@Z @ 6 NONAME ; void CPhoneCallSetup::HandlePhoneEngineMessageL(int, int)
	?HandleKeyMessageL@CPhoneAlerting@@MAEXW4TPhoneKeyEventMessages@MPhoneKeyEvents@@W4TKeyCode@@@Z @ 7 NONAME ; void CPhoneAlerting::HandleKeyMessageL(enum MPhoneKeyEvents::TPhoneKeyEventMessages, enum TKeyCode)
	?HandleCommandL@CPhoneAlerting@@MAEHH@Z @ 8 NONAME ; int CPhoneAlerting::HandleCommandL(int)
	?HandleKeyMessageL@CPhoneTwoSingles@@UAEXW4TPhoneKeyEventMessages@MPhoneKeyEvents@@W4TKeyCode@@@Z @ 9 NONAME ; void CPhoneTwoSingles::HandleKeyMessageL(enum MPhoneKeyEvents::TPhoneKeyEventMessages, enum TKeyCode)
	??1CPhoneSingleCall@@UAE@XZ @ 10 NONAME ; CPhoneSingleCall::~CPhoneSingleCall(void)
	??1CPhoneAlerting@@UAE@XZ @ 11 NONAME ; CPhoneAlerting::~CPhoneAlerting(void)
	??0CPhoneIncoming@@IAE@PAVMPhoneStateMachine@@PAVMPhoneViewCommandHandle@@PAVMPhoneCustomization@@@Z @ 12 NONAME ; CPhoneIncoming::CPhoneIncoming(class MPhoneStateMachine *, class MPhoneViewCommandHandle *, class MPhoneCustomization *)
	?HandleConnectedL@CPhoneAlerting@@IAEXH@Z @ 13 NONAME ; void CPhoneAlerting::HandleConnectedL(int)
	?ConstructL@CPhoneAlerting@@MAEXXZ @ 14 NONAME ; void CPhoneAlerting::ConstructL(void)
	??0CPhoneSingleCall@@IAE@PAVMPhoneStateMachine@@PAVMPhoneViewCommandHandle@@PAVMPhoneCustomization@@@Z @ 15 NONAME ; CPhoneSingleCall::CPhoneSingleCall(class MPhoneStateMachine *, class MPhoneViewCommandHandle *, class MPhoneCustomization *)
	??1CPhoneIncoming@@UAE@XZ @ 16 NONAME ; CPhoneIncoming::~CPhoneIncoming(void)
	?HandleCommandL@CPhoneSingleCall@@UAEHH@Z @ 17 NONAME ; int CPhoneSingleCall::HandleCommandL(int)
	?ConstructL@CPhoneIncoming@@MAEXXZ @ 18 NONAME ; void CPhoneIncoming::ConstructL(void)
	?HandlePhoneEngineMessageL@CPhoneSingleCall@@UAEXHH@Z @ 19 NONAME ; void CPhoneSingleCall::HandlePhoneEngineMessageL(int, int)
	??1CPhoneErrorMessagesHandler@@UAE@XZ @ 20 NONAME ; CPhoneErrorMessagesHandler::~CPhoneErrorMessagesHandler(void)
	?ConstructL@CPhoneCallSetup@@MAEXXZ @ 21 NONAME ; void CPhoneCallSetup::ConstructL(void)
	??0CPhoneErrorMessagesHandler@@IAE@PAVMPhoneViewCommandHandle@@PAVMPhoneStateMachine@@@Z @ 22 NONAME ; CPhoneErrorMessagesHandler::CPhoneErrorMessagesHandler(class MPhoneViewCommandHandle *, class MPhoneStateMachine *)
	?HandleErrorL@CPhoneTwoSinglesAndWaiting@@UAEXABUTPEErrorInfo@@@Z @ 23 NONAME ; void CPhoneTwoSinglesAndWaiting::HandleErrorL(struct TPEErrorInfo const &)
	??1CPhoneTwoSingles@@UAE@XZ @ 24 NONAME ; CPhoneTwoSingles::~CPhoneTwoSingles(void)
	?HandleDisconnectingL@CPhoneAlerting@@IAEXH@Z @ 25 NONAME ; void CPhoneAlerting::HandleDisconnectingL(int)
	?HandleCommandL@CPhoneGsmInCall@@MAEHH@Z @ 26 NONAME ; int CPhoneGsmInCall::HandleCommandL(int)
	?CreatePhoneEngineL@CPhoneStateMachineGSM@@UAEPAVMPEPhoneModel@@AAVMEngineMonitor@@@Z @ 27 NONAME ; class MPEPhoneModel * CPhoneStateMachineGSM::CreatePhoneEngineL(class MEngineMonitor &)
	?ResolveResourceID@CPhoneResourceResolverGSM@@UBEHABH@Z @ 28 NONAME ; int CPhoneResourceResolverGSM::ResolveResourceID(int const &) const
	?HandleErrorL@CPhoneIncoming@@UAEXABUTPEErrorInfo@@@Z @ 29 NONAME ; void CPhoneIncoming::HandleErrorL(struct TPEErrorInfo const &)
	??0CPhoneIdle@@IAE@PAVMPhoneStateMachine@@PAVMPhoneViewCommandHandle@@PAVMPhoneCustomization@@@Z @ 30 NONAME ; CPhoneIdle::CPhoneIdle(class MPhoneStateMachine *, class MPhoneViewCommandHandle *, class MPhoneCustomization *)
	?ShowErrorSpecificNoteL@CPhoneErrorMessagesHandler@@UAEXABUTPEErrorInfo@@@Z @ 31 NONAME ; void CPhoneErrorMessagesHandler::ShowErrorSpecificNoteL(struct TPEErrorInfo const &)
	??1CPhoneStateMachineGSM@@UAE@XZ @ 32 NONAME ; CPhoneStateMachineGSM::~CPhoneStateMachineGSM(void)
	?SendGlobalInfoNoteL@CPhoneErrorMessagesHandler@@IAEXHH@Z @ 33 NONAME ; void CPhoneErrorMessagesHandler::SendGlobalInfoNoteL(int, int)
	??0CPhoneStateMachineGSM@@IAE@PAVMPhoneViewCommandHandle@@@Z @ 34 NONAME ; CPhoneStateMachineGSM::CPhoneStateMachineGSM(class MPhoneViewCommandHandle *)
	?HandlePhoneEngineMessageL@CPhoneTwoSingles@@UAEXHH@Z @ 35 NONAME ; void CPhoneTwoSingles::HandlePhoneEngineMessageL(int, int)
	?HandlePhoneEngineMessageL@CPhoneAlerting@@UAEXHH@Z @ 36 NONAME ; void CPhoneAlerting::HandlePhoneEngineMessageL(int, int)
	?HandleRemConCommandL@CPhoneEmergency@@MAEHW4TRemConCoreApiOperationId@@W4TRemConCoreApiButtonAction@@@Z @ 37 NONAME ; int CPhoneEmergency::HandleRemConCommandL(enum TRemConCoreApiOperationId, enum TRemConCoreApiButtonAction)
	?ConstructL@CPhoneSingleCall@@MAEXXZ @ 38 NONAME ; void CPhoneSingleCall::ConstructL(void)
	?HandlePhoneEngineMessageL@CPhoneIncoming@@UAEXHH@Z @ 39 NONAME ; void CPhoneIncoming::HandlePhoneEngineMessageL(int, int)
	?State@CPhoneStateMachineGSM@@UAEPAVMPhoneState@@XZ @ 40 NONAME ; class MPhoneState * CPhoneStateMachineGSM::State(void)
	?SendGlobalErrorNoteL@CPhoneErrorMessagesHandler@@IAEXHH@Z @ 41 NONAME ; void CPhoneErrorMessagesHandler::SendGlobalErrorNoteL(int, int)
	?HandleErrorL@CPhoneIdle@@MAEXABUTPEErrorInfo@@@Z @ 42 NONAME ; void CPhoneIdle::HandleErrorL(struct TPEErrorInfo const &)
	?HandleConnectingL@CPhoneCallSetup@@MAEXH@Z @ 43 NONAME ; void CPhoneCallSetup::HandleConnectingL(int)
	?SendGlobalWarningNoteL@CPhoneErrorMessagesHandler@@IAEXHH@Z @ 44 NONAME ; void CPhoneErrorMessagesHandler::SendGlobalWarningNoteL(int, int)
	?HandleErrorL@CPhoneSingleAndWaiting@@MAEXABUTPEErrorInfo@@@Z @ 45 NONAME ; void CPhoneSingleAndWaiting::HandleErrorL(struct TPEErrorInfo const &)
	??0CPhoneResourceResolverGSM@@IAE@XZ @ 46 NONAME ; CPhoneResourceResolverGSM::CPhoneResourceResolverGSM(void)
	?ConstructL@CPhoneResourceResolverGSM@@IAEXXZ @ 47 NONAME ; void CPhoneResourceResolverGSM::ConstructL(void)
	?HandlePhoneEngineMessageL@CPhoneIdle@@UAEXHH@Z @ 48 NONAME ; void CPhoneIdle::HandlePhoneEngineMessageL(int, int)
	??1CPhoneIdle@@UAE@XZ @ 49 NONAME ; CPhoneIdle::~CPhoneIdle(void)
	??1CPhoneCallSetup@@UAE@XZ @ 50 NONAME ; CPhoneCallSetup::~CPhoneCallSetup(void)
	?ConstructL@CPhoneIdle@@MAEXXZ @ 51 NONAME ; void CPhoneIdle::ConstructL(void)
	??0CPhoneAlerting@@IAE@PAVMPhoneStateMachine@@PAVMPhoneViewCommandHandle@@PAVMPhoneCustomization@@@Z @ 52 NONAME ; CPhoneAlerting::CPhoneAlerting(class MPhoneStateMachine *, class MPhoneViewCommandHandle *, class MPhoneCustomization *)
	?HandleNumberEntryClearedL@CPhoneTwoSingles@@MAEXXZ @ 53 NONAME ; void CPhoneTwoSingles::HandleNumberEntryClearedL(void)
	?CheckIfShowCallTerminationNote@CPhoneAlerting@@MAEHXZ @ 54 NONAME ; int CPhoneAlerting::CheckIfShowCallTerminationNote(void)
	??0CPhoneTwoSingles@@IAE@PAVMPhoneStateMachine@@PAVMPhoneViewCommandHandle@@PAVMPhoneCustomization@@@Z @ 55 NONAME ; CPhoneTwoSingles::CPhoneTwoSingles(class MPhoneStateMachine *, class MPhoneViewCommandHandle *, class MPhoneCustomization *)
	?CallId@CPhoneSingleCall@@IBEHXZ @ 56 NONAME ; int CPhoneSingleCall::CallId(void) const
	?HandleConnectedConferenceL@CPhoneTwoSingles@@MAEXH@Z @ 57 NONAME ; void CPhoneTwoSingles::HandleConnectedConferenceL(int)

