EXPORTS
	_ZN13GlxAlbumModel10itemsAddedEii @ 1 NONAME
	_ZN13GlxAlbumModel11qt_metacallEN11QMetaObject4CallEiPPv @ 2 NONAME
	_ZN13GlxAlbumModel11qt_metacastEPKc @ 3 NONAME
	_ZN13GlxAlbumModel12itemUpdated1Ei16GlxTBContextType @ 4 NONAME
	_ZN13GlxAlbumModel12itemsRemovedEii @ 5 NONAME
	_ZN13GlxAlbumModel13setFocusIndexERK11QModelIndex @ 6 NONAME
	_ZN13GlxAlbumModel14setContextModeE14GlxContextMode @ 7 NONAME
	_ZN13GlxAlbumModel14updateItemIconEiP6HbIcon16GlxTBContextType @ 8 NONAME
	_ZN13GlxAlbumModel16setSelectedIndexERK11QModelIndex @ 9 NONAME
	_ZN13GlxAlbumModel16staticMetaObjectE @ 10 NONAME DATA 16
	_ZN13GlxAlbumModel19getStaticMetaObjectEv @ 11 NONAME
	_ZN13GlxAlbumModel7setDataERK11QModelIndexRK8QVarianti @ 12 NONAME
	_ZN13GlxAlbumModelC1ER12GlxModelParm @ 13 NONAME
	_ZN13GlxAlbumModelC2ER12GlxModelParm @ 14 NONAME
	_ZN13GlxAlbumModelD0Ev @ 15 NONAME
	_ZN13GlxAlbumModelD1Ev @ 16 NONAME
	_ZN13GlxAlbumModelD2Ev @ 17 NONAME
	_ZNK13GlxAlbumModel10metaObjectEv @ 18 NONAME
	_ZNK13GlxAlbumModel11columnCountERK11QModelIndex @ 19 NONAME
	_ZNK13GlxAlbumModel13getFocusIndexEv @ 20 NONAME
	_ZNK13GlxAlbumModel13iconAvailableEiP6HbIcon16GlxTBContextType @ 21 NONAME
	_ZNK13GlxAlbumModel18GetPreviewIconItemEi16GlxTBContextType @ 22 NONAME
	_ZNK13GlxAlbumModel4dataERK11QModelIndexi @ 23 NONAME
	_ZNK13GlxAlbumModel5indexEiiRK11QModelIndex @ 24 NONAME
	_ZNK13GlxAlbumModel6parentERK11QModelIndex @ 25 NONAME
	_ZNK13GlxAlbumModel8rowCountERK11QModelIndex @ 26 NONAME
	_ZTI13GlxAlbumModel @ 27 NONAME
	_ZTV13GlxAlbumModel @ 28 NONAME
	_ZN13GlxAlbumModel13listPopulatedEv @ 29 NONAME
	_ZN13GlxAlbumModel14modelPopulatedEv @ 30 NONAME
	_ZNK13GlxAlbumModel21getCorruptDefaultIconERK11QModelIndex @ 31 NONAME

