EXPORTS
	_ZN13GlxMediaModel10itemsAddedEii @ 1 NONAME
	_ZN13GlxMediaModel11itemUpdatedEi16GlxTBContextType @ 2 NONAME
	_ZN13GlxMediaModel11qt_metacallEN11QMetaObject4CallEiPPv @ 3 NONAME
	_ZN13GlxMediaModel11qt_metacastEPKc @ 4 NONAME
	_ZN13GlxMediaModel12itemsRemovedEii @ 5 NONAME
	_ZN13GlxMediaModel13itemCorruptedEi @ 6 NONAME
	_ZN13GlxMediaModel13setFocusIndexERK11QModelIndex @ 7 NONAME
	_ZN13GlxMediaModel14modelpopulatedEv @ 8 NONAME
	_ZN13GlxMediaModel14setContextModeE14GlxContextMode @ 9 NONAME
	_ZN13GlxMediaModel14updateItemIconEiP6HbIcon16GlxTBContextType @ 10 NONAME
	_ZN13GlxMediaModel16setSelectedIndexERK11QModelIndex @ 11 NONAME
	_ZN13GlxMediaModel16staticMetaObjectE @ 12 NONAME DATA 16
	_ZN13GlxMediaModel17albumTitleUpdatedE7QString @ 13 NONAME
	_ZN13GlxMediaModel17removeContextModeE14GlxContextMode @ 14 NONAME
	_ZN13GlxMediaModel17updateDetailItemsEv @ 15 NONAME
	_ZN13GlxMediaModel17updateDetailsViewEv @ 16 NONAME
	_ZN13GlxMediaModel18thumbnailPopulatedEv @ 17 NONAME
	_ZN13GlxMediaModel19albumTitleAvailableE7QString @ 18 NONAME
	_ZN13GlxMediaModel19getStaticMetaObjectEv @ 19 NONAME
	_ZN13GlxMediaModel23thumbnailPopulatedCheckEi @ 20 NONAME
	_ZN13GlxMediaModel7setDataERK11QModelIndexRK8QVarianti @ 21 NONAME
	_ZN13GlxMediaModel9populatedEv @ 22 NONAME
	_ZN13GlxMediaModelC1ER12GlxModelParm @ 23 NONAME
	_ZN13GlxMediaModelC2ER12GlxModelParm @ 24 NONAME
	_ZN13GlxMediaModelD0Ev @ 25 NONAME
	_ZN13GlxMediaModelD1Ev @ 26 NONAME
	_ZN13GlxMediaModelD2Ev @ 27 NONAME
	_ZNK13GlxMediaModel10metaObjectEv @ 28 NONAME
	_ZNK13GlxMediaModel11columnCountERK11QModelIndex @ 29 NONAME
	_ZNK13GlxMediaModel12itemPropertyERK11QModelIndexi @ 30 NONAME
	_ZNK13GlxMediaModel13GetFsIconItemEi16GlxTBContextType @ 31 NONAME
	_ZNK13GlxMediaModel13getFocusIndexEv @ 32 NONAME
	_ZNK13GlxMediaModel13iconAvailableEiP6HbIcon16GlxTBContextType @ 33 NONAME
	_ZNK13GlxMediaModel13itemImageDataERK11QModelIndexi @ 34 NONAME
	_ZNK13GlxMediaModel15GetGridIconItemEi16GlxTBContextType @ 35 NONAME
	_ZNK13GlxMediaModel17getFullScreenIconEi @ 36 NONAME
	_ZNK13GlxMediaModel18collectionPropertyEi @ 37 NONAME
	_ZNK13GlxMediaModel18getFullScreenImageEi @ 38 NONAME
	_ZNK13GlxMediaModel20gridToFullscreenIconEP6HbIconi @ 39 NONAME
	_ZNK13GlxMediaModel21getCorruptDefaultIconERK11QModelIndex @ 40 NONAME
	_ZNK13GlxMediaModel4dataERK11QModelIndexi @ 41 NONAME
	_ZNK13GlxMediaModel5indexEiiRK11QModelIndex @ 42 NONAME
	_ZNK13GlxMediaModel6parentERK11QModelIndex @ 43 NONAME
	_ZNK13GlxMediaModel8rowCountERK11QModelIndex @ 44 NONAME
	_ZTI13GlxMediaModel @ 45 NONAME
	_ZTV13GlxMediaModel @ 46 NONAME
	_ZN13GlxMediaModel21fullScreenDataChangedERK11QModelIndexS2_ @ 47 NONAME

