EXPORTS
	_ZN13OnlineHandler11qt_metacallEN11QMetaObject4CallEiPPv @ 1 NONAME
	_ZN13OnlineHandler11qt_metacastEPKc @ 2 NONAME
	_ZN13OnlineHandler12loadISPluginEi7QString @ 3 NONAME
	_ZN13OnlineHandler12readSettingsEv @ 4 NONAME
	_ZN13OnlineHandler12unloadPluginEv @ 5 NONAME
	_ZN13OnlineHandler13writeSettingsEi @ 6 NONAME
	_ZN13OnlineHandler14activatePluginERK7QString @ 7 NONAME
	_ZN13OnlineHandler14activatePluginEv @ 8 NONAME
	_ZN13OnlineHandler14pluginShutdownEb @ 9 NONAME
	_ZN13OnlineHandler15defaultProviderEi @ 10 NONAME
	_ZN13OnlineHandler15providerDetailsE7QString6HbIconi @ 11 NONAME
	_ZN13OnlineHandler16initializePluginEv @ 12 NONAME
	_ZN13OnlineHandler16loadSearchPluginERK7QString @ 13 NONAME
	_ZN13OnlineHandler16pluginIntializedEb @ 14 NONAME
	_ZN13OnlineHandler16staticMetaObjectE @ 15 NONAME DATA 16
	_ZN13OnlineHandler18backEventTriggeredEv @ 16 NONAME
	_ZN13OnlineHandler18isPluginIntializedEb @ 17 NONAME
	_ZN13OnlineHandler18setDefaultProviderEi @ 18 NONAME
	_ZN13OnlineHandler19getStaticMetaObjectEv @ 19 NONAME
	_ZN13OnlineHandler19isShutdownCompletedEb @ 20 NONAME
	_ZN13OnlineHandler19unloadPluginandExitEv @ 21 NONAME
	_ZN13OnlineHandler9backEventEv @ 22 NONAME
	_ZN13OnlineHandlerC1EP7QObject @ 23 NONAME
	_ZN13OnlineHandlerC2EP7QObject @ 24 NONAME
	_ZN13OnlineHandlerD0Ev @ 25 NONAME
	_ZN13OnlineHandlerD1Ev @ 26 NONAME
	_ZN13OnlineHandlerD2Ev @ 27 NONAME
	_ZNK13OnlineHandler10metaObjectEv @ 28 NONAME
	_ZTI13OnlineHandler @ 29 NONAME
	_ZTV13OnlineHandler @ 30 NONAME

