EXPORTS
	_Z24ImplementationGroupProxyRi @ 1 NONAME
	_ZN20CPrinterControlPoint10CancelJobLEP11CUpnpDeviceRK6TDesC8 @ 2 NONAME
	_ZN20CPrinterControlPoint10CancelJobLEi @ 3 NONAME
	_ZN20CPrinterControlPoint10CreateJobLEP11CUpnpDeviceRK6TDesC8S4_S4_S4_S4_S4_S4_S4_S4_i @ 4 NONAME
	_ZN20CPrinterControlPoint11GetMarginsLEP11CUpnpDeviceRK6TDesC8S4_ @ 5 NONAME
	_ZN20CPrinterControlPoint13GetMediaListLEP11CUpnpDeviceRK6TDesC8S4_ @ 6 NONAME
	_ZN20CPrinterControlPoint13StateUpdatedLEP12CUpnpService @ 7 NONAME
	_ZN20CPrinterControlPoint17DeviceDiscoveredLEP11CUpnpDevice @ 8 NONAME
	_ZN20CPrinterControlPoint17GetJobAttributesLEP11CUpnpDeviceRK6TDesC8 @ 9 NONAME
	_ZN20CPrinterControlPoint17PrintingFinishedLEP11CUpnpDevice @ 10 NONAME
	_ZN20CPrinterControlPoint18DeviceDisappearedLEP11CUpnpDevice @ 11 NONAME
	_ZN20CPrinterControlPoint21GetPrinterAttributesLEP11CUpnpDevice @ 12 NONAME
	_ZN20CPrinterControlPoint21HttpResponseReceivedLEP16CUpnpHttpMessage @ 13 NONAME
	_ZN20CPrinterControlPoint23ActionResponseReceivedLEP11CUpnpAction @ 14 NONAME
	_ZN20CPrinterControlPoint4NewLER12MPCPObserver @ 15 NONAME
	_ZN20CPrinterControlPointD0Ev @ 16 NONAME
	_ZN20CPrinterControlPointD1Ev @ 17 NONAME
	_ZN20CPrinterControlPointD2Ev @ 18 NONAME
	_ZTI19CUPnPPrintingDevice @ 19 NONAME ; #<TI>#
	_ZTI20CPrinterControlPoint @ 20 NONAME ; #<TI>#
	_ZTI20CUPFileSharingActive @ 21 NONAME ; #<TI>#
	_ZTV19CUPnPPrintingDevice @ 22 NONAME ; #<VT>#
	_ZTV20CPrinterControlPoint @ 23 NONAME ; #<VT>#
	_ZTV20CUPFileSharingActive @ 24 NONAME ; #<VT>#

