EXPORTS
	_ZN13VideoServices10titleReadyERK7QString @ 1 NONAME
	_ZN13VideoServices11qt_metacallEN11QMetaObject4CallEiPPv @ 2 NONAME
	_ZN13VideoServices11qt_metacastEPKc @ 3 NONAME
	_ZN13VideoServices12itemSelectedERK7QString @ 4 NONAME
	_ZN13VideoServices13browsingEndedEv @ 5 NONAME
	_ZN13VideoServices14currentServiceEv @ 6 NONAME
	_ZN13VideoServices16staticMetaObjectE @ 7 NONAME DATA 16
	_ZN13VideoServices17setCurrentServiceENS_13TVideoServiceE @ 8 NONAME
	_ZN13VideoServices19getStaticMetaObjectEv @ 9 NONAME
	_ZN13VideoServices22decreaseReferenceCountEv @ 10 NONAME
	_ZN13VideoServices6engineEv @ 11 NONAME
	_ZN13VideoServices8instanceEP17VideoPlayerEngine @ 12 NONAME
	_ZN13VideoServices9activatedEi @ 13 NONAME
	_ZN13VideoServices9mInstanceE @ 14 NONAME DATA 4
	_ZN13VideoServices9setEngineEP17VideoPlayerEngine @ 15 NONAME
	_ZN13VideoServicesC1EP17VideoPlayerEngine @ 16 NONAME
	_ZN13VideoServicesC2EP17VideoPlayerEngine @ 17 NONAME
	_ZN13VideoServicesD0Ev @ 18 NONAME
	_ZN13VideoServicesD1Ev @ 19 NONAME
	_ZN13VideoServicesD2Ev @ 20 NONAME
	_ZN17VideoPlayerEngine10handleQuitEv @ 21 NONAME
	_ZN17VideoPlayerEngine10initializeEv @ 22 NONAME
	_ZN17VideoPlayerEngine10shouldExitEv @ 23 NONAME
	_ZN17VideoPlayerEngine11connectViewEv @ 24 NONAME
	_ZN17VideoPlayerEngine11qt_metacallEN11QMetaObject4CallEiPPv @ 25 NONAME
	_ZN17VideoPlayerEngine11qt_metacastEPKc @ 26 NONAME
	_ZN17VideoPlayerEngine11serviceQuitEv @ 27 NONAME
	_ZN17VideoPlayerEngine11setEmbeddedEv @ 28 NONAME
	_ZN17VideoPlayerEngine12activateViewEN16MpxHbVideoCommon18MpxHbVideoViewTypeE @ 29 NONAME
	_ZN17VideoPlayerEngine13doDelayedLoadEv @ 30 NONAME
	_ZN17VideoPlayerEngine13handleCommandEi @ 31 NONAME
	_ZN17VideoPlayerEngine14disconnectViewEv @ 32 NONAME
	_ZN17VideoPlayerEngine14setCurrentViewEv @ 33 NONAME
	_ZN17VideoPlayerEngine15checkForUpdatesEv @ 34 NONAME
	_ZN17VideoPlayerEngine16applicationReadyEv @ 35 NONAME
	_ZN17VideoPlayerEngine16staticMetaObjectE @ 36 NONAME DATA 16
	_ZN17VideoPlayerEngine18createMissingViewsEv @ 37 NONAME
	_ZN17VideoPlayerEngine18createPlaybackViewEv @ 38 NONAME
	_ZN17VideoPlayerEngine19getStaticMetaObjectEv @ 39 NONAME
	_ZN17VideoPlayerEngine20isPlayServiceInvokedEv @ 40 NONAME
	_ZN17VideoPlayerEngine21handlePlaybackFailureEi @ 41 NONAME
	_ZN17VideoPlayerEngine23loadPluginAndCreateViewEN16MpxHbVideoCommon18MpxHbVideoViewTypeE @ 42 NONAME
	_ZN17VideoPlayerEngine28shouldActivateCollectionViewEv @ 43 NONAME
	_ZN17VideoPlayerEngine7playURIE7QString @ 44 NONAME
	_ZN17VideoPlayerEngine9playMediaE5RFile @ 45 NONAME
	_ZN17VideoPlayerEngine9playMediaE7QString @ 46 NONAME
	_ZN17VideoPlayerEngineC1Eb @ 47 NONAME
	_ZN17VideoPlayerEngineC2Eb @ 48 NONAME
	_ZN17VideoPlayerEngineD0Ev @ 49 NONAME
	_ZN17VideoPlayerEngineD1Ev @ 50 NONAME
	_ZN17VideoPlayerEngineD2Ev @ 51 NONAME
	_ZN18VideoActivityState15getActivityDataERK7QString @ 52 NONAME
	_ZN18VideoActivityState15setActivityDataERK8QVariantRK7QString @ 53 NONAME
	_ZN18VideoActivityState8instanceEv @ 54 NONAME
	_ZN18VideoActivityStateC1Ev @ 55 NONAME
	_ZN18VideoActivityStateC2Ev @ 56 NONAME
	_ZN18VideoActivityStateD0Ev @ 57 NONAME
	_ZN18VideoActivityStateD1Ev @ 58 NONAME
	_ZN18VideoActivityStateD2Ev @ 59 NONAME
	_ZNK13VideoServices10metaObjectEv @ 60 NONAME
	_ZNK13VideoServices12contextTitleEv @ 61 NONAME
	_ZNK13VideoServices17getBrowseCategoryEv @ 62 NONAME
	_ZNK13VideoServices8sortRoleEv @ 63 NONAME
	_ZNK17VideoPlayerEngine10metaObjectEv @ 64 NONAME
	_ZTI13VideoServices @ 65 NONAME
	_ZTI17VideoPlayerEngine @ 66 NONAME
	_ZTI18VideoActivityState @ 67 NONAME
	_ZTV13VideoServices @ 68 NONAME
	_ZTV17VideoPlayerEngine @ 69 NONAME
	_ZTV18VideoActivityState @ 70 NONAME

