EXPORTS
	?qt_metacast@MsgConversationBaseView@@UAEPAXPBD@Z @ 1 NONAME ; void * MsgConversationBaseView::qt_metacast(char const *)
	?metaObject@MsgConversationBaseView@@UBEPBUQMetaObject@@XZ @ 2 NONAME ; struct QMetaObject const * MsgConversationBaseView::metaObject(void) const
	?handleConversationIdChange@MsgConversationBaseView@@AAEX_J@Z @ 3 NONAME ; void MsgConversationBaseView::handleConversationIdChange(long long)
	?handleKeyEvent@MsgConversationBaseView@@UAE_NH@Z @ 4 NONAME ; bool MsgConversationBaseView::handleKeyEvent(int)
	?closeConversationView@MsgConversationBaseView@@QAEXXZ @ 5 NONAME ; void MsgConversationBaseView::closeConversationView(void)
	?trUtf8@MsgConversationBaseView@@SA?AVQString@@PBD0H@Z @ 6 NONAME ; class QString MsgConversationBaseView::trUtf8(char const *, char const *, int)
	?handleError@MsgConversationBaseView@@AAEXHABVQString@@@Z @ 7 NONAME ; void MsgConversationBaseView::handleError(int, class QString const &)
	?tr@MsgConversationBaseView@@SA?AVQString@@PBD0H@Z @ 8 NONAME ; class QString MsgConversationBaseView::tr(char const *, char const *, int)
	?hideChrome@MsgConversationBaseView@@AAEX_N@Z @ 9 NONAME ; void MsgConversationBaseView::hideChrome(bool)
	??0MsgConversationBaseView@@QAE@PAVQGraphicsItem@@@Z @ 10 NONAME ; MsgConversationBaseView::MsgConversationBaseView(class QGraphicsItem *)
	?handleOk@MsgConversationBaseView@@AAEXABVQVariant@@@Z @ 11 NONAME ; void MsgConversationBaseView::handleOk(class QVariant const &)
	?trUtf8@MsgConversationBaseView@@SA?AVQString@@PBD0@Z @ 12 NONAME ; class QString MsgConversationBaseView::trUtf8(char const *, char const *)
	?saveContentToDrafts@MsgConversationBaseView@@QAEHXZ @ 13 NONAME ; int MsgConversationBaseView::saveContentToDrafts(void)
	?setPSCVId@MsgConversationBaseView@@QAEX_N@Z @ 14 NONAME ; void MsgConversationBaseView::setPSCVId(bool)
	?doDelayedConstruction@MsgConversationBaseView@@AAEXXZ @ 15 NONAME ; void MsgConversationBaseView::doDelayedConstruction(void)
	?openConversation@MsgConversationBaseView@@QAEX_J@Z @ 16 NONAME ; void MsgConversationBaseView::openConversation(long long)
	?conversationId@MsgConversationBaseView@@QAE_JXZ @ 17 NONAME ; long long MsgConversationBaseView::conversationId(void)
	?staticMetaObject@MsgConversationBaseView@@2UQMetaObject@@B @ 18 NONAME ; struct QMetaObject const MsgConversationBaseView::staticMetaObject
	?conversationViewClosed@MsgConversationBaseView@@IAEXXZ @ 19 NONAME ; void MsgConversationBaseView::conversationViewClosed(void)
	?initView@MsgConversationBaseView@@AAEXXZ @ 20 NONAME ; void MsgConversationBaseView::initView(void)
	?markMessagesAsRead@MsgConversationBaseView@@QAEXXZ @ 21 NONAME ; void MsgConversationBaseView::markMessagesAsRead(void)
	?tr@MsgConversationBaseView@@SA?AVQString@@PBD0@Z @ 22 NONAME ; class QString MsgConversationBaseView::tr(char const *, char const *)
	?qt_metacall@MsgConversationBaseView@@UAEHW4Call@QMetaObject@@HPAPAX@Z @ 23 NONAME ; int MsgConversationBaseView::qt_metacall(enum QMetaObject::Call, int, void * *)
	?getStaticMetaObject@MsgConversationBaseView@@SAABUQMetaObject@@XZ @ 24 NONAME ; struct QMetaObject const & MsgConversationBaseView::getStaticMetaObject(void)
	??1MsgConversationBaseView@@UAE@XZ @ 25 NONAME ; MsgConversationBaseView::~MsgConversationBaseView(void)
	?handleViewReady@MsgConversationBaseView@@AAEXXZ @ 26 NONAME ; void MsgConversationBaseView::handleViewReady(void)
	??_EMsgConversationBaseView@@UAE@I@Z @ 27 NONAME ; MsgConversationBaseView::~MsgConversationBaseView(unsigned int)
	?clearContent@MsgConversationBaseView@@QAEXXZ @ 28 NONAME ; void MsgConversationBaseView::clearContent(void)

