EXPORTS
	?checkEmailOverSms@MsgSendUtil@@AAE_NAAVConvergedMessage@@AA_N@Z @ 1 NONAME ; bool MsgSendUtil::checkEmailOverSms(class ConvergedMessage &, bool &)
	?deleteVCardFromTemp@MsgContactsUtil@@CAXABVQString@@@Z @ 2 NONAME ; void MsgContactsUtil::deleteVCardFromTemp(class QString const &)
	?staticMetaObject@MsgServiceLaunchUtil@@2UQMetaObject@@B @ 3 NONAME ; struct QMetaObject const MsgServiceLaunchUtil::staticMetaObject
	??1MmsConformanceCheck@@UAE@XZ @ 4 NONAME ; MmsConformanceCheck::~MmsConformanceCheck(void)
	?metaObject@MsgServiceLaunchUtil@@UBEPBUQMetaObject@@XZ @ 5 NONAME ; struct QMetaObject const * MsgServiceLaunchUtil::metaObject(void) const
	?mediaDurationL@MsgMediaUtil@@AAEHABVTDesC16@@@Z @ 6 NONAME ; int MsgMediaUtil::mediaDurationL(class TDesC16 const &)
	??0MsgMediaUtil@@QAE@XZ @ 7 NONAME ; MsgMediaUtil::MsgMediaUtil(void)
	?trUtf8@MmsConformanceCheck@@SA?AVQString@@PBD0@Z @ 8 NONAME ; class QString MmsConformanceCheck::trUtf8(char const *, char const *)
	?qt_metacast@MsgSendUtil@@UAEPAXPBD@Z @ 9 NONAME ; void * MsgSendUtil::qt_metacast(char const *)
	?validateService@MsgSendUtil@@AAE_NPAVUniEditorPluginInterface@@_N@Z @ 10 NONAME ; bool MsgSendUtil::validateService(class UniEditorPluginInterface *, bool)
	?showPopup@MmsConformanceCheck@@AAEXABVQString@@@Z @ 11 NONAME ; void MmsConformanceCheck::showPopup(class QString const &)
	??0MsgSendUtil@@QAE@PAVQObject@@@Z @ 12 NONAME ; MsgSendUtil::MsgSendUtil(class QObject *)
	?metaObject@MsgSendUtil@@UBEPBUQMetaObject@@XZ @ 13 NONAME ; struct QMetaObject const * MsgSendUtil::metaObject(void) const
	?longestEmailAddressSize@MsgSendUtil@@AAEHV?$QList@PAVConvergedMessageAddress@@@@@Z @ 14 NONAME ; int MsgSendUtil::longestEmailAddressSize(class QList<class ConvergedMessageAddress *>)
	?getStaticMetaObject@MmsConformanceCheck@@SAABUQMetaObject@@XZ @ 15 NONAME ; struct QMetaObject const & MmsConformanceCheck::getStaticMetaObject(void)
	??_EMsgSendUtil@@UAE@I@Z @ 16 NONAME ; MsgSendUtil::~MsgSendUtil(unsigned int)
	?staticMetaObject@MsgSendUtil@@2UQMetaObject@@B @ 17 NONAME ; struct QMetaObject const MsgSendUtil::staticMetaObject
	??0MmsConformanceCheck@@QAE@XZ @ 18 NONAME ; MmsConformanceCheck::MmsConformanceCheck(void)
	?metaObject@MmsConformanceCheck@@UBEPBUQMetaObject@@XZ @ 19 NONAME ; struct QMetaObject const * MmsConformanceCheck::metaObject(void) const
	?trUtf8@MsgSendUtil@@SA?AVQString@@PBD0@Z @ 20 NONAME ; class QString MsgSendUtil::trUtf8(char const *, char const *)
	?qt_metacall@MmsConformanceCheck@@UAEHW4Call@QMetaObject@@HPAPAX@Z @ 21 NONAME ; int MmsConformanceCheck::qt_metacall(enum QMetaObject::Call, int, void * *)
	?handleError@MsgServiceLaunchUtil@@AAEXHABVQString@@@Z @ 22 NONAME ; void MsgServiceLaunchUtil::handleError(int, class QString const &)
	?getStaticMetaObject@MsgSendUtil@@SAABUQMetaObject@@XZ @ 23 NONAME ; struct QMetaObject const & MsgSendUtil::getStaticMetaObject(void)
	?getSmsMsgSize@MsgSendUtil@@AAEHAAVConvergedMessage@@@Z @ 24 NONAME ; int MsgSendUtil::getSmsMsgSize(class ConvergedMessage &)
	?tr@MsgServiceLaunchUtil@@SA?AVQString@@PBD0H@Z @ 25 NONAME ; class QString MsgServiceLaunchUtil::tr(char const *, char const *, int)
	??_EMsgServiceLaunchUtil@@UAE@I@Z @ 26 NONAME ; MsgServiceLaunchUtil::~MsgServiceLaunchUtil(unsigned int)
	??0MsgServiceLaunchUtil@@QAE@PAVQObject@@@Z @ 27 NONAME ; MsgServiceLaunchUtil::MsgServiceLaunchUtil(class QObject *)
	?tr@MsgSendUtil@@SA?AVQString@@PBD0H@Z @ 28 NONAME ; class QString MsgSendUtil::tr(char const *, char const *, int)
	?validateMsgForForward@MmsConformanceCheck@@QAE_NH@Z @ 29 NONAME ; bool MmsConformanceCheck::validateMsgForForward(int)
	?checkMaxMsgSizeLimit@MsgSendUtil@@AAE_NAAVConvergedMessage@@@Z @ 30 NONAME ; bool MsgSendUtil::checkMaxMsgSizeLimit(class ConvergedMessage &)
	?trUtf8@MmsConformanceCheck@@SA?AVQString@@PBD0H@Z @ 31 NONAME ; class QString MmsConformanceCheck::trUtf8(char const *, char const *, int)
	?tr@MmsConformanceCheck@@SA?AVQString@@PBD0H@Z @ 32 NONAME ; class QString MmsConformanceCheck::tr(char const *, char const *, int)
	??1MsgMediaUtil@@QAE@XZ @ 33 NONAME ; MsgMediaUtil::~MsgMediaUtil(void)
	?send@MsgSendUtil@@QAEHAAVConvergedMessage@@@Z @ 34 NONAME ; int MsgSendUtil::send(class ConvergedMessage &)
	?trUtf8@MsgServiceLaunchUtil@@SA?AVQString@@PBD0H@Z @ 35 NONAME ; class QString MsgServiceLaunchUtil::trUtf8(char const *, char const *, int)
	?trUtf8@MsgSendUtil@@SA?AVQString@@PBD0H@Z @ 36 NONAME ; class QString MsgSendUtil::trUtf8(char const *, char const *, int)
	?launchViaSharableFile@MsgServiceLaunchUtil@@AAEXABVQString@@@Z @ 37 NONAME ; void MsgServiceLaunchUtil::launchViaSharableFile(class QString const &)
	?isValidAddress@MsgSendUtil@@QAE_NABVQString@@@Z @ 38 NONAME ; bool MsgSendUtil::isValidAddress(class QString const &)
	?checkMaxRecipientCount@MsgSendUtil@@AAE_NAAVConvergedMessage@@@Z @ 39 NONAME ; bool MsgSendUtil::checkMaxRecipientCount(class ConvergedMessage &)
	?qt_metacast@MsgServiceLaunchUtil@@UAEPAXPBD@Z @ 40 NONAME ; void * MsgServiceLaunchUtil::qt_metacast(char const *)
	?copyVCardToTemp@MsgContactsUtil@@CA?AVQString@@ABV2@@Z @ 41 NONAME ; class QString MsgContactsUtil::copyVCardToTemp(class QString const &)
	?getMmsMsgSize@MsgSendUtil@@AAEHAAVConvergedMessage@@@Z @ 42 NONAME ; int MsgSendUtil::getMmsMsgSize(class ConvergedMessage &)
	?onDialogInsertMedia@MmsConformanceCheck@@AAEXPAVHbAction@@@Z @ 43 NONAME ; void MmsConformanceCheck::onDialogInsertMedia(class HbAction *)
	?checkModeForInsert@MmsConformanceCheck@@QAEHABVQString@@_N@Z @ 44 NONAME ; int MmsConformanceCheck::checkModeForInsert(class QString const &, bool)
	?qt_metacast@MmsConformanceCheck@@UAEPAXPBD@Z @ 45 NONAME ; void * MmsConformanceCheck::qt_metacast(char const *)
	?handleOk@MsgServiceLaunchUtil@@AAEXABVQVariant@@@Z @ 46 NONAME ; void MsgServiceLaunchUtil::handleOk(class QVariant const &)
	?launchContentViewer@MsgServiceLaunchUtil@@QAEXABVQString@@0@Z @ 47 NONAME ; void MsgServiceLaunchUtil::launchContentViewer(class QString const &, class QString const &)
	?trUtf8@MsgServiceLaunchUtil@@SA?AVQString@@PBD0@Z @ 48 NONAME ; class QString MsgServiceLaunchUtil::trUtf8(char const *, char const *)
	?tr@MsgServiceLaunchUtil@@SA?AVQString@@PBD0@Z @ 49 NONAME ; class QString MsgServiceLaunchUtil::tr(char const *, char const *)
	?tr@MmsConformanceCheck@@SA?AVQString@@PBD0@Z @ 50 NONAME ; class QString MmsConformanceCheck::tr(char const *, char const *)
	?getStaticMetaObject@MsgServiceLaunchUtil@@SAABUQMetaObject@@XZ @ 51 NONAME ; struct QMetaObject const & MsgServiceLaunchUtil::getStaticMetaObject(void)
	?staticMetaObject@MmsConformanceCheck@@2UQMetaObject@@B @ 52 NONAME ; struct QMetaObject const MmsConformanceCheck::staticMetaObject
	?tr@MsgSendUtil@@SA?AVQString@@PBD0@Z @ 53 NONAME ; class QString MsgSendUtil::tr(char const *, char const *)
	?saveToDrafts@MsgSendUtil@@QAEJAAVConvergedMessage@@@Z @ 54 NONAME ; long MsgSendUtil::saveToDrafts(class ConvergedMessage &)
	?launchVCardViewer@MsgContactsUtil@@SA_NABVQString@@@Z @ 55 NONAME ; bool MsgContactsUtil::launchVCardViewer(class QString const &)
	??1MsgServiceLaunchUtil@@UAE@XZ @ 56 NONAME ; MsgServiceLaunchUtil::~MsgServiceLaunchUtil(void)
	??_EMmsConformanceCheck@@UAE@I@Z @ 57 NONAME ; MmsConformanceCheck::~MmsConformanceCheck(unsigned int)
	?mediaDuration@MsgMediaUtil@@QAE?AVQString@@ABV2@@Z @ 58 NONAME ; class QString MsgMediaUtil::mediaDuration(class QString const &)
	?qt_metacall@MsgServiceLaunchUtil@@UAEHW4Call@QMetaObject@@HPAPAX@Z @ 59 NONAME ; int MsgServiceLaunchUtil::qt_metacall(enum QMetaObject::Call, int, void * *)
	??1MsgSendUtil@@UAE@XZ @ 60 NONAME ; MsgSendUtil::~MsgSendUtil(void)
	?qt_metacall@MsgSendUtil@@UAEHW4Call@QMetaObject@@HPAPAX@Z @ 61 NONAME ; int MsgSendUtil::qt_metacall(enum QMetaObject::Call, int, void * *)
	?launchContentViewer@MsgServiceLaunchUtil@@QAEXH@Z @ 62 NONAME ; void MsgServiceLaunchUtil::launchContentViewer(int)

