EXPORTS
	?fetchImages@MsgUnifiedEditorView@@AAEXXZ @ 1 NONAME ; void MsgUnifiedEditorView::fetchImages(void)
	?handleViewExtnActivated@MsgUnifiedEditorView@@AAEXPAVHbListWidgetItem@@@Z @ 2 NONAME ; void MsgUnifiedEditorView::handleViewExtnActivated(class HbListWidgetItem *)
	?fetchMessageFromStore@MsgUnifiedEditorView@@AAEXAAVConvergedMessageId@@W4MessageType@ConvergedMessage@@H@Z @ 3 NONAME ; void MsgUnifiedEditorView::fetchMessageFromStore(class ConvergedMessageId &, enum ConvergedMessage::MessageType, int)
	?onContentChanged@MsgUnifiedEditorView@@AAEXXZ @ 4 NONAME ; void MsgUnifiedEditorView::onContentChanged(void)
	?staticMetaObject@MsgUnifiedEditorView@@2UQMetaObject@@B @ 5 NONAME ; struct QMetaObject const MsgUnifiedEditorView::staticMetaObject
	?resizeEvent@MsgUnifiedEditorView@@MAEXPAVQGraphicsSceneResizeEvent@@@Z @ 6 NONAME ; void MsgUnifiedEditorView::resizeEvent(class QGraphicsSceneResizeEvent *)
	?ScaleImageL@CUniImageProcessor@@QAEXPAVCFbsBitmap@@0H@Z @ 7 NONAME ; void CUniImageProcessor::ScaleImageL(class CFbsBitmap *, class CFbsBitmap *, int)
	?vkbAboutToClose@MsgUnifiedEditorView@@AAEXXZ @ 8 NONAME ; void MsgUnifiedEditorView::vkbAboutToClose(void)
	?onDialogSmsSettings@MsgUnifiedEditorView@@AAEXPAVHbAction@@@Z @ 9 NONAME ; void MsgUnifiedEditorView::onDialogSmsSettings(class HbAction *)
	?addCcBcc@MsgUnifiedEditorView@@AAEXXZ @ 10 NONAME ; void MsgUnifiedEditorView::addCcBcc(void)
	?saveContentToDrafts@MsgUnifiedEditorView@@QAEHXZ @ 11 NONAME ; int MsgUnifiedEditorView::saveContentToDrafts(void)
	?generateFileName@MsgUnifiedEditorView@@AAE?AVQString@@AAV2@@Z @ 12 NONAME ; class QString MsgUnifiedEditorView::generateFileName(class QString &)
	?createVCards@MsgUnifiedEditorView@@AAEHABVQVariant@@AAVQStringList@@@Z @ 13 NONAME ; int MsgUnifiedEditorView::createVCards(class QVariant const &, class QStringList &)
	?addSubject@MsgUnifiedEditorView@@AAEXXZ @ 14 NONAME ; void MsgUnifiedEditorView::addSubject(void)
	?createTempFolder@MsgUnifiedEditorView@@AAE_NXZ @ 15 NONAME ; bool MsgUnifiedEditorView::createTempFolder(void)
	?imagesFetched@MsgUnifiedEditorView@@AAEXABVQVariant@@@Z @ 16 NONAME ; void MsgUnifiedEditorView::imagesFetched(class QVariant const &)
	?setFocus@MsgUnifiedEditorView@@AAEXPAVMsgUnifiedEditorBaseWidget@@@Z @ 17 NONAME ; void MsgUnifiedEditorView::setFocus(class MsgUnifiedEditorBaseWidget *)
	?serviceRequestError@MsgUnifiedEditorView@@AAEXHABVQString@@@Z @ 18 NONAME ; void MsgUnifiedEditorView::serviceRequestError(int, class QString const &)
	?isReplyPathBroken@MsgUnifiedEditorView@@AAE_NXZ @ 19 NONAME ; bool MsgUnifiedEditorView::isReplyPathBroken(void)
	?removeTempFolder@MsgUnifiedEditorView@@AAEXXZ @ 20 NONAME ; void MsgUnifiedEditorView::removeTempFolder(void)
	?vkbOpened@MsgUnifiedEditorView@@AAEXXZ @ 21 NONAME ; void MsgUnifiedEditorView::vkbOpened(void)
	?addMenu@MsgUnifiedEditorView@@AAEXXZ @ 22 NONAME ; void MsgUnifiedEditorView::addMenu(void)
	??_EMsgUnifiedEditorView@@UAE@I@Z @ 23 NONAME ; MsgUnifiedEditorView::~MsgUnifiedEditorView(unsigned int)
	?setAttachOptionEnabled@MsgUnifiedEditorView@@AAEXW4TBE_AttachOption@1@_N@Z @ 24 NONAME ; void MsgUnifiedEditorView::setAttachOptionEnabled(enum MsgUnifiedEditorView::TBE_AttachOption, bool)
	?ScaleImageL@CUniImageProcessor@@QAEXPAVCFbsBitmap@@AAVRFile@@ABVTSize@@ABVTDesC8@@H@Z @ 25 NONAME ; void CUniImageProcessor::ScaleImageL(class CFbsBitmap *, class RFile &, class TSize const &, class TDesC8 const &, int)
	?send@MsgUnifiedEditorView@@AAEXXZ @ 26 NONAME ; void MsgUnifiedEditorView::send(void)
	?populateContentIntoEditor@MsgUnifiedEditorView@@AAEXABVConvergedMessage@@_N@Z @ 27 NONAME ; void MsgUnifiedEditorView::populateContentIntoEditor(class ConvergedMessage const &, bool)
	?addToolBar@MsgUnifiedEditorView@@AAEXXZ @ 28 NONAME ; void MsgUnifiedEditorView::addToolBar(void)
	?onDialogDeleteMsg@MsgUnifiedEditorView@@AAEXPAVHbAction@@@Z @ 29 NONAME ; void MsgUnifiedEditorView::onDialogDeleteMsg(class HbAction *)
	?onAudioSelected@MsgUnifiedEditorView@@AAEXAAVQString@@@Z @ 30 NONAME ; void MsgUnifiedEditorView::onAudioSelected(class QString &)
	?fetchContacts@MsgUnifiedEditorView@@AAEXXZ @ 31 NONAME ; void MsgUnifiedEditorView::fetchContacts(void)
	?formatAddresses@MsgUnifiedEditorView@@AAEXAAV?$QList@PAVConvergedMessageAddress@@@@@Z @ 32 NONAME ; void MsgUnifiedEditorView::formatAddresses(class QList<class ConvergedMessageAddress *> &)
	?addAttachments@MsgUnifiedEditorView@@AAEXVQStringList@@@Z @ 33 NONAME ; void MsgUnifiedEditorView::addAttachments(class QStringList)
	??0CUniImageProcessor@@QAE@PAVMUniImageProcessorCallback@@@Z @ 34 NONAME ; CUniImageProcessor::CUniImageProcessor(class MUniImageProcessorCallback *)
	?fetchAudio@MsgUnifiedEditorView@@AAEXXZ @ 35 NONAME ; void MsgUnifiedEditorView::fetchAudio(void)
	?changePriority@MsgUnifiedEditorView@@AAEXXZ @ 36 NONAME ; void MsgUnifiedEditorView::changePriority(void)
	?qt_metacall@MsgUnifiedEditorView@@UAEHW4Call@QMetaObject@@HPAPAX@Z @ 37 NONAME ; int MsgUnifiedEditorView::qt_metacall(enum QMetaObject::Call, int, void * *)
	?updateOtherRecipientCount@MsgUnifiedEditorView@@AAEX_N@Z @ 38 NONAME ; void MsgUnifiedEditorView::updateOtherRecipientCount(bool)
	?addAttachment@MsgUnifiedEditorView@@AAEHABVQString@@@Z @ 39 NONAME ; int MsgUnifiedEditorView::addAttachment(class QString const &)
	?vkbAboutToOpen@MsgUnifiedEditorView@@AAEXXZ @ 40 NONAME ; void MsgUnifiedEditorView::vkbAboutToOpen(void)
	?doDelayedConstruction@MsgUnifiedEditorView@@AAEXXZ @ 41 NONAME ; void MsgUnifiedEditorView::doDelayedConstruction(void)
	?activateInputBlocker@MsgUnifiedEditorView@@AAEXXZ @ 42 NONAME ; void MsgUnifiedEditorView::activateInputBlocker(void)
	?onDialogMmsSettings@MsgUnifiedEditorView@@AAEXPAVHbAction@@@Z @ 43 NONAME ; void MsgUnifiedEditorView::onDialogMmsSettings(class HbAction *)
	?populateContent@MsgUnifiedEditorView@@QAEXABV?$QList@VQVariant@@@@@Z @ 44 NONAME ; void MsgUnifiedEditorView::populateContent(class QList<class QVariant> const &)
	?ProcessImageL@CUniImageProcessor@@QAEXAAVRFile@@0AAVTSize@@ABVTDesC8@@HH@Z @ 45 NONAME ; void CUniImageProcessor::ProcessImageL(class RFile &, class RFile &, class TSize &, class TDesC8 const &, int, int)
	?metaObject@MsgUnifiedEditorView@@UBEPBUQMetaObject@@XZ @ 46 NONAME ; struct QMetaObject const * MsgUnifiedEditorView::metaObject(void) const
	?vkbClosed@MsgUnifiedEditorView@@AAEXXZ @ 47 NONAME ; void MsgUnifiedEditorView::vkbClosed(void)
	?qt_metacast@MsgUnifiedEditorView@@UAEPAXPBD@Z @ 48 NONAME ; void * MsgUnifiedEditorView::qt_metacast(char const *)
	?enableSendButton@MsgUnifiedEditorView@@AAEX_N@Z @ 49 NONAME ; void MsgUnifiedEditorView::enableSendButton(bool)
	?ScaleImageL@CUniImageProcessor@@QAEXAAVRFile@@AAPAVCFbsBitmap@@1AAVTSize@@H@Z @ 50 NONAME ; void CUniImageProcessor::ScaleImageL(class RFile &, class CFbsBitmap * &, class CFbsBitmap * &, class TSize &, int)
	?handleKeyEvent@MsgUnifiedEditorView@@UAE_NH@Z @ 51 NONAME ; bool MsgUnifiedEditorView::handleKeyEvent(int)
	?initView@MsgUnifiedEditorView@@AAEXXZ @ 52 NONAME ; void MsgUnifiedEditorView::initView(void)
	?packMessage@MsgUnifiedEditorView@@AAEHAAVConvergedMessage@@_N@Z @ 53 NONAME ; int MsgUnifiedEditorView::packMessage(class ConvergedMessage &, bool)
	??1MsgUnifiedEditorView@@UAE@XZ @ 54 NONAME ; MsgUnifiedEditorView::~MsgUnifiedEditorView(void)
	?hideChrome@MsgUnifiedEditorView@@AAEX_N@Z @ 55 NONAME ; void MsgUnifiedEditorView::hideChrome(bool)
	?getStaticMetaObject@MsgUnifiedEditorView@@SAABUQMetaObject@@XZ @ 56 NONAME ; struct QMetaObject const & MsgUnifiedEditorView::getStaticMetaObject(void)
	?tr@MsgUnifiedEditorView@@SA?AVQString@@PBD0@Z @ 57 NONAME ; class QString MsgUnifiedEditorView::tr(char const *, char const *)
	?trUtf8@MsgUnifiedEditorView@@SA?AVQString@@PBD0@Z @ 58 NONAME ; class QString MsgUnifiedEditorView::trUtf8(char const *, char const *)
	?tr@MsgUnifiedEditorView@@SA?AVQString@@PBD0H@Z @ 59 NONAME ; class QString MsgUnifiedEditorView::tr(char const *, char const *, int)
	?Reset@CUniImageProcessor@@QAEXXZ @ 60 NONAME ; void CUniImageProcessor::Reset(void)
	?openDraftsMessage@MsgUnifiedEditorView@@QAEXABV?$QList@VQVariant@@@@@Z @ 61 NONAME ; void MsgUnifiedEditorView::openDraftsMessage(class QList<class QVariant> const &)
	?contactsFetched@MsgUnifiedEditorView@@AAEXABVQVariant@@@Z @ 62 NONAME ; void MsgUnifiedEditorView::contactsFetched(class QVariant const &)
	?removeAttachmentContainer@MsgUnifiedEditorView@@AAEXXZ @ 63 NONAME ; void MsgUnifiedEditorView::removeAttachmentContainer(void)
	??0MsgUnifiedEditorView@@QAE@PAVQGraphicsItem@@@Z @ 64 NONAME ; MsgUnifiedEditorView::MsgUnifiedEditorView(class QGraphicsItem *)
	?trUtf8@MsgUnifiedEditorView@@SA?AVQString@@PBD0H@Z @ 65 NONAME ; class QString MsgUnifiedEditorView::trUtf8(char const *, char const *, int)
	?deleteMessage@MsgUnifiedEditorView@@AAEXXZ @ 66 NONAME ; void MsgUnifiedEditorView::deleteMessage(void)
	?deactivateInputBlocker@MsgUnifiedEditorView@@AAEXXZ @ 67 NONAME ; void MsgUnifiedEditorView::deactivateInputBlocker(void)

