EXPORTS
	?trUtf8@UnifiedViewer@@SA?AVQString@@PBD0@Z @ 1 NONAME ; class QString UnifiedViewer::trUtf8(char const *, char const *)
	?handleReplyAction@UnifiedViewer@@AAEXXZ @ 2 NONAME ; void UnifiedViewer::handleReplyAction(void)
	?handleDeleteAction@UnifiedViewer@@QAEXXZ @ 3 NONAME ; void UnifiedViewer::handleDeleteAction(void)
	?metaObject@UnifiedViewer@@UBEPBUQMetaObject@@XZ @ 4 NONAME ; struct QMetaObject const * UnifiedViewer::metaObject(void) const
	?sendMessage@UnifiedViewer@@AAEXABVQString@@0@Z @ 5 NONAME ; void UnifiedViewer::sendMessage(class QString const &, class QString const &)
	?resizeEvent@UnifiedViewer@@MAEXPAVQGraphicsSceneResizeEvent@@@Z @ 6 NONAME ; void UnifiedViewer::resizeEvent(class QGraphicsSceneResizeEvent *)
	??0UnifiedViewer@@QAE@HPAVQGraphicsItem@@@Z @ 7 NONAME ; UnifiedViewer::UnifiedViewer(int, class QGraphicsItem *)
	?isForwardOk@UnifiedViewer@@AAE_NXZ @ 8 NONAME ; bool UnifiedViewer::isForwardOk(void)
	?handleFwdAction@UnifiedViewer@@QAEXXZ @ 9 NONAME ; void UnifiedViewer::handleFwdAction(void)
	?qt_metacast@UnifiedViewer@@UAEPAXPBD@Z @ 10 NONAME ; void * UnifiedViewer::qt_metacast(char const *)
	?onDialogDeleteMsg@UnifiedViewer@@AAEXH@Z @ 11 NONAME ; void UnifiedViewer::onDialogDeleteMsg(int)
	?handleKeyEvent@UnifiedViewer@@UAE_NH@Z @ 12 NONAME ; bool UnifiedViewer::handleKeyEvent(int)
	?createToolBar@UnifiedViewer@@AAEXXZ @ 13 NONAME ; void UnifiedViewer::createToolBar(void)
	??1UnifiedViewer@@UAE@XZ @ 14 NONAME ; UnifiedViewer::~UnifiedViewer(void)
	?populateContent@UnifiedViewer@@QAEXH_NH_J@Z @ 15 NONAME ; void UnifiedViewer::populateContent(int, bool, int, long long)
	??_EUnifiedViewer@@UAE@I@Z @ 16 NONAME ; UnifiedViewer::~UnifiedViewer(unsigned int)
	?qt_metacall@UnifiedViewer@@UAEHW4Call@QMetaObject@@HPAPAX@Z @ 17 NONAME ; int UnifiedViewer::qt_metacall(enum QMetaObject::Call, int, void * *)
	?tr@UnifiedViewer@@SA?AVQString@@PBD0@Z @ 18 NONAME ; class QString UnifiedViewer::tr(char const *, char const *)
	?getStaticMetaObject@UnifiedViewer@@SAABUQMetaObject@@XZ @ 19 NONAME ; struct QMetaObject const & UnifiedViewer::getStaticMetaObject(void)
	?staticMetaObject@UnifiedViewer@@2UQMetaObject@@B @ 20 NONAME ; struct QMetaObject const UnifiedViewer::staticMetaObject
	?call@UnifiedViewer@@AAEXABVQString@@@Z @ 21 NONAME ; void UnifiedViewer::call(class QString const &)
	?handleReplyAllAction@UnifiedViewer@@AAEXXZ @ 22 NONAME ; void UnifiedViewer::handleReplyAllAction(void)
	?trUtf8@UnifiedViewer@@SA?AVQString@@PBD0H@Z @ 23 NONAME ; class QString UnifiedViewer::trUtf8(char const *, char const *, int)
	?clearContent@UnifiedViewer@@QAEXXZ @ 24 NONAME ; void UnifiedViewer::clearContent(void)
	?launchEditor@UnifiedViewer@@AAEXW4UniEditorOperation@MsgBaseView@@@Z @ 25 NONAME ; void UnifiedViewer::launchEditor(enum MsgBaseView::UniEditorOperation)
	?tr@UnifiedViewer@@SA?AVQString@@PBD0H@Z @ 26 NONAME ; class QString UnifiedViewer::tr(char const *, char const *, int)

