EXPORTS
	_ZN12CImapSession10EnterIdleLER14TRequestStatus @ 1 NONAME
	_ZN12CImapSession10FetchBodyLER14TRequestStatusjiR14CFetchBodyInfoR22CImapFetchBodyResponse @ 2 NONAME
	_ZN12CImapSession10SubscribeLER14TRequestStatusRK7TDesC16 @ 3 NONAME
	_ZN12CImapSession11CapabilityLER14TRequestStatus @ 4 NONAME
	_ZN12CImapSession11FetchFlagsLER14TRequestStatusRK6TDesC8R6RArrayI16TMessageFlagInfoE @ 5 NONAME
	_ZN12CImapSession11ServerStateEv @ 6 NONAME
	_ZN12CImapSession12UnsubscribeLER14TRequestStatusRK7TDesC16 @ 7 NONAME
	_ZN12CImapSession14CapabilityInfoEv @ 8 NONAME
	_ZN12CImapSession16WaitForIdleEventER14TRequestStatus @ 9 NONAME
	_ZN12CImapSession18SelectedFolderInfoEv @ 10 NONAME
	_ZN12CImapSession18ServerGreetingInfoEv @ 11 NONAME
	_ZN12CImapSession19CreateSequenceSetLCER6RArrayIjE @ 12 NONAME
	_ZN12CImapSession19ReadServerGreetingLER14TRequestStatus @ 13 NONAME
	_ZN12CImapSession19WaitForServerEventLER14TRequestStatus @ 14 NONAME
	_ZN12CImapSession21FlushCancelledCommandER14TRequestStatus @ 15 NONAME
	_ZN12CImapSession29FetchBodyStructureAndHeadersLER14TRequestStatusRK6TDesC8S4_R27MImapFetchStructureObserver @ 16 NONAME
	_ZN12CImapSession29FetchBodyStructureAndHeadersLER14TRequestStatusjRK6TDesC8R18CImapFetchResponse @ 17 NONAME
	_ZN12CImapSession4NewLER13CImapSettingsR14CImapMailStoreR12MInputStreamR13MOutputStream @ 18 NONAME
	_ZN12CImapSession5CopyLER14TRequestStatusRK6TDesC8RK7TDesC16 @ 19 NONAME
	_ZN12CImapSession5ListLER14TRequestStatusRK7TDesC16S4_R13RPointerArrayI19CImapListFolderInfoE @ 20 NONAME
	_ZN12CImapSession5LsubLER14TRequestStatusRK7TDesC16S4_R13RPointerArrayI19CImapListFolderInfoE @ 21 NONAME
	_ZN12CImapSession5NoopLER14TRequestStatus @ 22 NONAME
	_ZN12CImapSession6CancelEv @ 23 NONAME
	_ZN12CImapSession6CloseLER14TRequestStatus @ 24 NONAME
	_ZN12CImapSession6LoginLER14TRequestStatusRK6TDesC8S4_ @ 25 NONAME
	_ZN12CImapSession6StoreLER14TRequestStatusRK6TDesC8S4_S4_iR6RArrayI16TMessageFlagInfoE @ 26 NONAME
	_ZN12CImapSession7AppendLER14TRequestStatusR14CImSendMessageRK7TDesC16 @ 27 NONAME
	_ZN12CImapSession7CreateLER14TRequestStatusRK7TDesC16 @ 28 NONAME
	_ZN12CImapSession7DeleteLER14TRequestStatusRK7TDesC16 @ 29 NONAME
	_ZN12CImapSession7LogoutLER14TRequestStatus @ 30 NONAME
	_ZN12CImapSession7RenameLER14TRequestStatusRK7TDesC16S4_ @ 31 NONAME
	_ZN12CImapSession7SearchLER14TRequestStatusRK6TDesC8R6RArrayIjE @ 32 NONAME
	_ZN12CImapSession7SelectLER14TRequestStatusP15CImapFolderInfoi @ 33 NONAME
	_ZN12CImapSession7StatusLER14TRequestStatusRK7TDesC16RK6TDesC8R15CImapFolderInfo @ 34 NONAME
	_ZN12CImapSession8DoneIdleER14TRequestStatus @ 35 NONAME
	_ZN12CImapSession8ExamineLER14TRequestStatusP15CImapFolderInfo @ 36 NONAME
	_ZN12CImapSession8ExpungeLER14TRequestStatus @ 37 NONAME
	_ZN12CImapSession9StartTlsLER14TRequestStatus @ 38 NONAME
	_ZN13CImapEnvelope10EnvReplyToEv @ 39 NONAME
	_ZN13CImapEnvelope10EnvSubjectEv @ 40 NONAME
	_ZN13CImapEnvelope12EnvInReplyToEv @ 41 NONAME
	_ZN13CImapEnvelope12EnvMessageIdEv @ 42 NONAME
	_ZN13CImapEnvelope5EnvCcEv @ 43 NONAME
	_ZN13CImapEnvelope5EnvToEv @ 44 NONAME
	_ZN13CImapEnvelope6EnvBccEv @ 45 NONAME
	_ZN13CImapEnvelope7EnvDateEv @ 46 NONAME
	_ZN13CImapEnvelope7EnvFromEv @ 47 NONAME
	_ZN13CImapEnvelope9EnvSenderEv @ 48 NONAME
	_ZN15CImapFolderInfo16ExpungedMessagesEv @ 49 NONAME
	_ZN15CImapFolderInfo21ResetExpungedMessagesEv @ 50 NONAME
	_ZN15CImapFolderInfo22SetMessageFlagsChangedEi @ 51 NONAME
	_ZN15CImapFolderInfo4NewLEv @ 52 NONAME
	_ZN15CImapFolderInfo8SetMsvIdEl @ 53 NONAME
	_ZN15CImapFolderInfo8SetNameLERK7TDesC16 @ 54 NONAME
	_ZN15CImapFolderInfo9SetRecentEi @ 55 NONAME
	_ZN16TMessageFlagInfo9QueryFlagENS_17TImapMessageFlagsE @ 56 NONAME
	_ZN18CImapBodyStructure27GetRfc822EnvelopeStructureLEv @ 57 NONAME
	_ZN18CImapFetchResponse12HeaderFieldsEv @ 58 NONAME
	_ZN18CImapFetchResponse13BodyStructureEv @ 59 NONAME
	_ZN18CImapFetchResponse15MessageFlagInfoEv @ 60 NONAME
	_ZN18CImapFetchResponse4NewLEv @ 61 NONAME
	_ZN19CImapCapabilityInfo4NewLEv @ 62 NONAME
	_ZN19CImapCapabilityInfo7SetFlagENS_20TImapCapabilityFlagsEi @ 63 NONAME
	_ZN19CImapListFolderInfo9QueryFlagENS_14TIMapListFlagsE @ 64 NONAME
	_ZN19CImapSessionManager10DisconnectER14TRequestStatusRK13RPointerArrayI12CImapSessionE @ 65 NONAME
	_ZN19CImapSessionManager10DisconnectERK12CImapSession @ 66 NONAME
	_ZN19CImapSessionManager10DisconnectERK13RPointerArrayI12CImapSessionE @ 67 NONAME
	_ZN19CImapSessionManager11GetSessionLER14TRequestStatusRP12CImapSession @ 68 NONAME
	_ZN19CImapSessionManager13HasConnectionEv @ 69 NONAME
	_ZN19CImapSessionManager14GetConnectionLEv @ 70 NONAME
	_ZN19CImapSessionManager25LastSocketActivityTimeoutEv @ 71 NONAME
	_ZN19CImapSessionManager4NewLER13CImapSettingsR14CImapMailStore @ 72 NONAME
	_ZN19CImapSessionManager8ProgressER21TImap4GenericProgress @ 73 NONAME
	_ZN21CImapMimeHeaderFields10FieldValueENS_13THeaderFieldsE @ 74 NONAME
	_ZN21CImapMimeHeaderFields11FieldExistsENS_13THeaderFieldsE @ 75 NONAME
	_ZN22CImapFetchBodyResponse12HeaderFieldsEv @ 76 NONAME
	_ZN22CImapFetchBodyResponse15MessageFlagInfoEv @ 77 NONAME
	_ZN22CImapFetchBodyResponse4NewLEv @ 78 NONAME
	_ZN23CImapRfc822HeaderFields10FieldValueENS_13THeaderFieldsE @ 79 NONAME
	_ZN23CImapRfc822HeaderFields11FieldExistsENS_13THeaderFieldsE @ 80 NONAME
	_ZN23CImapRfc822HeaderFields18ReturnReceiptFieldEv @ 81 NONAME
	_ZN23CImapRfc822HeaderFields4DateEv @ 82 NONAME
	_ZN23CImapRfc822HeaderFields9PriorityLEv @ 83 NONAME
	_ZN23CImapServerGreetingInfo14SetResponseTagENS_12TResponseTagE @ 84 NONAME
	_ZN23CImapServerGreetingInfo4NewLEv @ 85 NONAME
	_ZNK12CImapSession17ImapIdleSupportedEv @ 86 NONAME
	_ZNK12CImapSession5LogIdEv @ 87 NONAME
	_ZNK13CImapEnvelope8TAddress20CreateAddressStringLEv @ 88 NONAME
	_ZNK15CImapFolderInfo11UidValidityEv @ 89 NONAME
	_ZNK15CImapFolderInfo12GetReadWriteEv @ 90 NONAME
	_ZNK15CImapFolderInfo19MessageFlagsChangedEv @ 91 NONAME
	_ZNK15CImapFolderInfo4NameEv @ 92 NONAME
	_ZNK15CImapFolderInfo5MsvIdEv @ 93 NONAME
	_ZNK15CImapFolderInfo6ExistsEv @ 94 NONAME
	_ZNK15CImapFolderInfo6RecentEv @ 95 NONAME
	_ZNK15CImapFolderInfo6UnseenEv @ 96 NONAME
	_ZNK15CImapFolderInfo7UidNextEv @ 97 NONAME
	_ZNK15CImapFolderInfo8MessagesEv @ 98 NONAME
	_ZNK15CImapFolderInfo9QueryFlagENS_17TIMapMailboxFlagsE @ 99 NONAME
	_ZNK16TMessageFlagInfo10MessageUidEv @ 100 NONAME
	_ZNK18CImapBodyStructure11ExtLocationEv @ 101 NONAME
	_ZNK18CImapBodyStructure12BodyEncodingEv @ 102 NONAME
	_ZNK18CImapBodyStructure13ParameterListEv @ 103 NONAME
	_ZNK18CImapBodyStructure14BodySizeOctetsEv @ 104 NONAME
	_ZNK18CImapBodyStructure15BodyDescriptionEv @ 105 NONAME
	_ZNK18CImapBodyStructure15ExtLanguageListEv @ 106 NONAME
	_ZNK18CImapBodyStructure17BodyStructureTypeEv @ 107 NONAME
	_ZNK18CImapBodyStructure18ExtDispositionNameEv @ 108 NONAME
	_ZNK18CImapBodyStructure25EmbeddedBodyStructureListEv @ 109 NONAME
	_ZNK18CImapBodyStructure27ExtDispositionParameterListEv @ 110 NONAME
	_ZNK18CImapBodyStructure4TypeEv @ 111 NONAME
	_ZNK18CImapBodyStructure6BodyIdEv @ 112 NONAME
	_ZNK18CImapBodyStructure6ExtMD5Ev @ 113 NONAME
	_ZNK18CImapBodyStructure7SubTypeEv @ 114 NONAME
	_ZNK18CImapBodyStructure9BodyLinesEv @ 115 NONAME
	_ZNK18CImapFetchResponse10MessageUidEv @ 116 NONAME
	_ZNK19CImapCapabilityInfo9QueryFlagENS_20TImapCapabilityFlagsE @ 117 NONAME
	_ZNK19CImapListFolderInfo10FolderNameEv @ 118 NONAME
	_ZNK23CImapServerGreetingInfo11ResponseTagEv @ 119 NONAME
	_ZTI10CImapCheck @ 120 NONAME
	_ZTI10CImapClose @ 121 NONAME
	_ZTI10CImapLogin @ 122 NONAME
	_ZTI10CImapStore @ 123 NONAME
	_ZTI11CImapAppend @ 124 NONAME
	_ZTI11CImapCreate @ 125 NONAME
	_ZTI11CImapDelete @ 126 NONAME
	_ZTI11CImapLogout @ 127 NONAME
	_ZTI11CImapRename @ 128 NONAME
	_ZTI11CImapSearch @ 129 NONAME
	_ZTI11CImapSelect @ 130 NONAME
	_ZTI11CImapStatus @ 131 NONAME
	_ZTI12CImapCommand @ 132 NONAME
	_ZTI12CImapExamine @ 133 NONAME
	_ZTI12CImapExpunge @ 134 NONAME
	_ZTI12CImapSession @ 135 NONAME
	_ZTI13CImapEnvelope @ 136 NONAME
	_ZTI13CImapListBase @ 137 NONAME
	_ZTI13CImapStartTls @ 138 NONAME
	_ZTI14CImapCommandEx @ 139 NONAME
	_ZTI14CImapFetchBody @ 140 NONAME
	_ZTI14CImapSubscribe @ 141 NONAME
	_ZTI15CImapAtomParser @ 142 NONAME
	_ZTI15CImapAtomWalker @ 143 NONAME
	_ZTI15CImapCapability @ 144 NONAME
	_ZTI15CImapFetchFlags @ 145 NONAME
	_ZTI15CImapFolderInfo @ 146 NONAME
	_ZTI16CImapUnsubscribe @ 147 NONAME
	_ZTI18CImapBodyStructure @ 148 NONAME
	_ZTI18CImapFetchResponse @ 149 NONAME
	_ZTI19CImapCapabilityInfo @ 150 NONAME
	_ZTI19CImapListFolderInfo @ 151 NONAME
	_ZTI19CImapServerGreeting @ 152 NONAME
	_ZTI19CImapSessionManager @ 153 NONAME
	_ZTI20CImapServerEventWait @ 154 NONAME
	_ZTI21TImapOverflowDetector @ 155 NONAME
	_ZTI22CImapFetchBodyResponse @ 156 NONAME
	_ZTI25CImapBodyStructureBuilder @ 157 NONAME
	_ZTI27CImapFetchBodyStructureBase @ 158 NONAME
	_ZTI29CImapFetchMultiBodyStructures @ 159 NONAME
	_ZTI29CImapFetchSingleBodyStructure @ 160 NONAME
	_ZTI9CImapAtom @ 161 NONAME
	_ZTI9CImapCopy @ 162 NONAME
	_ZTI9CImapIdle @ 163 NONAME
	_ZTI9CImapNoop @ 164 NONAME
	_ZTV10CImapCheck @ 165 NONAME
	_ZTV10CImapClose @ 166 NONAME
	_ZTV10CImapLogin @ 167 NONAME
	_ZTV10CImapStore @ 168 NONAME
	_ZTV11CImapAppend @ 169 NONAME
	_ZTV11CImapCreate @ 170 NONAME
	_ZTV11CImapDelete @ 171 NONAME
	_ZTV11CImapLogout @ 172 NONAME
	_ZTV11CImapRename @ 173 NONAME
	_ZTV11CImapSearch @ 174 NONAME
	_ZTV11CImapSelect @ 175 NONAME
	_ZTV11CImapStatus @ 176 NONAME
	_ZTV12CImapCommand @ 177 NONAME
	_ZTV12CImapExamine @ 178 NONAME
	_ZTV12CImapExpunge @ 179 NONAME
	_ZTV12CImapSession @ 180 NONAME
	_ZTV13CImapEnvelope @ 181 NONAME
	_ZTV13CImapListBase @ 182 NONAME
	_ZTV13CImapStartTls @ 183 NONAME
	_ZTV14CImapCommandEx @ 184 NONAME
	_ZTV14CImapFetchBody @ 185 NONAME
	_ZTV14CImapSubscribe @ 186 NONAME
	_ZTV15CImapAtomParser @ 187 NONAME
	_ZTV15CImapAtomWalker @ 188 NONAME
	_ZTV15CImapCapability @ 189 NONAME
	_ZTV15CImapFetchFlags @ 190 NONAME
	_ZTV15CImapFolderInfo @ 191 NONAME
	_ZTV16CImapUnsubscribe @ 192 NONAME
	_ZTV18CImapBodyStructure @ 193 NONAME
	_ZTV18CImapFetchResponse @ 194 NONAME
	_ZTV19CImapCapabilityInfo @ 195 NONAME
	_ZTV19CImapListFolderInfo @ 196 NONAME
	_ZTV19CImapServerGreeting @ 197 NONAME
	_ZTV19CImapSessionManager @ 198 NONAME
	_ZTV20CImapServerEventWait @ 199 NONAME
	_ZTV21TImapOverflowDetector @ 200 NONAME
	_ZTV22CImapFetchBodyResponse @ 201 NONAME
	_ZTV25CImapBodyStructureBuilder @ 202 NONAME
	_ZTV27CImapFetchBodyStructureBase @ 203 NONAME
	_ZTV29CImapFetchMultiBodyStructures @ 204 NONAME
	_ZTV29CImapFetchSingleBodyStructure @ 205 NONAME
	_ZTV9CImapAtom @ 206 NONAME
	_ZTV9CImapCopy @ 207 NONAME
	_ZTV9CImapIdle @ 208 NONAME
	_ZTV9CImapNoop @ 209 NONAME
	_ZNK19CImapSessionManager29GetAccessPointIdForConnectionERm @ 210 NONAME
	_ZN19CImapSessionManager22CloseNetworkConnectionEv @ 211 NONAME
	_ZN12CImapSession13AuthenticateLER14TRequestStatusN24CImapAuthMechanismHelper20TImapAuthProfileFlagE @ 212 NONAME ABSENT
	
