EXPORTS
	_ZN13CSmsServerMtm4NewLER17CRegisteredMtmDllP15CMsvServerEntry @ 1 NONAME
	_ZTI11CSmssActive @ 2 NONAME ; #<TI>#
	_ZTI12CSmsSimUtils @ 3 NONAME ; #<TI>#
	_ZTI13CSmsServerMtm @ 4 NONAME ; #<TI>#
	_ZTI14CSmsOutboxSend @ 5 NONAME ; #<TI>#
	_ZTI15CSmsSendSession @ 6 NONAME ; #<TI>#
	_ZTI16CSmsScheduleSend @ 7 NONAME ; #<TI>#
	_ZTI17CSmsRecipientSend @ 8 NONAME ; #<TI>#
	_ZTI17CWapRecipientSend @ 9 NONAME ; #<TI>#
	_ZTI18CSmsScheduledEntry @ 10 NONAME ; #<TI>#
	_ZTI18CTextRecipientSend @ 11 NONAME ; #<TI>#
	_ZTI8CSmsSend @ 12 NONAME ; #<TI>#
	_ZTIN15CSmsSendSession12CSmsSendTypeE @ 13 NONAME ; #<TI>#
	_ZTV11CSmssActive @ 14 NONAME ; #<VT>#
	_ZTV12CSmsSimUtils @ 15 NONAME ; #<VT>#
	_ZTV13CSmsServerMtm @ 16 NONAME ; #<VT>#
	_ZTV14CSmsOutboxSend @ 17 NONAME ; #<VT>#
	_ZTV15CSmsSendSession @ 18 NONAME ; #<VT>#
	_ZTV16CSmsScheduleSend @ 19 NONAME ; #<VT>#
	_ZTV17CSmsRecipientSend @ 20 NONAME ; #<VT>#
	_ZTV17CWapRecipientSend @ 21 NONAME ; #<VT>#
	_ZTV18CSmsScheduledEntry @ 22 NONAME ; #<VT>#
	_ZTV18CTextRecipientSend @ 23 NONAME ; #<VT>#
	_ZTV8CSmsSend @ 24 NONAME ; #<VT>#
	_ZTVN15CSmsSendSession12CSmsSendTypeE @ 25 NONAME ; #<VT>#

