EXPORTS
	_ZN18VideoThumbnailData11qt_metacallEN11QMetaObject4CallEiPPv @ 1 NONAME
	_ZN18VideoThumbnailData11qt_metacastEPKc @ 2 NONAME
	_ZN18VideoThumbnailData12getThumbnailERK10TMPXItemId @ 3 NONAME
	_ZN18VideoThumbnailData15removeThumbnailERK10TMPXItemId @ 4 NONAME
	_ZN18VideoThumbnailData16staticMetaObjectE @ 5 NONAME DATA 16
	_ZN18VideoThumbnailData17freeThumbnailDataEv @ 6 NONAME
	_ZN18VideoThumbnailData17thumbnailsFetchedER5QListI10TMPXItemIdE @ 7 NONAME
	_ZN18VideoThumbnailData19getStaticMetaObjectEv @ 8 NONAME
	_ZN18VideoThumbnailData23enableThumbnailCreationEb @ 9 NONAME
	_ZN18VideoThumbnailData23startBackgroundFetchingEP22VideoProxyModelGenerici @ 10 NONAME
	_ZN18VideoThumbnailData24enableBackgroundFetchingEb @ 11 NONAME
	_ZN18VideoThumbnailData25backgroundFetchingEnabledEv @ 12 NONAME
	_ZN18VideoThumbnailData8instanceEv @ 13 NONAME
	_ZN18VideoThumbnailDataC1Ev @ 14 NONAME
	_ZN18VideoThumbnailDataC2Ev @ 15 NONAME
	_ZN18VideoThumbnailDataD0Ev @ 16 NONAME
	_ZN18VideoThumbnailDataD1Ev @ 17 NONAME
	_ZN18VideoThumbnailDataD2Ev @ 18 NONAME
	_ZN22VideoCollectionWrapper11asyncStatusEiR8QVariant @ 19 NONAME
	_ZN22VideoCollectionWrapper11qt_metacallEN11QMetaObject4CallEiPPv @ 20 NONAME
	_ZN22VideoCollectionWrapper11qt_metacastEPKc @ 21 NONAME
	_ZN22VideoCollectionWrapper15getGenericModelEv @ 22 NONAME
	_ZN22VideoCollectionWrapper15sendAsyncStatusEiR8QVariant @ 23 NONAME
	_ZN22VideoCollectionWrapper16staticMetaObjectE @ 24 NONAME DATA 16
	_ZN22VideoCollectionWrapper17getAllVideosModelEv @ 25 NONAME
	_ZN22VideoCollectionWrapper19getCollectionsModelEv @ 26 NONAME
	_ZN22VideoCollectionWrapper19getStaticMetaObjectEv @ 27 NONAME
	_ZN22VideoCollectionWrapper25getCollectionContentModelEv @ 28 NONAME
	_ZN22VideoCollectionWrapper8instanceEv @ 29 NONAME
	_ZN22VideoCollectionWrapperC1Ev @ 30 NONAME
	_ZN22VideoCollectionWrapperC2Ev @ 31 NONAME
	_ZN22VideoCollectionWrapperD0Ev @ 32 NONAME
	_ZN22VideoCollectionWrapperD1Ev @ 33 NONAME
	_ZN22VideoCollectionWrapperD2Ev @ 34 NONAME
	_ZN22VideoProxyModelGeneric10getSortingERiRN2Qt9SortOrderE @ 35 NONAME
	_ZN22VideoProxyModelGeneric10initializeEP18VideoListDataModel @ 36 NONAME
	_ZN22VideoProxyModelGeneric10renameItemERK10TMPXItemIdRK7QString @ 37 NONAME
	_ZN22VideoProxyModelGeneric11addNewAlbumERK7QString @ 38 NONAME
	_ZN22VideoProxyModelGeneric11deleteItemsERK5QListI11QModelIndexE @ 39 NONAME
	_ZN22VideoProxyModelGeneric11modelSortedEv @ 40 NONAME
	_ZN22VideoProxyModelGeneric11qt_metacallEN11QMetaObject4CallEiPPv @ 41 NONAME
	_ZN22VideoProxyModelGeneric11qt_metacastEPKc @ 42 NONAME
	_ZN22VideoProxyModelGeneric12removeAlbumsERK5QListI11QModelIndexE @ 43 NONAME
	_ZN22VideoProxyModelGeneric13setAlbumInUseERK10TMPXItemId @ 44 NONAME
	_ZN22VideoProxyModelGeneric14connectSignalsEv @ 45 NONAME
	_ZN22VideoProxyModelGeneric14processSortingEv @ 46 NONAME
	_ZN22VideoProxyModelGeneric15addItemsInAlbumER10TMPXItemIdRK5QListIS0_E @ 47 NONAME
	_ZN22VideoProxyModelGeneric16fetchItemDetailsERK11QModelIndex @ 48 NONAME
	_ZN22VideoProxyModelGeneric16staticMetaObjectE @ 49 NONAME DATA 16
	_ZN22VideoProxyModelGeneric17disconnectSignalsEv @ 50 NONAME
	_ZN22VideoProxyModelGeneric17shortDetailsReadyE10TMPXItemId @ 51 NONAME
	_ZN22VideoProxyModelGeneric18processSortingSlotEv @ 52 NONAME
	_ZN22VideoProxyModelGeneric18setGenericIdFilterERK10TMPXItemIdb @ 53 NONAME
	_ZN22VideoProxyModelGeneric19getStaticMetaObjectEv @ 54 NONAME
	_ZN22VideoProxyModelGeneric20removeItemsFromAlbumER10TMPXItemIdRK5QListIS0_E @ 55 NONAME
	_ZN22VideoProxyModelGeneric21getMediaFilePathForIdERK10TMPXItemId @ 56 NONAME
	_ZN22VideoProxyModelGeneric4backEv @ 57 NONAME
	_ZN22VideoProxyModelGeneric4openEN21VideoCollectionCommon17TCollectionLevelsE @ 58 NONAME
	_ZN22VideoProxyModelGeneric8openItemE10TMPXItemId @ 59 NONAME
	_ZN22VideoProxyModelGeneric9doSortingEiN2Qt9SortOrderEb @ 60 NONAME
	_ZN22VideoProxyModelGeneric9indexOfIdERK10TMPXItemId @ 61 NONAME
	_ZN22VideoProxyModelGenericC1EP7QObject @ 62 NONAME
	_ZN22VideoProxyModelGenericC2EP7QObject @ 63 NONAME
	_ZN22VideoProxyModelGenericD0Ev @ 64 NONAME
	_ZN22VideoProxyModelGenericD1Ev @ 65 NONAME
	_ZN22VideoProxyModelGenericD2Ev @ 66 NONAME
	_ZNK18VideoThumbnailData10metaObjectEv @ 67 NONAME
	_ZNK22VideoCollectionWrapper10metaObjectEv @ 68 NONAME
	_ZNK22VideoProxyModelGeneric10metaObjectEv @ 69 NONAME
	_ZNK22VideoProxyModelGeneric11getOpenItemEv @ 70 NONAME
	_ZNK22VideoProxyModelGeneric16filterAcceptsRowEiRK11QModelIndex @ 71 NONAME
	_ZNK22VideoProxyModelGeneric16resolveAlbumNameERK7QString @ 72 NONAME
	_ZNK22VideoProxyModelGeneric17getMediaIdAtIndexERK11QModelIndex @ 73 NONAME
	_ZNK22VideoProxyModelGeneric8lessThanERK11QModelIndexS2_ @ 74 NONAME
	_ZTI18VideoThumbnailData @ 75 NONAME
	_ZTI22VideoCollectionWrapper @ 76 NONAME
	_ZTI22VideoProxyModelGeneric @ 77 NONAME
	_ZTV18VideoThumbnailData @ 78 NONAME
	_ZTV22VideoCollectionWrapper @ 79 NONAME
	_ZTV22VideoProxyModelGeneric @ 80 NONAME

