EXPORTS
	?getStaticMetaObject@OnlineHandler@@SAABUQMetaObject@@XZ @ 1 NONAME ; struct QMetaObject const & OnlineHandler::getStaticMetaObject(void)
	?backEventTriggered@OnlineHandler@@IAEXXZ @ 2 NONAME ; void OnlineHandler::backEventTriggered(void)
	?metaObject@OnlineHandler@@UBEPBUQMetaObject@@XZ @ 3 NONAME ; struct QMetaObject const * OnlineHandler::metaObject(void) const
	?qt_metacast@OnlineHandler@@UAEPAXPBD@Z @ 4 NONAME ; void * OnlineHandler::qt_metacast(char const *)
	?pluginShutdown@OnlineHandler@@IAEX_N@Z @ 5 NONAME ; void OnlineHandler::pluginShutdown(bool)
	?activatePlugin@OnlineHandler@@QAE_NXZ @ 6 NONAME ; bool OnlineHandler::activatePlugin(void)
	??1OnlineHandler@@UAE@XZ @ 7 NONAME ; OnlineHandler::~OnlineHandler(void)
	?isShutdownCompleted@OnlineHandler@@QAEX_N@Z @ 8 NONAME ; void OnlineHandler::isShutdownCompleted(bool)
	??0OnlineHandler@@QAE@PAVQObject@@@Z @ 9 NONAME ; OnlineHandler::OnlineHandler(class QObject *)
	?loadSearchPlugin@OnlineHandler@@AAEPAVOnlineSearchPlugin@@ABVQString@@@Z @ 10 NONAME ; class OnlineSearchPlugin * OnlineHandler::loadSearchPlugin(class QString const &)
	?setDefaultProvider@OnlineHandler@@QAEXH@Z @ 11 NONAME ; void OnlineHandler::setDefaultProvider(int)
	?pluginIntialized@OnlineHandler@@IAEX_N@Z @ 12 NONAME ; void OnlineHandler::pluginIntialized(bool)
	?defaultProvider@OnlineHandler@@IAEXH@Z @ 13 NONAME ; void OnlineHandler::defaultProvider(int)
	?backEvent@OnlineHandler@@QAEXXZ @ 14 NONAME ; void OnlineHandler::backEvent(void)
	?providerDetails@OnlineHandler@@IAEXVQString@@VHbIcon@@H@Z @ 15 NONAME ; void OnlineHandler::providerDetails(class QString, class HbIcon, int)
	?initializePlugin@OnlineHandler@@QAEXXZ @ 16 NONAME ; void OnlineHandler::initializePlugin(void)
	?staticMetaObject@OnlineHandler@@2UQMetaObject@@B @ 17 NONAME ; struct QMetaObject const OnlineHandler::staticMetaObject
	?trUtf8@OnlineHandler@@SA?AVQString@@PBD0@Z @ 18 NONAME ; class QString OnlineHandler::trUtf8(char const *, char const *)
	?trUtf8@OnlineHandler@@SA?AVQString@@PBD0H@Z @ 19 NONAME ; class QString OnlineHandler::trUtf8(char const *, char const *, int)
	?readSettings@OnlineHandler@@QAEXXZ @ 20 NONAME ; void OnlineHandler::readSettings(void)
	?writeSettings@OnlineHandler@@QAEXH@Z @ 21 NONAME ; void OnlineHandler::writeSettings(int)
	??_EOnlineHandler@@UAE@I@Z @ 22 NONAME ; OnlineHandler::~OnlineHandler(unsigned int)
	?isPluginIntialized@OnlineHandler@@QAEX_N@Z @ 23 NONAME ; void OnlineHandler::isPluginIntialized(bool)
	?unloadPluginandExit@OnlineHandler@@QAEXXZ @ 24 NONAME ; void OnlineHandler::unloadPluginandExit(void)
	?unloadPlugin@OnlineHandler@@QAEXXZ @ 25 NONAME ; void OnlineHandler::unloadPlugin(void)
	?tr@OnlineHandler@@SA?AVQString@@PBD0H@Z @ 26 NONAME ; class QString OnlineHandler::tr(char const *, char const *, int)
	?qt_metacall@OnlineHandler@@UAEHW4Call@QMetaObject@@HPAPAX@Z @ 27 NONAME ; int OnlineHandler::qt_metacall(enum QMetaObject::Call, int, void * *)
	?loadISPlugin@OnlineHandler@@QAEXHVQString@@@Z @ 28 NONAME ; void OnlineHandler::loadISPlugin(int, class QString)
	?tr@OnlineHandler@@SA?AVQString@@PBD0@Z @ 29 NONAME ; class QString OnlineHandler::tr(char const *, char const *)
	?activatePlugin@OnlineHandler@@QAE_NABVQString@@@Z @ 30 NONAME ; bool OnlineHandler::activatePlugin(class QString const &)

