EXPORTS
	?trUtf8@GlxAlbumModel@@SA?AVQString@@PBD0@Z @ 1 NONAME ; class QString GlxAlbumModel::trUtf8(char const *, char const *)
	??_EGlxAlbumModel@@UAE@I@Z @ 2 NONAME ; GlxAlbumModel::~GlxAlbumModel(unsigned int)
	?itemsAdded@GlxAlbumModel@@QAEXHH@Z @ 3 NONAME ; void GlxAlbumModel::itemsAdded(int, int)
	?updateItemIcon@GlxAlbumModel@@AAEXHPAVHbIcon@@W4GlxTBContextType@@@Z @ 4 NONAME ; void GlxAlbumModel::updateItemIcon(int, class HbIcon *, enum GlxTBContextType)
	?qt_metacall@GlxAlbumModel@@UAEHW4Call@QMetaObject@@HPAPAX@Z @ 5 NONAME ; int GlxAlbumModel::qt_metacall(enum QMetaObject::Call, int, void * *)
	?itemsRemoved@GlxAlbumModel@@QAEXHH@Z @ 6 NONAME ; void GlxAlbumModel::itemsRemoved(int, int)
	??1GlxAlbumModel@@UAE@XZ @ 7 NONAME ; GlxAlbumModel::~GlxAlbumModel(void)
	?trUtf8@GlxAlbumModel@@SA?AVQString@@PBD0H@Z @ 8 NONAME ; class QString GlxAlbumModel::trUtf8(char const *, char const *, int)
	?getFocusIndex@GlxAlbumModel@@ABE?AVQModelIndex@@XZ @ 9 NONAME ; class QModelIndex GlxAlbumModel::getFocusIndex(void) const
	?index@GlxAlbumModel@@UBE?AVQModelIndex@@HHABV2@@Z @ 10 NONAME ; class QModelIndex GlxAlbumModel::index(int, int, class QModelIndex const &) const
	?tr@GlxAlbumModel@@SA?AVQString@@PBD0@Z @ 11 NONAME ; class QString GlxAlbumModel::tr(char const *, char const *)
	?getStaticMetaObject@GlxAlbumModel@@SAABUQMetaObject@@XZ @ 12 NONAME ; struct QMetaObject const & GlxAlbumModel::getStaticMetaObject(void)
	?itemUpdated1@GlxAlbumModel@@QAEXHW4GlxTBContextType@@@Z @ 13 NONAME ; void GlxAlbumModel::itemUpdated1(int, enum GlxTBContextType)
	?GetPreviewIconItem@GlxAlbumModel@@ABEPAVHbIcon@@HW4GlxTBContextType@@@Z @ 14 NONAME ; class HbIcon * GlxAlbumModel::GetPreviewIconItem(int, enum GlxTBContextType) const
	?iconAvailable@GlxAlbumModel@@IBEXHPAVHbIcon@@W4GlxTBContextType@@@Z @ 15 NONAME ; void GlxAlbumModel::iconAvailable(int, class HbIcon *, enum GlxTBContextType) const
	?parent@GlxAlbumModel@@UBE?AVQModelIndex@@ABV2@@Z @ 16 NONAME ; class QModelIndex GlxAlbumModel::parent(class QModelIndex const &) const
	?tr@GlxAlbumModel@@SA?AVQString@@PBD0H@Z @ 17 NONAME ; class QString GlxAlbumModel::tr(char const *, char const *, int)
	?rowCount@GlxAlbumModel@@UBEHABVQModelIndex@@@Z @ 18 NONAME ; int GlxAlbumModel::rowCount(class QModelIndex const &) const
	??0GlxAlbumModel@@QAE@AAVGlxModelParm@@@Z @ 19 NONAME ; GlxAlbumModel::GlxAlbumModel(class GlxModelParm &)
	?staticMetaObject@GlxAlbumModel@@2UQMetaObject@@B @ 20 NONAME ; struct QMetaObject const GlxAlbumModel::staticMetaObject
	?columnCount@GlxAlbumModel@@UBEHABVQModelIndex@@@Z @ 21 NONAME ; int GlxAlbumModel::columnCount(class QModelIndex const &) const
	?qt_metacast@GlxAlbumModel@@UAEPAXPBD@Z @ 22 NONAME ; void * GlxAlbumModel::qt_metacast(char const *)
	?setSelectedIndex@GlxAlbumModel@@AAEXABVQModelIndex@@@Z @ 23 NONAME ; void GlxAlbumModel::setSelectedIndex(class QModelIndex const &)
	?setFocusIndex@GlxAlbumModel@@AAEXABVQModelIndex@@@Z @ 24 NONAME ; void GlxAlbumModel::setFocusIndex(class QModelIndex const &)
	?setContextMode@GlxAlbumModel@@AAEXW4GlxContextMode@@@Z @ 25 NONAME ; void GlxAlbumModel::setContextMode(enum GlxContextMode)
	?data@GlxAlbumModel@@UBE?AVQVariant@@ABVQModelIndex@@H@Z @ 26 NONAME ; class QVariant GlxAlbumModel::data(class QModelIndex const &, int) const
	?metaObject@GlxAlbumModel@@UBEPBUQMetaObject@@XZ @ 27 NONAME ; struct QMetaObject const * GlxAlbumModel::metaObject(void) const
	?setData@GlxAlbumModel@@UAE_NABVQModelIndex@@ABVQVariant@@H@Z @ 28 NONAME ; bool GlxAlbumModel::setData(class QModelIndex const &, class QVariant const &, int)
	?listPopulated@GlxAlbumModel@@IAEXXZ @ 29 NONAME ; void GlxAlbumModel::listPopulated(void)
	?modelPopulated@GlxAlbumModel@@QAEXXZ @ 30 NONAME ; void GlxAlbumModel::modelPopulated(void)
	?getCorruptDefaultIcon@GlxAlbumModel@@ABEPAVHbIcon@@ABVQModelIndex@@@Z @ 31 NONAME ; class HbIcon * GlxAlbumModel::getCorruptDefaultIcon(class QModelIndex const &) const

