EXPORTS
	?thumbnailPopulated@GlxMediaModel@@IAEXXZ @ 1 NONAME ; void GlxMediaModel::thumbnailPopulated(void)
	?metaObject@GlxMediaModel@@UBEPBUQMetaObject@@XZ @ 2 NONAME ; struct QMetaObject const * GlxMediaModel::metaObject(void) const
	?itemsAdded@GlxMediaModel@@QAEXHH@Z @ 3 NONAME ; void GlxMediaModel::itemsAdded(int, int)
	?getStaticMetaObject@GlxMediaModel@@SAABUQMetaObject@@XZ @ 4 NONAME ; struct QMetaObject const & GlxMediaModel::getStaticMetaObject(void)
	?updateItemIcon@GlxMediaModel@@AAEXHPAVHbIcon@@W4GlxTBContextType@@@Z @ 5 NONAME ; void GlxMediaModel::updateItemIcon(int, class HbIcon *, enum GlxTBContextType)
	?qt_metacast@GlxMediaModel@@UAEPAXPBD@Z @ 6 NONAME ; void * GlxMediaModel::qt_metacast(char const *)
	?getFullScreenImage@GlxMediaModel@@ABE?AVQImage@@H@Z @ 7 NONAME ; class QImage GlxMediaModel::getFullScreenImage(int) const
	?rowCount@GlxMediaModel@@UBEHABVQModelIndex@@@Z @ 8 NONAME ; int GlxMediaModel::rowCount(class QModelIndex const &) const
	?setSelectedIndex@GlxMediaModel@@AAEXABVQModelIndex@@@Z @ 9 NONAME ; void GlxMediaModel::setSelectedIndex(class QModelIndex const &)
	?itemUpdated@GlxMediaModel@@QAEXHW4GlxTBContextType@@@Z @ 10 NONAME ; void GlxMediaModel::itemUpdated(int, enum GlxTBContextType)
	?getFullScreenIcon@GlxMediaModel@@ABE?AVHbIcon@@H@Z @ 11 NONAME ; class HbIcon GlxMediaModel::getFullScreenIcon(int) const
	?setFocusIndex@GlxMediaModel@@AAEXABVQModelIndex@@@Z @ 12 NONAME ; void GlxMediaModel::setFocusIndex(class QModelIndex const &)
	?setContextMode@GlxMediaModel@@AAEXW4GlxContextMode@@@Z @ 13 NONAME ; void GlxMediaModel::setContextMode(enum GlxContextMode)
	?itemProperty@GlxMediaModel@@QBE?AVQVariant@@ABVQModelIndex@@H@Z @ 14 NONAME ; class QVariant GlxMediaModel::itemProperty(class QModelIndex const &, int) const
	?trUtf8@GlxMediaModel@@SA?AVQString@@PBD0H@Z @ 15 NONAME ; class QString GlxMediaModel::trUtf8(char const *, char const *, int)
	?staticMetaObject@GlxMediaModel@@2UQMetaObject@@B @ 16 NONAME ; struct QMetaObject const GlxMediaModel::staticMetaObject
	?GetGridIconItem@GlxMediaModel@@ABEPAVHbIcon@@HW4GlxTBContextType@@@Z @ 17 NONAME ; class HbIcon * GlxMediaModel::GetGridIconItem(int, enum GlxTBContextType) const
	??_EGlxMediaModel@@UAE@I@Z @ 18 NONAME ; GlxMediaModel::~GlxMediaModel(unsigned int)
	?collectionProperty@GlxMediaModel@@QBE?AVQVariant@@H@Z @ 19 NONAME ; class QVariant GlxMediaModel::collectionProperty(int) const
	?getFocusIndex@GlxMediaModel@@ABE?AVQModelIndex@@XZ @ 20 NONAME ; class QModelIndex GlxMediaModel::getFocusIndex(void) const
	?getCorruptDefaultIcon@GlxMediaModel@@ABEPAVHbIcon@@ABVQModelIndex@@@Z @ 21 NONAME ; class HbIcon * GlxMediaModel::getCorruptDefaultIcon(class QModelIndex const &) const
	?tr@GlxMediaModel@@SA?AVQString@@PBD0H@Z @ 22 NONAME ; class QString GlxMediaModel::tr(char const *, char const *, int)
	?itemCorrupted@GlxMediaModel@@QAEXH@Z @ 23 NONAME ; void GlxMediaModel::itemCorrupted(int)
	?modelpopulated@GlxMediaModel@@QAEXXZ @ 24 NONAME ; void GlxMediaModel::modelpopulated(void)
	?parent@GlxMediaModel@@UBE?AVQModelIndex@@ABV2@@Z @ 25 NONAME ; class QModelIndex GlxMediaModel::parent(class QModelIndex const &) const
	?tr@GlxMediaModel@@SA?AVQString@@PBD0@Z @ 26 NONAME ; class QString GlxMediaModel::tr(char const *, char const *)
	?thumbnailPopulatedCheck@GlxMediaModel@@AAEXH@Z @ 27 NONAME ; void GlxMediaModel::thumbnailPopulatedCheck(int)
	?itemsRemoved@GlxMediaModel@@QAEXHH@Z @ 28 NONAME ; void GlxMediaModel::itemsRemoved(int, int)
	?columnCount@GlxMediaModel@@UBEHABVQModelIndex@@@Z @ 29 NONAME ; int GlxMediaModel::columnCount(class QModelIndex const &) const
	?GetFsIconItem@GlxMediaModel@@ABEPAVHbIcon@@HW4GlxTBContextType@@@Z @ 30 NONAME ; class HbIcon * GlxMediaModel::GetFsIconItem(int, enum GlxTBContextType) const
	??1GlxMediaModel@@UAE@XZ @ 31 NONAME ; GlxMediaModel::~GlxMediaModel(void)
	?qt_metacall@GlxMediaModel@@UAEHW4Call@QMetaObject@@HPAPAX@Z @ 32 NONAME ; int GlxMediaModel::qt_metacall(enum QMetaObject::Call, int, void * *)
	?updateDetailsView@GlxMediaModel@@IAEXXZ @ 33 NONAME ; void GlxMediaModel::updateDetailsView(void)
	?albumTitleUpdated@GlxMediaModel@@QAEXVQString@@@Z @ 34 NONAME ; void GlxMediaModel::albumTitleUpdated(class QString)
	?itemImageData@GlxMediaModel@@QBE?AVQVariant@@ABVQModelIndex@@H@Z @ 35 NONAME ; class QVariant GlxMediaModel::itemImageData(class QModelIndex const &, int) const
	?setData@GlxMediaModel@@UAE_NABVQModelIndex@@ABVQVariant@@H@Z @ 36 NONAME ; bool GlxMediaModel::setData(class QModelIndex const &, class QVariant const &, int)
	?data@GlxMediaModel@@UBE?AVQVariant@@ABVQModelIndex@@H@Z @ 37 NONAME ; class QVariant GlxMediaModel::data(class QModelIndex const &, int) const
	?trUtf8@GlxMediaModel@@SA?AVQString@@PBD0@Z @ 38 NONAME ; class QString GlxMediaModel::trUtf8(char const *, char const *)
	?iconAvailable@GlxMediaModel@@IBEXHPAVHbIcon@@W4GlxTBContextType@@@Z @ 39 NONAME ; void GlxMediaModel::iconAvailable(int, class HbIcon *, enum GlxTBContextType) const
	?populated@GlxMediaModel@@IAEXXZ @ 40 NONAME ; void GlxMediaModel::populated(void)
	?gridToFullscreenIcon@GlxMediaModel@@ABE?AVHbIcon@@PAV2@H@Z @ 41 NONAME ; class HbIcon GlxMediaModel::gridToFullscreenIcon(class HbIcon *, int) const
	??0GlxMediaModel@@QAE@AAVGlxModelParm@@@Z @ 42 NONAME ; GlxMediaModel::GlxMediaModel(class GlxModelParm &)
	?removeContextMode@GlxMediaModel@@AAEXW4GlxContextMode@@@Z @ 43 NONAME ; void GlxMediaModel::removeContextMode(enum GlxContextMode)
	?updateDetailItems@GlxMediaModel@@QAEXXZ @ 44 NONAME ; void GlxMediaModel::updateDetailItems(void)
	?index@GlxMediaModel@@UBE?AVQModelIndex@@HHABV2@@Z @ 45 NONAME ; class QModelIndex GlxMediaModel::index(int, int, class QModelIndex const &) const
	?albumTitleAvailable@GlxMediaModel@@IAEXVQString@@@Z @ 46 NONAME ; void GlxMediaModel::albumTitleAvailable(class QString)
	?fullScreenDataChanged@GlxMediaModel@@IAEXABVQModelIndex@@0@Z @ 47 NONAME ; void GlxMediaModel::fullScreenDataChanged(class QModelIndex const &, class QModelIndex const &)

