EXPORTS
	??_EGlxModelWrapper@@UAE@I@Z @ 1 NONAME ; GlxModelWrapper::~GlxModelWrapper(unsigned int)
	?setData@GlxModelWrapper@@UAE_NABVQModelIndex@@ABVQVariant@@H@Z @ 2 NONAME ; bool GlxModelWrapper::setData(class QModelIndex const &, class QVariant const &, int)
	?rowsAboutToBeRemoved@GlxModelWrapper@@IAEXABVQModelIndex@@HH@Z @ 3 NONAME ; void GlxModelWrapper::rowsAboutToBeRemoved(class QModelIndex const &, int, int)
	?rowCount@GlxModelWrapper@@UBEHABVQModelIndex@@@Z @ 4 NONAME ; int GlxModelWrapper::rowCount(class QModelIndex const &) const
	??0GlxModelWrapper@@QAE@XZ @ 5 NONAME ; GlxModelWrapper::GlxModelWrapper(void)
	?trUtf8@GlxModelWrapper@@SA?AVQString@@PBD0@Z @ 6 NONAME ; class QString GlxModelWrapper::trUtf8(char const *, char const *)
	?modelDestroyed@GlxModelWrapper@@IAEXXZ @ 7 NONAME ; void GlxModelWrapper::modelDestroyed(void)
	?dataChangedinModel@GlxModelWrapper@@IAEXVQModelIndex@@0@Z @ 8 NONAME ; void GlxModelWrapper::dataChangedinModel(class QModelIndex, class QModelIndex)
	?tr@GlxModelWrapper@@SA?AVQString@@PBD0@Z @ 9 NONAME ; class QString GlxModelWrapper::tr(char const *, char const *)
	?getStaticMetaObject@GlxModelWrapper@@SAABUQMetaObject@@XZ @ 10 NONAME ; struct QMetaObject const & GlxModelWrapper::getStaticMetaObject(void)
	?index@GlxModelWrapper@@UBE?AVQModelIndex@@HHABV2@@Z @ 11 NONAME ; class QModelIndex GlxModelWrapper::index(int, int, class QModelIndex const &) const
	?rowsAboutToBeInserted@GlxModelWrapper@@IAEXABVQModelIndex@@HH@Z @ 12 NONAME ; void GlxModelWrapper::rowsAboutToBeInserted(class QModelIndex const &, int, int)
	?resetTheModel@GlxModelWrapper@@AAEXXZ @ 13 NONAME ; void GlxModelWrapper::resetTheModel(void)
	?data@GlxModelWrapper@@UBE?AVQVariant@@ABVQModelIndex@@H@Z @ 14 NONAME ; class QVariant GlxModelWrapper::data(class QModelIndex const &, int) const
	?staticMetaObject@GlxModelWrapper@@2UQMetaObject@@B @ 15 NONAME ; struct QMetaObject const GlxModelWrapper::staticMetaObject
	?scrollingEnded@GlxModelWrapper@@QAEXXZ @ 16 NONAME ; void GlxModelWrapper::scrollingEnded(void)
	?rowsRemoved@GlxModelWrapper@@IAEXABVQModelIndex@@HH@Z @ 17 NONAME ; void GlxModelWrapper::rowsRemoved(class QModelIndex const &, int, int)
	?basemodelindex@GlxModelWrapper@@QBE?AVQModelIndex@@HHABV2@@Z @ 18 NONAME ; class QModelIndex GlxModelWrapper::basemodelindex(int, int, class QModelIndex const &) const
	?columnCount@GlxModelWrapper@@UBEHABVQModelIndex@@@Z @ 19 NONAME ; int GlxModelWrapper::columnCount(class QModelIndex const &) const
	?parent@GlxModelWrapper@@UBE?AVQModelIndex@@ABV2@@Z @ 20 NONAME ; class QModelIndex GlxModelWrapper::parent(class QModelIndex const &) const
	?rowsInserted@GlxModelWrapper@@IAEXABVQModelIndex@@HH@Z @ 21 NONAME ; void GlxModelWrapper::rowsInserted(class QModelIndex const &, int, int)
	?disConnectFromModel@GlxModelWrapper@@AAEXXZ @ 22 NONAME ; void GlxModelWrapper::disConnectFromModel(void)
	?metaObject@GlxModelWrapper@@UBEPBUQMetaObject@@XZ @ 23 NONAME ; struct QMetaObject const * GlxModelWrapper::metaObject(void) const
	??1GlxModelWrapper@@UAE@XZ @ 24 NONAME ; GlxModelWrapper::~GlxModelWrapper(void)
	?connectToModel@GlxModelWrapper@@AAEXXZ @ 25 NONAME ; void GlxModelWrapper::connectToModel(void)
	?setModel@GlxModelWrapper@@QAEXPAVQAbstractItemModel@@@Z @ 26 NONAME ; void GlxModelWrapper::setModel(class QAbstractItemModel *)
	?tr@GlxModelWrapper@@SA?AVQString@@PBD0H@Z @ 27 NONAME ; class QString GlxModelWrapper::tr(char const *, char const *, int)
	?qt_metacall@GlxModelWrapper@@UAEHW4Call@QMetaObject@@HPAPAX@Z @ 28 NONAME ; int GlxModelWrapper::qt_metacall(enum QMetaObject::Call, int, void * *)
	?setRoles@GlxModelWrapper@@QAEXHH@Z @ 29 NONAME ; void GlxModelWrapper::setRoles(int, int)
	?scrollingStarted@GlxModelWrapper@@QAEXXZ @ 30 NONAME ; void GlxModelWrapper::scrollingStarted(void)
	?trUtf8@GlxModelWrapper@@SA?AVQString@@PBD0H@Z @ 31 NONAME ; class QString GlxModelWrapper::trUtf8(char const *, char const *, int)
	?qt_metacast@GlxModelWrapper@@UAEPAXPBD@Z @ 32 NONAME ; void * GlxModelWrapper::qt_metacast(char const *)

