EXPORTS
	_ZN10HsDatabase10deletePageEi @ 1 NONAME
	_ZN10HsDatabase10insertPageER10HsPageData @ 2 NONAME
	_ZN10HsDatabase10updatePageERK10HsPageData @ 3 NONAME
	_ZN10HsDatabase11qt_metacallEN11QMetaObject4CallEiPPv @ 4 NONAME
	_ZN10HsDatabase11qt_metacastEPKc @ 5 NONAME
	_ZN10HsDatabase11setInstanceEPS_ @ 6 NONAME
	_ZN10HsDatabase11transactionEv @ 7 NONAME
	_ZN10HsDatabase12deleteWidgetEi @ 8 NONAME
	_ZN10HsDatabase12insertWidgetER12HsWidgetData @ 9 NONAME
	_ZN10HsDatabase12takeInstanceEv @ 10 NONAME
	_ZN10HsDatabase12updateWidgetERK12HsWidgetData @ 11 NONAME
	_ZN10HsDatabase13configurationER5QHashI7QString8QVariantE @ 12 NONAME
	_ZN10HsDatabase13deleteWidgetsERK7QString @ 13 NONAME
	_ZN10HsDatabase15setDatabaseNameERK7QString @ 14 NONAME
	_ZN10HsDatabase16staticMetaObjectE @ 15 NONAME DATA 16
	_ZN10HsDatabase16widgetPreferenceEiRK7QStringR8QVariant @ 16 NONAME
	_ZN10HsDatabase17setConnectionNameERK7QString @ 17 NONAME
	_ZN10HsDatabase17widgetPreferencesEiR5QHashI7QString8QVariantE @ 18 NONAME
	_ZN10HsDatabase18widgetPresentationER24HsWidgetPresentationData @ 19 NONAME
	_ZN10HsDatabase19getStaticMetaObjectEv @ 20 NONAME
	_ZN10HsDatabase19updateWidgetZValuesERK5QHashIifEN2Qt11OrientationE @ 21 NONAME
	_ZN10HsDatabase20setWidgetPreferencesEiRK5QHashI7QString8QVariantE @ 22 NONAME
	_ZN10HsDatabase21setWidgetPresentationERK24HsWidgetPresentationData @ 23 NONAME
	_ZN10HsDatabase22matchWidgetPreferencesERK5QHashI7QString8QVariantERK9QMultiMapIS1_S1_E @ 24 NONAME
	_ZN10HsDatabase24deleteWidgetPresentationEiN2Qt11OrientationE @ 25 NONAME
	_ZN10HsDatabase4openEv @ 26 NONAME
	_ZN10HsDatabase4pageER10HsPageData @ 27 NONAME
	_ZN10HsDatabase5closeEv @ 28 NONAME
	_ZN10HsDatabase5pagesER5QListI10HsPageDataE @ 29 NONAME
	_ZN10HsDatabase5sceneER11HsSceneData @ 30 NONAME
	_ZN10HsDatabase6commitEv @ 31 NONAME
	_ZN10HsDatabase6widgetER12HsWidgetData @ 32 NONAME
	_ZN10HsDatabase7widgetsERK7QStringR5QListI12HsWidgetDataE @ 33 NONAME
	_ZN10HsDatabase7widgetsERK7QStringRK5QHashIS0_8QVariantERi @ 34 NONAME
	_ZN10HsDatabase7widgetsEiR5QListI12HsWidgetDataE @ 35 NONAME
	_ZN10HsDatabase8instanceEv @ 36 NONAME
	_ZN10HsDatabase8rollbackEv @ 37 NONAME
	_ZN10HsDatabase9mInstanceE @ 38 NONAME DATA 4
	_ZN10HsDatabaseC1EP7QObject @ 39 NONAME
	_ZN10HsDatabaseC2EP7QObject @ 40 NONAME
	_ZN10HsDatabaseD0Ev @ 41 NONAME
	_ZN10HsDatabaseD1Ev @ 42 NONAME
	_ZN10HsDatabaseD2Ev @ 43 NONAME
	_ZN11HsWallpaper11qt_metacallEN11QMetaObject4CallEiPPv @ 44 NONAME
	_ZN11HsWallpaper11qt_metacastEPKc @ 45 NONAME
	_ZN11HsWallpaper14imageSetFailedEv @ 46 NONAME
	_ZN11HsWallpaper14onLoaderFailedEv @ 47 NONAME
	_ZN11HsWallpaper14updateIconItemEN2Qt11OrientationE @ 48 NONAME
	_ZN11HsWallpaper15setDefaultImageEv @ 49 NONAME
	_ZN11HsWallpaper16onLoaderFinishedEv @ 50 NONAME
	_ZN11HsWallpaper16setExistingImageEv @ 51 NONAME
	_ZN11HsWallpaper16staticMetaObjectE @ 52 NONAME DATA 16
	_ZN11HsWallpaper19getStaticMetaObjectEv @ 53 NONAME
	_ZN11HsWallpaper6removeEv @ 54 NONAME
	_ZN11HsWallpaper8imageSetEv @ 55 NONAME
	_ZN11HsWallpaper8setImageERK7QString @ 56 NONAME
	_ZN11HsWallpaper9setImagesERK7QStringS2_ @ 57 NONAME
	_ZN11HsWallpaperC2EP13QGraphicsItem @ 58 NONAME
	_ZN11HsWallpaperD0Ev @ 59 NONAME
	_ZN11HsWallpaperD1Ev @ 60 NONAME
	_ZN11HsWallpaperD2Ev @ 61 NONAME
	_ZN12HsIdleWidget10insertPageEiP6HsPage @ 62 NONAME
	_ZN12HsIdleWidget10removePageEi @ 63 NONAME
	_ZN12HsIdleWidget11polishEventEv @ 64 NONAME
	_ZN12HsIdleWidget11qt_metacallEN11QMetaObject4CallEiPPv @ 65 NONAME
	_ZN12HsIdleWidget11qt_metacastEPKc @ 66 NONAME
	_ZN12HsIdleWidget11setGeometryERK6QRectF @ 67 NONAME
	_ZN12HsIdleWidget12showTrashBinEv @ 68 NONAME
	_ZN12HsIdleWidget13setActivePageEi @ 69 NONAME
	_ZN12HsIdleWidget16loadControlLayerEv @ 70 NONAME
	_ZN12HsIdleWidget16staticMetaObjectE @ 71 NONAME DATA 16
	_ZN12HsIdleWidget17showPageIndicatorEv @ 72 NONAME
	_ZN12HsIdleWidget19getStaticMetaObjectEv @ 73 NONAME
	_ZN12HsIdleWidget20hideVerticalSnapLineEv @ 74 NONAME
	_ZN12HsIdleWidget20showVerticalSnapLineERK6QLineF @ 75 NONAME
	_ZN12HsIdleWidget22hideHorizontalSnapLineEv @ 76 NONAME
	_ZN12HsIdleWidget22showHorizontalSnapLineERK6QLineF @ 77 NONAME
	_ZN12HsIdleWidget9setSceneXEf @ 78 NONAME
	_ZN12HsIdleWidgetC1EP13QGraphicsItem @ 79 NONAME
	_ZN12HsIdleWidgetC2EP13QGraphicsItem @ 80 NONAME
	_ZN12HsIdleWidgetD0Ev @ 81 NONAME
	_ZN12HsIdleWidgetD1Ev @ 82 NONAME
	_ZN12HsIdleWidgetD2Ev @ 83 NONAME
	_ZN12HsPageVisual11qt_metacallEN11QMetaObject4CallEiPPv @ 84 NONAME
	_ZN12HsPageVisual11qt_metacastEPKc @ 85 NONAME
	_ZN12HsPageVisual11setGeometryERK6QRectF @ 86 NONAME
	_ZN12HsPageVisual14setupTouchAreaEv @ 87 NONAME
	_ZN12HsPageVisual16staticMetaObjectE @ 88 NONAME DATA 16
	_ZN12HsPageVisual19getStaticMetaObjectEv @ 89 NONAME
	_ZN12HsPageVisualC1EP13QGraphicsItem @ 90 NONAME
	_ZN12HsPageVisualC2EP13QGraphicsItem @ 91 NONAME
	_ZN12HsPageVisualD0Ev @ 92 NONAME
	_ZN12HsPageVisualD1Ev @ 93 NONAME
	_ZN12HsPageVisualD2Ev @ 94 NONAME
	_ZN12HsWidgetHost10event_hideEv @ 95 NONAME
	_ZN12HsWidgetHost10event_showEv @ 96 NONAME
	_ZN12HsWidgetHost10hideWidgetEv @ 97 NONAME
	_ZN12HsWidgetHost10onFinishedEv @ 98 NONAME
	_ZN12HsWidgetHost10showWidgetEv @ 99 NONAME
	_ZN12HsWidgetHost11action_hideEv @ 100 NONAME
	_ZN12HsWidgetHost11action_loadEv @ 101 NONAME
	_ZN12HsWidgetHost11action_showEv @ 102 NONAME
	_ZN12HsWidgetHost11event_closeEv @ 103 NONAME
	_ZN12HsWidgetHost11qt_metacallEN11QMetaObject4CallEiPPv @ 104 NONAME
	_ZN12HsWidgetHost11qt_metacastEPKc @ 105 NONAME
	_ZN12HsWidgetHost11setPropertyEPKcR13QMetaProperty @ 106 NONAME
	_ZN12HsWidgetHost11setupStatesEv @ 107 NONAME
	_ZN12HsWidgetHost11startWidgetEb @ 108 NONAME
	_ZN12HsWidgetHost11unavailableEv @ 109 NONAME
	_ZN12HsWidgetHost12event_removeEv @ 110 NONAME
	_ZN12HsWidgetHost12event_unloadEv @ 111 NONAME
	_ZN12HsWidgetHost13action_removeEv @ 112 NONAME
	_ZN12HsWidgetHost13action_unloadEv @ 113 NONAME
	_ZN12HsWidgetHost13event_faultedEv @ 114 NONAME
	_ZN12HsWidgetHost14action_faultedEv @ 115 NONAME
	_ZN12HsWidgetHost14createInstanceER12HsWidgetDataRK5QHashI7QString8QVariantE @ 116 NONAME
	_ZN12HsWidgetHost14event_finishedEv @ 117 NONAME
	_ZN12HsWidgetHost15action_finishedEv @ 118 NONAME
	_ZN12HsWidgetHost15getPresentationER24HsWidgetPresentationData @ 119 NONAME
	_ZN12HsWidgetHost15startDragEffectEv @ 120 NONAME
	_ZN12HsWidgetHost15startDropEffectEv @ 121 NONAME
	_ZN12HsWidgetHost16loadPresentationEN2Qt11OrientationE @ 122 NONAME
	_ZN12HsWidgetHost16loadPresentationEv @ 123 NONAME
	_ZN12HsWidgetHost16onSetPreferencesERK11QStringList @ 124 NONAME
	_ZN12HsWidgetHost16savePresentationEN2Qt11OrientationE @ 125 NONAME
	_ZN12HsWidgetHost16savePresentationER24HsWidgetPresentationData @ 126 NONAME
	_ZN12HsWidgetHost16savePresentationEv @ 127 NONAME
	_ZN12HsWidgetHost16staticMetaObjectE @ 128 NONAME DATA 16
	_ZN12HsWidgetHost17action_initializeEv @ 129 NONAME
	_ZN12HsWidgetHost18event_startAndHideEv @ 130 NONAME
	_ZN12HsWidgetHost18event_startAndShowEv @ 131 NONAME
	_ZN12HsWidgetHost18removePresentationEN2Qt11OrientationE @ 132 NONAME
	_ZN12HsWidgetHost19action_notifyRemoveEv @ 133 NONAME
	_ZN12HsWidgetHost19action_uninitializeEv @ 134 NONAME
	_ZN12HsWidgetHost19getStaticMetaObjectEv @ 135 NONAME
	_ZN12HsWidgetHost22setPreferencesToWidgetEv @ 136 NONAME
	_ZN12HsWidgetHost23action_connectComponentEv @ 137 NONAME
	_ZN12HsWidgetHost26action_disconnectComponentEv @ 138 NONAME
	_ZN12HsWidgetHost5closeEv @ 139 NONAME
	_ZN12HsWidgetHost6removeEv @ 140 NONAME
	_ZN12HsWidgetHost7faultedEv @ 141 NONAME
	_ZN12HsWidgetHost7onErrorEv @ 142 NONAME
	_ZN12HsWidgetHost7setPageEP6HsPage @ 143 NONAME
	_ZN12HsWidgetHost8finishedEv @ 144 NONAME
	_ZN12HsWidgetHost9availableEv @ 145 NONAME
	_ZN12HsWidgetHost9hasSignalEPKc @ 146 NONAME
	_ZN12HsWidgetHost9setMethodEPKcR11QMetaMethod @ 147 NONAME
	_ZN12HsWidgetHost9setOnlineEb @ 148 NONAME
	_ZN12HsWidgetHostC1EiP7QObject @ 149 NONAME
	_ZN12HsWidgetHostC2EiP7QObject @ 150 NONAME
	_ZN12HsWidgetHostD0Ev @ 151 NONAME
	_ZN12HsWidgetHostD1Ev @ 152 NONAME
	_ZN12HsWidgetHostD2Ev @ 153 NONAME
	_ZN15HsConfiguration11qt_metacallEN11QMetaObject4CallEiPPv @ 154 NONAME
	_ZN15HsConfiguration11qt_metacastEPKc @ 155 NONAME
	_ZN15HsConfiguration11setInstanceEPS_ @ 156 NONAME
	_ZN15HsConfiguration12exportToFileERK7QString @ 157 NONAME
	_ZN15HsConfiguration12takeInstanceEv @ 158 NONAME
	_ZN15HsConfiguration14importFromFileERK7QString @ 159 NONAME
	_ZN15HsConfiguration15propertyChangedERK7QString @ 160 NONAME
	_ZN15HsConfiguration16staticMetaObjectE @ 161 NONAME DATA 16
	_ZN15HsConfiguration19getStaticMetaObjectEv @ 162 NONAME
	_ZN15HsConfiguration4loadEv @ 163 NONAME
	_ZN15HsConfiguration8instanceEv @ 164 NONAME
	_ZN15HsConfiguration9mInstanceE @ 165 NONAME DATA 4
	_ZN15HsConfigurationC1EP7QObject @ 166 NONAME
	_ZN15HsConfigurationC2EP7QObject @ 167 NONAME
	_ZN15HsConfigurationD0Ev @ 168 NONAME
	_ZN15HsConfigurationD1Ev @ 169 NONAME
	_ZN15HsConfigurationD2Ev @ 170 NONAME
	_ZN15HsPageWallpaper11qt_metacallEN11QMetaObject4CallEiPPv @ 171 NONAME
	_ZN15HsPageWallpaper11qt_metacastEPKc @ 172 NONAME
	_ZN15HsPageWallpaper13createTargetsERK7QString @ 173 NONAME
	_ZN15HsPageWallpaper16staticMetaObjectE @ 174 NONAME DATA 16
	_ZN15HsPageWallpaper19getStaticMetaObjectEv @ 175 NONAME
	_ZN15HsPageWallpaper7setPageEP6HsPage @ 176 NONAME
	_ZN15HsPageWallpaperC1EP6HsPageP13QGraphicsItem @ 177 NONAME
	_ZN15HsPageWallpaperC2EP6HsPageP13QGraphicsItem @ 178 NONAME
	_ZN15HsPageWallpaperD0Ev @ 179 NONAME
	_ZN15HsPageWallpaperD1Ev @ 180 NONAME
	_ZN15HsPageWallpaperD2Ev @ 181 NONAME
	_ZN16HsContentService11qt_metacallEN11QMetaObject4CallEiPPv @ 182 NONAME
	_ZN16HsContentService11qt_metacastEPKc @ 183 NONAME
	_ZN16HsContentService11widgetAddedERK7QStringRK5QHashIS0_8QVariantE @ 184 NONAME
	_ZN16HsContentService12createWidgetERK5QHashI7QString8QVariantE @ 185 NONAME
	_ZN16HsContentService13widgetRemovedERK7QStringRK5QHashIS0_8QVariantE @ 186 NONAME
	_ZN16HsContentService16staticMetaObjectE @ 187 NONAME DATA 16
	_ZN16HsContentService17emitWidgetRemovedERK7QStringRK5QHashIS0_8QVariantE @ 188 NONAME
	_ZN16HsContentService18widgetStartFaultedEv @ 189 NONAME
	_ZN16HsContentService19getStaticMetaObjectEv @ 190 NONAME
	_ZN16HsContentService22createWidgetForPreviewERK5QHashI7QString8QVariantE @ 191 NONAME
	_ZN16HsContentService7widgetsERK7QStringRK5QHashIS0_8QVariantERi @ 192 NONAME
	_ZN16HsContentService8instanceEv @ 193 NONAME
	_ZN16HsContentService9addWidgetERK7QStringRK5QHashIS0_8QVariantERKS4_ @ 194 NONAME
	_ZN16HsContentService9mInstanceE @ 195 NONAME DATA 4
	_ZN16HsContentServiceC1EP7QObject @ 196 NONAME
	_ZN16HsContentServiceC2EP7QObject @ 197 NONAME
	_ZN16HsContentServiceD0Ev @ 198 NONAME
	_ZN16HsContentServiceD1Ev @ 199 NONAME
	_ZN16HsContentServiceD2Ev @ 200 NONAME
	_ZN16HsSceneWallpaper11qt_metacallEN11QMetaObject4CallEiPPv @ 201 NONAME
	_ZN16HsSceneWallpaper11qt_metacastEPKc @ 202 NONAME
	_ZN16HsSceneWallpaper13createTargetsERK7QString @ 203 NONAME
	_ZN16HsSceneWallpaper16staticMetaObjectE @ 204 NONAME DATA 16
	_ZN16HsSceneWallpaper19getStaticMetaObjectEv @ 205 NONAME
	_ZN16HsSceneWallpaper8setSceneEP7HsScene @ 206 NONAME
	_ZN16HsSceneWallpaperC1EP7HsSceneP13QGraphicsItem @ 207 NONAME
	_ZN16HsSceneWallpaperC2EP7HsSceneP13QGraphicsItem @ 208 NONAME
	_ZN16HsSceneWallpaperD0Ev @ 209 NONAME
	_ZN16HsSceneWallpaperD1Ev @ 210 NONAME
	_ZN16HsSceneWallpaperD2Ev @ 211 NONAME
	_ZN17HsShortcutService11qt_metacallEN11QMetaObject4CallEiPPv @ 212 NONAME
	_ZN17HsShortcutService11qt_metacastEPKc @ 213 NONAME
	_ZN17HsShortcutService16staticMetaObjectE @ 214 NONAME DATA 16
	_ZN17HsShortcutService19getStaticMetaObjectEv @ 215 NONAME
	_ZN17HsShortcutService20isItemShortcutWidgetEi @ 216 NONAME
	_ZN17HsShortcutService23executeCollectionActionEiRK7QString @ 217 NONAME
	_ZN17HsShortcutService8instanceEP13QStateMachine @ 218 NONAME
	_ZN17HsShortcutService9mInstanceE @ 219 NONAME DATA 4
	_ZN17HsShortcutServiceC1EP13QStateMachineP7QObject @ 220 NONAME
	_ZN17HsShortcutServiceC2EP13QStateMachineP7QObject @ 221 NONAME
	_ZN17HsShortcutServiceD0Ev @ 222 NONAME
	_ZN17HsShortcutServiceD1Ev @ 223 NONAME
	_ZN17HsShortcutServiceD2Ev @ 224 NONAME
	_ZN17HsWallpaperLoader11qt_metacallEN11QMetaObject4CallEiPPv @ 225 NONAME
	_ZN17HsWallpaperLoader11qt_metacastEPKc @ 226 NONAME
	_ZN17HsWallpaperLoader16onThreadFinishedEv @ 227 NONAME
	_ZN17HsWallpaperLoader16staticMetaObjectE @ 228 NONAME DATA 16
	_ZN17HsWallpaperLoader19getStaticMetaObjectEv @ 229 NONAME
	_ZN17HsWallpaperLoader5startEv @ 230 NONAME
	_ZN17HsWallpaperLoader6cancelEv @ 231 NONAME
	_ZN17HsWallpaperLoader6failedEv @ 232 NONAME
	_ZN17HsWallpaperLoader7cleanupEv @ 233 NONAME
	_ZN17HsWallpaperLoader8finishedEv @ 234 NONAME
	_ZN17HsWallpaperLoaderC1EP7QObject @ 235 NONAME
	_ZN17HsWallpaperLoaderC2EP7QObject @ 236 NONAME
	_ZN17HsWallpaperLoaderD0Ev @ 237 NONAME
	_ZN17HsWallpaperLoaderD1Ev @ 238 NONAME
	_ZN17HsWallpaperLoaderD2Ev @ 239 NONAME
	_ZN17HsWidgetComponent11emitUpdatedEv @ 240 NONAME
	_ZN17HsWidgetComponent11qt_metacallEN11QMetaObject4CallEiPPv @ 241 NONAME
	_ZN17HsWidgetComponent11qt_metacastEPKc @ 242 NONAME
	_ZN17HsWidgetComponent11unavailableEv @ 243 NONAME
	_ZN17HsWidgetComponent11uninstalledEv @ 244 NONAME
	_ZN17HsWidgetComponent13emitAvailableEv @ 245 NONAME
	_ZN17HsWidgetComponent15emitUnavailableEv @ 246 NONAME
	_ZN17HsWidgetComponent15emitUninstalledEv @ 247 NONAME
	_ZN17HsWidgetComponent16aboutToUninstallEv @ 248 NONAME
	_ZN17HsWidgetComponent16staticMetaObjectE @ 249 NONAME DATA 16
	_ZN17HsWidgetComponent17installTranslatorEv @ 250 NONAME
	_ZN17HsWidgetComponent19getStaticMetaObjectEv @ 251 NONAME
	_ZN17HsWidgetComponent19uninstallTranslatorEv @ 252 NONAME
	_ZN17HsWidgetComponent20emitAboutToUninstallEv @ 253 NONAME
	_ZN17HsWidgetComponent37resolveRootPathAndTranslationFilenameEv @ 254 NONAME
	_ZN17HsWidgetComponent7updatedEv @ 255 NONAME
	_ZN17HsWidgetComponent9availableEv @ 256 NONAME
	_ZN17HsWidgetComponentC1ERK7QStringP7QObject @ 257 NONAME
	_ZN17HsWidgetComponentC2ERK7QStringP7QObject @ 258 NONAME
	_ZN17HsWidgetComponentD0Ev @ 259 NONAME
	_ZN17HsWidgetComponentD1Ev @ 260 NONAME
	_ZN17HsWidgetComponentD2Ev @ 261 NONAME
	_ZN17HsWidgetOrganizer11getPositionERK6QSizeF @ 262 NONAME
	_ZN17HsWidgetOrganizer11initAnchorsEv @ 263 NONAME
	_ZN17HsWidgetOrganizer11markAnchorsERK6QRectF @ 264 NONAME
	_ZN17HsWidgetOrganizer11searchSpaceENS_10SearchModeE7QPointFi @ 265 NONAME
	_ZN17HsWidgetOrganizer16convertToAnchorsEi @ 266 NONAME
	_ZN17HsWidgetOrganizer18checkExistingRectsERK5QListI6QRectFE @ 267 NONAME
	_ZN17HsWidgetOrganizer18getAnchorListIndexERK7QPointF @ 268 NONAME
	_ZN17HsWidgetOrganizer20getAnchorCoordinatesEi @ 269 NONAME
	_ZN17HsWidgetOrganizer22searchPositionRowByRowE7QPointFii @ 270 NONAME
	_ZN17HsWidgetOrganizer28searchPositionColumnByColumnE7QPointFii @ 271 NONAME
	_ZN17HsWidgetOrganizer7convertERK6QRectFRK5QListIS0_ES6_RK7QPointF @ 272 NONAME
	_ZN17HsWidgetOrganizer9sortRectsENS_8SortModeERK4QMapIi6QRectFE @ 273 NONAME
	_ZN17HsWidgetOrganizerC1EiN15HsConfiguration29WidgetOrganizerSearchSequenceE @ 274 NONAME
	_ZN17HsWidgetOrganizerC2EiN15HsConfiguration29WidgetOrganizerSearchSequenceE @ 275 NONAME
	_ZN17HsWidgetOrganizerD0Ev @ 276 NONAME
	_ZN17HsWidgetOrganizerD1Ev @ 277 NONAME
	_ZN17HsWidgetOrganizerD2Ev @ 278 NONAME
	_ZN18HsWidgetHostVisual10setNewSizeERK6QSizeF @ 279 NONAME
	_ZN18HsWidgetHostVisual11eventFilterEP7QObjectP6QEvent @ 280 NONAME
	_ZN18HsWidgetHostVisual11qt_metacallEN11QMetaObject4CallEiPPv @ 281 NONAME
	_ZN18HsWidgetHostVisual11qt_metacastEPKc @ 282 NONAME
	_ZN18HsWidgetHostVisual12gestureEventEP13QGestureEvent @ 283 NONAME
	_ZN18HsWidgetHostVisual12setupEffectsEv @ 284 NONAME
	_ZN18HsWidgetHostVisual14setVisualModelEP12HsWidgetHost @ 285 NONAME
	_ZN18HsWidgetHostVisual14setupTouchAreaEv @ 286 NONAME
	_ZN18HsWidgetHostVisual15startDragEffectEv @ 287 NONAME
	_ZN18HsWidgetHostVisual15startDropEffectEv @ 288 NONAME
	_ZN18HsWidgetHostVisual16staticMetaObjectE @ 289 NONAME DATA 16
	_ZN18HsWidgetHostVisual19getStaticMetaObjectEv @ 290 NONAME
	_ZN18HsWidgetHostVisual7resizedEv @ 291 NONAME
	_ZN18HsWidgetHostVisual9setWidgetEP7QObject @ 292 NONAME
	_ZN18HsWidgetHostVisualC1EP13QGraphicsItem @ 293 NONAME
	_ZN18HsWidgetHostVisualC2EP13QGraphicsItem @ 294 NONAME
	_ZN18HsWidgetHostVisualD0Ev @ 295 NONAME
	_ZN18HsWidgetHostVisualD1Ev @ 296 NONAME
	_ZN18HsWidgetHostVisualD2Ev @ 297 NONAME
	_ZN21HsAnchorPointInCenter7convertERK6QRectFRK5QListIS0_ES6_RK7QPointF @ 298 NONAME
	_ZN21HsHostedWidgetFactory11qt_metacallEN11QMetaObject4CallEiPPv @ 299 NONAME
	_ZN21HsHostedWidgetFactory11qt_metacastEPKc @ 300 NONAME
	_ZN21HsHostedWidgetFactory11setInstanceEPS_ @ 301 NONAME
	_ZN21HsHostedWidgetFactory12createWidgetERK7QString @ 302 NONAME
	_ZN21HsHostedWidgetFactory12takeInstanceEv @ 303 NONAME
	_ZN21HsHostedWidgetFactory16staticMetaObjectE @ 304 NONAME DATA 16
	_ZN21HsHostedWidgetFactory19getStaticMetaObjectEv @ 305 NONAME
	_ZN21HsHostedWidgetFactory8instanceEv @ 306 NONAME
	_ZN21HsHostedWidgetFactory9mInstanceE @ 307 NONAME DATA 4
	_ZN21HsHostedWidgetFactoryC1EP7QObject @ 308 NONAME
	_ZN21HsHostedWidgetFactoryC2EP7QObject @ 309 NONAME
	_ZN21HsHostedWidgetFactoryD0Ev @ 310 NONAME
	_ZN21HsHostedWidgetFactoryD1Ev @ 311 NONAME
	_ZN21HsHostedWidgetFactoryD2Ev @ 312 NONAME
	_ZN23HsBackupRestoreObserver11qt_metacallEN11QMetaObject4CallEiPPv @ 313 NONAME
	_ZN23HsBackupRestoreObserver11qt_metacastEPKc @ 314 NONAME
	_ZN23HsBackupRestoreObserver11readyForBUREv @ 315 NONAME
	_ZN23HsBackupRestoreObserver16staticMetaObjectE @ 316 NONAME DATA 16
	_ZN23HsBackupRestoreObserver19getStaticMetaObjectEv @ 317 NONAME
	_ZN23HsBackupRestoreObserver20backupRestoreStartedEv @ 318 NONAME
	_ZN23HsBackupRestoreObserver22backupRestoreCompletedEv @ 319 NONAME
	_ZN23HsBackupRestoreObserver26event_backupRestoreStartedEv @ 320 NONAME
	_ZN23HsBackupRestoreObserver28event_backupRestoreCompletedEv @ 321 NONAME
	_ZN23HsBackupRestoreObserver8checkBUREv @ 322 NONAME
	_ZN23HsBackupRestoreObserver8instanceEv @ 323 NONAME
	_ZN23HsBackupRestoreObserver9mInstanceE @ 324 NONAME DATA 4
	_ZN23HsBackupRestoreObserverC1EP7QObject @ 325 NONAME
	_ZN23HsBackupRestoreObserverC2EP7QObject @ 326 NONAME
	_ZN23HsBackupRestoreObserverD0Ev @ 327 NONAME
	_ZN23HsBackupRestoreObserverD1Ev @ 328 NONAME
	_ZN23HsBackupRestoreObserverD2Ev @ 329 NONAME
	_ZN23HsWallpaperLoaderThread11qt_metacallEN11QMetaObject4CallEiPPv @ 330 NONAME
	_ZN23HsWallpaperLoaderThread11qt_metacastEPKc @ 331 NONAME
	_ZN23HsWallpaperLoaderThread16staticMetaObjectE @ 332 NONAME DATA 16
	_ZN23HsWallpaperLoaderThread19getStaticMetaObjectEv @ 333 NONAME
	_ZN23HsWallpaperLoaderThread3runEv @ 334 NONAME
	_ZN23HsWallpaperLoaderThreadC1EP7QObject @ 335 NONAME
	_ZN23HsWallpaperLoaderThreadC2EP7QObject @ 336 NONAME
	_ZN23HsWallpaperLoaderThreadD0Ev @ 337 NONAME
	_ZN23HsWallpaperLoaderThreadD1Ev @ 338 NONAME
	_ZN23HsWallpaperLoaderThreadD2Ev @ 339 NONAME
	_ZN25HsWidgetComponentRegistry11qt_metacallEN11QMetaObject4CallEiPPv @ 340 NONAME
	_ZN25HsWidgetComponentRegistry11qt_metacastEPKc @ 341 NONAME
	_ZN25HsWidgetComponentRegistry14onEntryChangedERK7CaEntry10ChangeType @ 342 NONAME
	_ZN25HsWidgetComponentRegistry15registerServiceERK7CaEntryRK7QStringb @ 343 NONAME
	_ZN25HsWidgetComponentRegistry16handleEntryAddedERK7CaEntryRK7QString @ 344 NONAME
	_ZN25HsWidgetComponentRegistry16staticMetaObjectE @ 345 NONAME DATA 16
	_ZN25HsWidgetComponentRegistry18handleEntryRemovedERK7CaEntryRK7QString @ 346 NONAME
	_ZN25HsWidgetComponentRegistry18handleEntryUpdatedERK7CaEntryRK7QString @ 347 NONAME
	_ZN25HsWidgetComponentRegistry18uninstallComponentERK27HsWidgetComponentDescriptor @ 348 NONAME
	_ZN25HsWidgetComponentRegistry19getStaticMetaObjectEv @ 349 NONAME
	_ZN25HsWidgetComponentRegistry8instanceEv @ 350 NONAME
	_ZN25HsWidgetComponentRegistry9componentERK7QString @ 351 NONAME
	_ZN25HsWidgetComponentRegistry9mInstanceE @ 352 NONAME DATA 4
	_ZN25HsWidgetComponentRegistryC1EP7QObject @ 353 NONAME
	_ZN25HsWidgetComponentRegistryC2EP7QObject @ 354 NONAME
	_ZN25HsWidgetComponentRegistryD0Ev @ 355 NONAME
	_ZN25HsWidgetComponentRegistryD1Ev @ 356 NONAME
	_ZN25HsWidgetComponentRegistryD2Ev @ 357 NONAME
	_ZN26HsAnchorPointInBottomRight7convertERK6QRectFRK5QListIS0_ES6_RK7QPointF @ 358 NONAME
	_ZN27HsWidgetComponentDescriptor7isValidEv @ 359 NONAME
	_ZN30HsWidgetPositioningOnWidgetAdd11setInstanceEPS_ @ 360 NONAME
	_ZN30HsWidgetPositioningOnWidgetAdd8instanceEv @ 361 NONAME
	_ZN30HsWidgetPositioningOnWidgetAdd9mInstanceE @ 362 NONAME DATA 4
	_ZN5HsGui11orientationEv @ 363 NONAME
	_ZN5HsGui11qt_metacallEN11QMetaObject4CallEiPPv @ 364 NONAME
	_ZN5HsGui11qt_metacastEPKc @ 365 NONAME
	_ZN5HsGui11setInstanceEPS_ @ 366 NONAME
	_ZN5HsGui11setupIdleUiEv @ 367 NONAME
	_ZN5HsGui12takeInstanceEv @ 368 NONAME
	_ZN5HsGui13cleanupIdleUiEv @ 369 NONAME
	_ZN5HsGui14setOrientationEN2Qt11OrientationE @ 370 NONAME
	_ZN5HsGui16staticMetaObjectE @ 371 NONAME DATA 16
	_ZN5HsGui18orientationChangedEN2Qt11OrientationE @ 372 NONAME
	_ZN5HsGui19getStaticMetaObjectEv @ 373 NONAME
	_ZN5HsGui19pageChangeAnimationEv @ 374 NONAME
	_ZN5HsGui20navigateToApplibraryEv @ 375 NONAME
	_ZN5HsGui21pageCrawlingAnimationEv @ 376 NONAME
	_ZN5HsGui4showEv @ 377 NONAME
	_ZN5HsGui8instanceEv @ 378 NONAME
	_ZN5HsGui9mInstanceE @ 379 NONAME DATA 4
	_ZN5HsGuiC1EP7QObject @ 380 NONAME
	_ZN5HsGuiC2EP7QObject @ 381 NONAME
	_ZN5HsGuiD0Ev @ 382 NONAME
	_ZN5HsGuiD1Ev @ 383 NONAME
	_ZN5HsGuiD2Ev @ 384 NONAME
	_ZN6HsPage10newWidgetsEv @ 385 NONAME
	_ZN6HsPage11contentRectEN2Qt11OrientationE @ 386 NONAME
	_ZN6HsPage11contentRectEv @ 387 NONAME
	_ZN6HsPage11hideWidgetsEv @ 388 NONAME
	_ZN6HsPage11qt_metacallEN11QMetaObject4CallEiPPv @ 389 NONAME
	_ZN6HsPage11qt_metacastEPKc @ 390 NONAME
	_ZN6HsPage11showWidgetsEv @ 391 NONAME
	_ZN6HsPage12addNewWidgetEP12HsWidgetHostRK7QPointF @ 392 NONAME
	_ZN6HsPage12removeWidgetEP12HsWidgetHost @ 393 NONAME
	_ZN6HsPage12setRemovableEb @ 394 NONAME
	_ZN6HsPage13connectWidgetEP12HsWidgetHost @ 395 NONAME
	_ZN6HsPage13setDatabaseIdEi @ 396 NONAME
	_ZN6HsPage13updateZValuesEv @ 397 NONAME
	_ZN6HsPage14createInstanceERK10HsPageData @ 398 NONAME
	_ZN6HsPage15contentGeometryEN2Qt11OrientationE @ 399 NONAME
	_ZN6HsPage15contentGeometryEv @ 400 NONAME
	_ZN6HsPage15onWidgetFaultedEv @ 401 NONAME
	_ZN6HsPage15onWidgetResizedEv @ 402 NONAME
	_ZN6HsPage15resetNewWidgetsEv @ 403 NONAME
	_ZN6HsPage16disconnectWidgetEP12HsWidgetHost @ 404 NONAME
	_ZN6HsPage16layoutNewWidgetsEv @ 405 NONAME
	_ZN6HsPage16onWidgetFinishedEv @ 406 NONAME
	_ZN6HsPage16staticMetaObjectE @ 407 NONAME DATA 16
	_ZN6HsPage17addExistingWidgetEP12HsWidgetHost @ 408 NONAME
	_ZN6HsPage17onWidgetAvailableEv @ 409 NONAME
	_ZN6HsPage18deleteFromDatabaseEv @ 410 NONAME
	_ZN6HsPage19getStaticMetaObjectEv @ 411 NONAME
	_ZN6HsPage19onPageMarginChangedERK7QString @ 412 NONAME
	_ZN6HsPage19onWidgetUnavailableEv @ 413 NONAME
	_ZN6HsPage20onOrientationChangedEN2Qt11OrientationE @ 414 NONAME
	_ZN6HsPage22adjustedWidgetPositionERK6QRectF @ 415 NONAME
	_ZN6HsPage4loadEv @ 416 NONAME
	_ZN6HsPage9pageIndexEv @ 417 NONAME
	_ZN6HsPage9setOnlineEb @ 418 NONAME
	_ZN6HsPageC1EP7QObject @ 419 NONAME
	_ZN6HsPageC2EP7QObject @ 420 NONAME
	_ZN6HsPageD0Ev @ 421 NONAME
	_ZN6HsPageD1Ev @ 422 NONAME
	_ZN6HsPageD2Ev @ 423 NONAME
	_ZN7HsScene10removePageEP6HsPage @ 424 NONAME
	_ZN7HsScene11eventFilterEP7QObjectP6QEvent @ 425 NONAME
	_ZN7HsScene11qt_metacallEN11QMetaObject4CallEiPPv @ 426 NONAME
	_ZN7HsScene11qt_metacastEPKc @ 427 NONAME
	_ZN7HsScene11setInstanceEPS_ @ 428 NONAME
	_ZN7HsScene12takeInstanceEv @ 429 NONAME
	_ZN7HsScene13setActivePageEP6HsPage @ 430 NONAME
	_ZN7HsScene14pagePanStartedEP13QGestureEvent @ 431 NONAME
	_ZN7HsScene14pagePanUpdatedEP13QGestureEvent @ 432 NONAME
	_ZN7HsScene15pagePanFinishedEP13QGestureEvent @ 433 NONAME
	_ZN7HsScene15pageTapFinishedEP13QGestureEvent @ 434 NONAME
	_ZN7HsScene15setActiveWidgetEP12HsWidgetHost @ 435 NONAME
	_ZN7HsScene16staticMetaObjectE @ 436 NONAME DATA 16
	_ZN7HsScene16widgetTapStartedE7QPointFP12HsWidgetHost @ 437 NONAME
	_ZN7HsScene17activePageChangedEv @ 438 NONAME
	_ZN7HsScene17widgetMoveUpdatedERK7QPointFP12HsWidgetHost @ 439 NONAME
	_ZN7HsScene18setActivePageIndexEi @ 440 NONAME
	_ZN7HsScene18widgetMoveFinishedERK7QPointFP12HsWidgetHost @ 441 NONAME
	_ZN7HsScene19getStaticMetaObjectEv @ 442 NONAME
	_ZN7HsScene22pageTapAndHoldFinishedEP13QGestureEvent @ 443 NONAME
	_ZN7HsScene24widgetTapAndHoldFinishedEP13QGestureEventP12HsWidgetHost @ 444 NONAME
	_ZN7HsScene4loadEv @ 445 NONAME
	_ZN7HsScene7addPageEP6HsPage @ 446 NONAME
	_ZN7HsScene8instanceEv @ 447 NONAME
	_ZN7HsScene9mInstanceE @ 448 NONAME DATA 4
	_ZN7HsScene9setOnlineEb @ 449 NONAME
	_ZN7HsSceneC1EP7QObject @ 450 NONAME
	_ZN7HsSceneC2EP7QObject @ 451 NONAME
	_ZN7HsSceneD0Ev @ 452 NONAME
	_ZN7HsSceneD1Ev @ 453 NONAME
	_ZN7HsSceneD2Ev @ 454 NONAME
	_ZNK10HsDatabase10metaObjectEv @ 455 NONAME
	_ZNK10HsDatabase12databaseNameEv @ 456 NONAME
	_ZNK10HsDatabase14connectionNameEv @ 457 NONAME
	_ZNK10HsDatabase15checkConnectionEv @ 458 NONAME
	_ZNK11HsWallpaper10metaObjectEv @ 459 NONAME
	_ZNK11HsWallpaper13rootDirectoryEv @ 460 NONAME
	_ZNK12HsIdleWidget10metaObjectEv @ 461 NONAME
	_ZNK12HsIdleWidget14parallaxFactorEv @ 462 NONAME
	_ZNK12HsIdleWidget6sceneXEv @ 463 NONAME
	_ZNK12HsPageVisual10metaObjectEv @ 464 NONAME
	_ZNK12HsPageVisual9pageIndexEv @ 465 NONAME
	_ZNK12HsWidgetHost10databaseIdEv @ 466 NONAME
	_ZNK12HsWidgetHost10metaObjectEv @ 467 NONAME
	_ZNK12HsWidgetHost4pageEv @ 468 NONAME
	_ZNK12HsWidgetHost6visualEv @ 469 NONAME
	_ZNK15HsConfiguration10metaObjectEv @ 470 NONAME
	_ZNK15HsConfiguration24maximumWidgetSizeInUnitsEv @ 471 NONAME
	_ZNK15HsConfiguration24minimumWidgetSizeInUnitsEv @ 472 NONAME
	_ZNK15HsConfiguration25maximumWidgetSizeInPixelsEv @ 473 NONAME
	_ZNK15HsConfiguration25minimumWidgetSizeInPixelsEv @ 474 NONAME
	_ZNK15HsPageWallpaper10metaObjectEv @ 475 NONAME
	_ZNK15HsPageWallpaper18wallpaperDirectoryEv @ 476 NONAME
	_ZNK16HsContentService10metaObjectEv @ 477 NONAME
	_ZNK16HsSceneWallpaper10metaObjectEv @ 478 NONAME
	_ZNK16HsSceneWallpaper18wallpaperDirectoryEv @ 479 NONAME
	_ZNK17HsShortcutService10metaObjectEv @ 480 NONAME
	_ZNK17HsWallpaperLoader10metaObjectEv @ 481 NONAME
	_ZNK17HsWidgetComponent10metaObjectEv @ 482 NONAME
	_ZNK17HsWidgetComponent11isAvailableEv @ 483 NONAME
	_ZNK17HsWidgetComponent3uriEv @ 484 NONAME
	_ZNK17HsWidgetComponent8rootPathEv @ 485 NONAME
	_ZNK18HsWidgetHostVisual10metaObjectEv @ 486 NONAME
	_ZNK18HsWidgetHostVisual11visualModelEv @ 487 NONAME
	_ZNK18HsWidgetHostVisual5shapeEv @ 488 NONAME
	_ZNK21HsHostedWidgetFactory10metaObjectEv @ 489 NONAME
	_ZNK23HsBackupRestoreObserver10metaObjectEv @ 490 NONAME
	_ZNK23HsWallpaperLoaderThread10metaObjectEv @ 491 NONAME
	_ZNK25HsWidgetComponentRegistry10metaObjectEv @ 492 NONAME
	_ZNK5HsGui10idleWidgetEv @ 493 NONAME
	_ZNK5HsGui10layoutRectEv @ 494 NONAME
	_ZNK5HsGui10metaObjectEv @ 495 NONAME
	_ZNK5HsGui8idleViewEv @ 496 NONAME
	_ZNK6HsPage10databaseIdEv @ 497 NONAME
	_ZNK6HsPage10metaObjectEv @ 498 NONAME
	_ZNK6HsPage11isRemovableEv @ 499 NONAME
	_ZNK6HsPage12isActivePageEv @ 500 NONAME
	_ZNK6HsPage13isDefaultPageEv @ 501 NONAME
	_ZNK6HsPage6visualEv @ 502 NONAME
	_ZNK6HsPage7widgetsEv @ 503 NONAME
	_ZNK6HsPage9wallpaperEv @ 504 NONAME
	_ZNK7HsScene10activePageEv @ 505 NONAME
	_ZNK7HsScene10databaseIdEv @ 506 NONAME
	_ZNK7HsScene10metaObjectEv @ 507 NONAME
	_ZNK7HsScene12activeWidgetEv @ 508 NONAME
	_ZNK7HsScene15activePageIndexEv @ 509 NONAME
	_ZNK7HsScene5pagesEv @ 510 NONAME
	_ZNK7HsScene8isOnlineEv @ 511 NONAME
	_ZNK7HsScene9wallpaperEv @ 512 NONAME
	_ZTI10HsDatabase @ 513 NONAME
	_ZTI11HsWallpaper @ 514 NONAME
	_ZTI12HsIdleWidget @ 515 NONAME
	_ZTI12HsPageVisual @ 516 NONAME
	_ZTI12HsWidgetHost @ 517 NONAME
	_ZTI15HsConfiguration @ 518 NONAME
	_ZTI15HsPageWallpaper @ 519 NONAME
	_ZTI16HsContentService @ 520 NONAME
	_ZTI16HsSceneWallpaper @ 521 NONAME
	_ZTI17HsShortcutService @ 522 NONAME
	_ZTI17HsWallpaperLoader @ 523 NONAME
	_ZTI17HsWidgetComponent @ 524 NONAME
	_ZTI17HsWidgetOrganizer @ 525 NONAME
	_ZTI18HsWidgetHostVisual @ 526 NONAME
	_ZTI21HsAnchorPointInCenter @ 527 NONAME
	_ZTI21HsHostedWidgetFactory @ 528 NONAME
	_ZTI23HsBackupRestoreObserver @ 529 NONAME
	_ZTI23HsWallpaperLoaderThread @ 530 NONAME
	_ZTI25HsWidgetComponentRegistry @ 531 NONAME
	_ZTI26HsAnchorPointInBottomRight @ 532 NONAME
	_ZTI30HsWidgetPositioningOnWidgetAdd @ 533 NONAME
	_ZTI5HsGui @ 534 NONAME
	_ZTI6HsPage @ 535 NONAME
	_ZTI7HsScene @ 536 NONAME
	_ZTV10HsDatabase @ 537 NONAME
	_ZTV11HsWallpaper @ 538 NONAME
	_ZTV12HsIdleWidget @ 539 NONAME
	_ZTV12HsPageVisual @ 540 NONAME
	_ZTV12HsWidgetHost @ 541 NONAME
	_ZTV15HsConfiguration @ 542 NONAME
	_ZTV15HsPageWallpaper @ 543 NONAME
	_ZTV16HsContentService @ 544 NONAME
	_ZTV16HsSceneWallpaper @ 545 NONAME
	_ZTV17HsShortcutService @ 546 NONAME
	_ZTV17HsWallpaperLoader @ 547 NONAME
	_ZTV17HsWidgetComponent @ 548 NONAME
	_ZTV17HsWidgetOrganizer @ 549 NONAME
	_ZTV18HsWidgetHostVisual @ 550 NONAME
	_ZTV21HsAnchorPointInCenter @ 551 NONAME
	_ZTV21HsHostedWidgetFactory @ 552 NONAME
	_ZTV23HsBackupRestoreObserver @ 553 NONAME
	_ZTV23HsWallpaperLoaderThread @ 554 NONAME
	_ZTV25HsWidgetComponentRegistry @ 555 NONAME
	_ZTV26HsAnchorPointInBottomRight @ 556 NONAME
	_ZTV5HsGui @ 557 NONAME
	_ZTV6HsPage @ 558 NONAME
	_ZTV7HsScene @ 559 NONAME
	_ZThn16_N11HsWallpaperD0Ev @ 560 NONAME
	_ZThn16_N11HsWallpaperD1Ev @ 561 NONAME
	_ZThn16_N12HsIdleWidget11setGeometryERK6QRectF @ 562 NONAME
	_ZThn16_N12HsIdleWidgetD0Ev @ 563 NONAME
	_ZThn16_N12HsIdleWidgetD1Ev @ 564 NONAME
	_ZThn16_N12HsPageVisual11setGeometryERK6QRectF @ 565 NONAME
	_ZThn16_N12HsPageVisualD0Ev @ 566 NONAME
	_ZThn16_N12HsPageVisualD1Ev @ 567 NONAME
	_ZThn16_N15HsPageWallpaperD0Ev @ 568 NONAME
	_ZThn16_N15HsPageWallpaperD1Ev @ 569 NONAME
	_ZThn16_N16HsSceneWallpaperD0Ev @ 570 NONAME
	_ZThn16_N16HsSceneWallpaperD1Ev @ 571 NONAME
	_ZThn16_N18HsWidgetHostVisualD0Ev @ 572 NONAME
	_ZThn16_N18HsWidgetHostVisualD1Ev @ 573 NONAME
	_ZThn8_N11HsWallpaperD0Ev @ 574 NONAME
	_ZThn8_N11HsWallpaperD1Ev @ 575 NONAME
	_ZThn8_N12HsIdleWidgetD0Ev @ 576 NONAME
	_ZThn8_N12HsIdleWidgetD1Ev @ 577 NONAME
	_ZThn8_N12HsPageVisualD0Ev @ 578 NONAME
	_ZThn8_N12HsPageVisualD1Ev @ 579 NONAME
	_ZThn8_N15HsPageWallpaperD0Ev @ 580 NONAME
	_ZThn8_N15HsPageWallpaperD1Ev @ 581 NONAME
	_ZThn8_N16HsSceneWallpaperD0Ev @ 582 NONAME
	_ZThn8_N16HsSceneWallpaperD1Ev @ 583 NONAME
	_ZThn8_N18HsWidgetHostVisualD0Ev @ 584 NONAME
	_ZThn8_N18HsWidgetHostVisualD1Ev @ 585 NONAME
	_ZThn8_NK18HsWidgetHostVisual5shapeEv @ 586 NONAME

