EXPORTS
	_ZN16CNsmlContactItem4NewLEv @ 1 NONAME
	_ZN16CNsmlContactItem5NewLCEv @ 2 NONAME
	_ZN16CNsmlContactItemC1Ev @ 3 NONAME
	_ZN16CNsmlContactItemC2Ev @ 4 NONAME
	_ZN16CNsmlContactItemD0Ev @ 5 NONAME
	_ZN16CNsmlContactItemD1Ev @ 6 NONAME
	_ZN16CNsmlContactItemD2Ev @ 7 NONAME
	_ZN31CNsmlContactsDataStoreExtension10ConstructLERK7TDesC16 @ 8 NONAME
	_ZN31CNsmlContactsDataStoreExtension10MachineIdLEv @ 9 NONAME
	_ZN31CNsmlContactsDataStoreExtension11ListStoresLEP12CDesC16Array @ 10 NONAME
	_ZN31CNsmlContactsDataStoreExtension12ReadContactLERK4TUidP16CNsmlContactItem @ 11 NONAME
	_ZN31CNsmlContactsDataStoreExtension13ListContactsLEP13CArrayFixFlatI4TUidE @ 12 NONAME
	_ZN31CNsmlContactsDataStoreExtension14DeleteContactLERK4TUid @ 13 NONAME
	_ZN31CNsmlContactsDataStoreExtension15DeleteContactsLEP13CArrayFixFlatI4TUidE @ 14 NONAME
	_ZN31CNsmlContactsDataStoreExtension15ExportContactsLERK4TUidR8CBufBase @ 15 NONAME
	_ZN31CNsmlContactsDataStoreExtension15ImportContactsLERK6TDesC8 @ 16 NONAME
	_ZN31CNsmlContactsDataStoreExtension18DeleteAllContactsLEv @ 17 NONAME
	_ZN31CNsmlContactsDataStoreExtension4NewLERK7TDesC16 @ 18 NONAME
	_ZN31CNsmlContactsDataStoreExtension5NewLCERK7TDesC16 @ 19 NONAME
	_ZN31CNsmlContactsDataStoreExtensionC1Ev @ 20 NONAME
	_ZN31CNsmlContactsDataStoreExtensionC2Ev @ 21 NONAME
	_ZN31CNsmlContactsDataStoreExtensionD0Ev @ 22 NONAME
	_ZN31CNsmlContactsDataStoreExtensionD1Ev @ 23 NONAME
	_ZN31CNsmlContactsDataStoreExtensionD2Ev @ 24 NONAME

