EXPORTS
	?getStaticMetaObject@ScreensaverPluginUnloader@@SAABUQMetaObject@@XZ @ 1 NONAME ; struct QMetaObject const & ScreensaverPluginUnloader::getStaticMetaObject(void)
	?trUtf8@ScreensaverPluginUnloader@@SA?AVQString@@PBD0@Z @ 2 NONAME ; class QString ScreensaverPluginUnloader::trUtf8(char const *, char const *)
	?qt_metacast@ScreensaverPluginUnloader@@UAEPAXPBD@Z @ 3 NONAME ; void * ScreensaverPluginUnloader::qt_metacast(char const *)
	?currentState@Screensaver@@QAE?AW4ScreensaverState@@XZ @ 4 NONAME ; enum ScreensaverState Screensaver::currentState(void)
	??0ScreensaverPluginUnloader@@QAE@PAVQPluginLoader@@PAVQObject@@@Z @ 5 NONAME ; ScreensaverPluginUnloader::ScreensaverPluginUnloader(class QPluginLoader *, class QObject *)
	?trUtf8@ScreensaverFactory@@SA?AVQString@@PBD0H@Z @ 6 NONAME ; class QString ScreensaverFactory::trUtf8(char const *, char const *, int)
	?faulted@Screensaver@@IAEXXZ @ 7 NONAME ; void Screensaver::faulted(void)
	?background@Screensaver@@QAEXXZ @ 8 NONAME ; void Screensaver::background(void)
	?qt_metacast@ScreensaverFactory@@UAEPAXPBD@Z @ 9 NONAME ; void * ScreensaverFactory::qt_metacast(char const *)
	?close@Screensaver@@QAEXXZ @ 10 NONAME ; void Screensaver::close(void)
	??0Screensaver@@QAE@PAVQObject@@@Z @ 11 NONAME ; Screensaver::Screensaver(class QObject *)
	?viewChanged@Screensaver@@IAEXPAVQGraphicsWidget@@@Z @ 12 NONAME ; void Screensaver::viewChanged(class QGraphicsWidget *)
	?tr@Screensaver@@SA?AVQString@@PBD0@Z @ 13 NONAME ; class QString Screensaver::tr(char const *, char const *)
	?staticMetaObject@ScreensaverPluginUnloader@@2UQMetaObject@@B @ 14 NONAME ; struct QMetaObject const ScreensaverPluginUnloader::staticMetaObject
	?staticMetaObject@ScreensaverFactory@@2UQMetaObject@@B @ 15 NONAME ; struct QMetaObject const ScreensaverFactory::staticMetaObject
	?foreground@Screensaver@@QAEXXZ @ 16 NONAME ; void Screensaver::foreground(void)
	??1ScreensaverPluginUnloader@@UAE@XZ @ 17 NONAME ; ScreensaverPluginUnloader::~ScreensaverPluginUnloader(void)
	?qt_metacall@ScreensaverPluginUnloader@@UAEHW4Call@QMetaObject@@HPAPAX@Z @ 18 NONAME ; int ScreensaverPluginUnloader::qt_metacall(enum QMetaObject::Call, int, void * *)
	?onInitialize@Screensaver@@MAE_NXZ @ 19 NONAME ; bool Screensaver::onInitialize(void)
	?tr@ScreensaverFactory@@SA?AVQString@@PBD0@Z @ 20 NONAME ; class QString ScreensaverFactory::tr(char const *, char const *)
	??0ScreensaverFactory@@QAE@ABVQString@@PAVQObject@@@Z @ 21 NONAME ; ScreensaverFactory::ScreensaverFactory(class QString const &, class QObject *)
	?getStaticMetaObject@ScreensaverFactory@@SAABUQMetaObject@@XZ @ 22 NONAME ; struct QMetaObject const & ScreensaverFactory::getStaticMetaObject(void)
	??1ScreensaverFactory@@UAE@XZ @ 23 NONAME ; ScreensaverFactory::~ScreensaverFactory(void)
	??1Screensaver@@UAE@XZ @ 24 NONAME ; Screensaver::~Screensaver(void)
	?tr@ScreensaverPluginUnloader@@SA?AVQString@@PBD0@Z @ 25 NONAME ; class QString ScreensaverPluginUnloader::tr(char const *, char const *)
	?tr@ScreensaverPluginUnloader@@SA?AVQString@@PBD0H@Z @ 26 NONAME ; class QString ScreensaverPluginUnloader::tr(char const *, char const *, int)
	??_EScreensaverFactory@@UAE@I@Z @ 27 NONAME ; ScreensaverFactory::~ScreensaverFactory(unsigned int)
	?metaObject@Screensaver@@UBEPBUQMetaObject@@XZ @ 28 NONAME ; struct QMetaObject const * Screensaver::metaObject(void) const
	?qt_metacall@ScreensaverFactory@@UAEHW4Call@QMetaObject@@HPAPAX@Z @ 29 NONAME ; int ScreensaverFactory::qt_metacall(enum QMetaObject::Call, int, void * *)
	??_EScreensaver@@UAE@I@Z @ 30 NONAME ; Screensaver::~Screensaver(unsigned int)
	?qt_metacast@Screensaver@@UAEPAXPBD@Z @ 31 NONAME ; void * Screensaver::qt_metacast(char const *)
	?staticMetaObject@Screensaver@@2UQMetaObject@@B @ 32 NONAME ; struct QMetaObject const Screensaver::staticMetaObject
	?metaObject@ScreensaverPluginUnloader@@UBEPBUQMetaObject@@XZ @ 33 NONAME ; struct QMetaObject const * ScreensaverPluginUnloader::metaObject(void) const
	?trUtf8@ScreensaverPluginUnloader@@SA?AVQString@@PBD0H@Z @ 34 NONAME ; class QString ScreensaverPluginUnloader::trUtf8(char const *, char const *, int)
	?tr@Screensaver@@SA?AVQString@@PBD0H@Z @ 35 NONAME ; class QString Screensaver::tr(char const *, char const *, int)
	?metaObject@ScreensaverFactory@@UBEPBUQMetaObject@@XZ @ 36 NONAME ; struct QMetaObject const * ScreensaverFactory::metaObject(void) const
	?tr@ScreensaverFactory@@SA?AVQString@@PBD0H@Z @ 37 NONAME ; class QString ScreensaverFactory::tr(char const *, char const *, int)
	?trUtf8@ScreensaverFactory@@SA?AVQString@@PBD0@Z @ 38 NONAME ; class QString ScreensaverFactory::trUtf8(char const *, char const *)
	?trUtf8@Screensaver@@SA?AVQString@@PBD0H@Z @ 39 NONAME ; class QString Screensaver::trUtf8(char const *, char const *, int)
	?trUtf8@Screensaver@@SA?AVQString@@PBD0@Z @ 40 NONAME ; class QString Screensaver::trUtf8(char const *, char const *)
	?getStaticMetaObject@Screensaver@@SAABUQMetaObject@@XZ @ 41 NONAME ; struct QMetaObject const & Screensaver::getStaticMetaObject(void)
	?createScreensaver@ScreensaverFactory@@QAEPAVScreensaver@@ABVScreensaverToken@@@Z @ 42 NONAME ; class Screensaver * ScreensaverFactory::createScreensaver(class ScreensaverToken const &)
	?qt_metacall@Screensaver@@UAEHW4Call@QMetaObject@@HPAPAX@Z @ 43 NONAME ; int Screensaver::qt_metacall(enum QMetaObject::Call, int, void * *)
	??_EScreensaverPluginUnloader@@UAE@I@Z @ 44 NONAME ; ScreensaverPluginUnloader::~ScreensaverPluginUnloader(unsigned int)
	?powerSave@Screensaver@@QAEXXZ @ 45 NONAME ; void Screensaver::powerSave(void)
	?partialForeground@Screensaver@@QAEXXZ @ 46 NONAME ; void Screensaver::partialForeground(void)
	?initialize@Screensaver@@QAEXXZ @ 47 NONAME ; void Screensaver::initialize(void)
	?onClose@Screensaver@@MAE_NXZ @ 48 NONAME ; bool Screensaver::onClose(void)
	?unlockRequested@Screensaver@@IAEXXZ @ 49 NONAME ; void Screensaver::unlockRequested(void)
	?onHandleDeactivatedIndicator@Screensaver@@MAEXPAVHbIndicatorInterface@@@Z @ 50 NONAME ; void Screensaver::onHandleDeactivatedIndicator(class HbIndicatorInterface *)
	?handleActivatedIndicator@Screensaver@@QAEXPAVHbIndicatorInterface@@@Z @ 51 NONAME ; void Screensaver::handleActivatedIndicator(class HbIndicatorInterface *)
	?onHandleActivatedIndicator@Screensaver@@MAEXPAVHbIndicatorInterface@@@Z @ 52 NONAME ; void Screensaver::onHandleActivatedIndicator(class HbIndicatorInterface *)
	?handleDeactivatedIndicator@Screensaver@@QAEXPAVHbIndicatorInterface@@@Z @ 53 NONAME ; void Screensaver::handleDeactivatedIndicator(class HbIndicatorInterface *)
	?onHandleActiveIndicators@Screensaver@@MAEXABV?$QList@PAVHbIndicatorInterface@@@@@Z @ 54 NONAME ; void Screensaver::onHandleActiveIndicators(class QList<class HbIndicatorInterface *> const &)
	?handleActiveIndicators@Screensaver@@QAEXABV?$QList@PAVHbIndicatorInterface@@@@@Z @ 55 NONAME ; void Screensaver::handleActiveIndicators(class QList<class HbIndicatorInterface *> const &)
	?activeAreaMoved@Screensaver@@IAEXXZ @ 56 NONAME ; void Screensaver::activeAreaMoved(void)

