EXPORTS
	?numberGroupingSupported@SettingsWrapper@@QBE_NXZ @ 1 NONAME ; bool SettingsWrapper::numberGroupingSupported(void) const
	?trUtf8@SettingsWrapper@@SA?AVQString@@PBD0H@Z @ 2 NONAME ; class QString SettingsWrapper::trUtf8(char const *, char const *, int)
	?getStaticMetaObject@PhoneLocalisation@@SAABUQMetaObject@@XZ @ 3 NONAME ; struct QMetaObject const & PhoneLocalisation::getStaticMetaObject(void)
	?qt_metacast@PhoneLocalisation@@UAEPAXPBD@Z @ 4 NONAME ; void * PhoneLocalisation::qt_metacast(char const *)
	?qt_metacall@SettingsWrapper@@UAEHW4Call@QMetaObject@@HPAPAX@Z @ 5 NONAME ; int SettingsWrapper::qt_metacall(enum QMetaObject::Call, int, void * *)
	??_EPhoneLocalisation@@UAE@I@Z @ 6 NONAME ; PhoneLocalisation::~PhoneLocalisation(unsigned int)
	?readSoftRejectText@SettingsWrapper@@QAEXAAVQString@@AA_N@Z @ 7 NONAME ; void SettingsWrapper::readSoftRejectText(class QString &, bool &)
	?removeTranslators@PhoneLocalisation@@QAEXXZ @ 8 NONAME ; void PhoneLocalisation::removeTranslators(void)
	?getStaticMetaObject@Tools@@SAABUQMetaObject@@XZ @ 9 NONAME ; struct QMetaObject const & Tools::getStaticMetaObject(void)
	?isPhoneOffline@SettingsWrapper@@QBE_NXZ @ 10 NONAME ; bool SettingsWrapper::isPhoneOffline(void) const
	?staticMetaObject@PhoneLocalisation@@2UQMetaObject@@B @ 11 NONAME ; struct QMetaObject const PhoneLocalisation::staticMetaObject
	?trUtf8@PhoneLocalisation@@SA?AVQString@@PBD0@Z @ 12 NONAME ; class QString PhoneLocalisation::trUtf8(char const *, char const *)
	?qt_metacast@SettingsWrapper@@UAEPAXPBD@Z @ 13 NONAME ; void * SettingsWrapper::qt_metacast(char const *)
	?trUtf8@SettingsWrapper@@SA?AVQString@@PBD0@Z @ 14 NONAME ; class QString SettingsWrapper::trUtf8(char const *, char const *)
	??1PhoneLocalisation@@UAE@XZ @ 15 NONAME ; PhoneLocalisation::~PhoneLocalisation(void)
	?tr@SettingsWrapper@@SA?AVQString@@PBD0@Z @ 16 NONAME ; class QString SettingsWrapper::tr(char const *, char const *)
	?forbiddenIconSupported@SettingsWrapper@@QBE_NXZ @ 17 NONAME ; bool SettingsWrapper::forbiddenIconSupported(void) const
	?tr@PhoneLocalisation@@SA?AVQString@@PBD0H@Z @ 18 NONAME ; class QString PhoneLocalisation::tr(char const *, char const *, int)
	?metaObject@Tools@@UBEPBUQMetaObject@@XZ @ 19 NONAME ; struct QMetaObject const * Tools::metaObject(void) const
	?writeSoftRejectText@SettingsWrapper@@QAEHABVQString@@_N@Z @ 20 NONAME ; int SettingsWrapper::writeSoftRejectText(class QString const &, bool)
	?readCenrepString@SettingsWrapper@@ABE?AVQString@@JK@Z @ 21 NONAME ; class QString SettingsWrapper::readCenrepString(long, unsigned long) const
	??0PhoneLocalisation@@QAE@PAVQObject@@@Z @ 22 NONAME ; PhoneLocalisation::PhoneLocalisation(class QObject *)
	?videoSupported@Tools@@SA_NXZ @ 23 NONAME ; bool Tools::videoSupported(void)
	?tr@SettingsWrapper@@SA?AVQString@@PBD0H@Z @ 24 NONAME ; class QString SettingsWrapper::tr(char const *, char const *, int)
	?metaObject@PhoneLocalisation@@UBEPBUQMetaObject@@XZ @ 25 NONAME ; struct QMetaObject const * PhoneLocalisation::metaObject(void) const
	?installTranslator@PhoneLocalisation@@QAE_NW4TranslationFileId@1@@Z @ 26 NONAME ; bool PhoneLocalisation::installTranslator(enum PhoneLocalisation::TranslationFileId)
	?isFeatureCallWaitingDistiquishNotProvisionedEnabled@SettingsWrapper@@QAE_NXZ @ 27 NONAME ; bool SettingsWrapper::isFeatureCallWaitingDistiquishNotProvisionedEnabled(void)
	?isOngoingCall@SettingsWrapper@@QBE_NXZ @ 28 NONAME ; bool SettingsWrapper::isOngoingCall(void) const
	?tr@PhoneLocalisation@@SA?AVQString@@PBD0@Z @ 29 NONAME ; class QString PhoneLocalisation::tr(char const *, char const *)
	?qt_metacall@Tools@@UAEHW4Call@QMetaObject@@HPAPAX@Z @ 30 NONAME ; int Tools::qt_metacall(enum QMetaObject::Call, int, void * *)
	?writeCenrepValue@SettingsWrapper@@ABEHJKABVQVariant@@@Z @ 31 NONAME ; int SettingsWrapper::writeCenrepValue(long, unsigned long, class QVariant const &) const
	?staticMetaObject@SettingsWrapper@@2UQMetaObject@@B @ 32 NONAME ; struct QMetaObject const SettingsWrapper::staticMetaObject
	?readVtVideoSending@SettingsWrapper@@QAEHXZ @ 33 NONAME ; int SettingsWrapper::readVtVideoSending(void)
	?readPubSubValue@SettingsWrapper@@ABE?AVQVariant@@JK@Z @ 34 NONAME ; class QVariant SettingsWrapper::readPubSubValue(long, unsigned long) const
	?tr@Tools@@SA?AVQString@@PBD0@Z @ 35 NONAME ; class QString Tools::tr(char const *, char const *)
	?readCenrepValue@SettingsWrapper@@ABE?AVQVariant@@JK@Z @ 36 NONAME ; class QVariant SettingsWrapper::readCenrepValue(long, unsigned long) const
	?trUtf8@PhoneLocalisation@@SA?AVQString@@PBD0H@Z @ 37 NONAME ; class QString PhoneLocalisation::trUtf8(char const *, char const *, int)
	?voipSupported@Tools@@SA_NXZ @ 38 NONAME ; bool Tools::voipSupported(void)
	?qt_metacast@Tools@@UAEPAXPBD@Z @ 39 NONAME ; void * Tools::qt_metacast(char const *)
	?trUtf8@Tools@@SA?AVQString@@PBD0H@Z @ 40 NONAME ; class QString Tools::trUtf8(char const *, char const *, int)
	?qt_metacall@PhoneLocalisation@@UAEHW4Call@QMetaObject@@HPAPAX@Z @ 41 NONAME ; int PhoneLocalisation::qt_metacall(enum QMetaObject::Call, int, void * *)
	??0SettingsWrapper@@QAE@PAVQObject@@@Z @ 42 NONAME ; SettingsWrapper::SettingsWrapper(class QObject *)
	?tr@Tools@@SA?AVQString@@PBD0H@Z @ 43 NONAME ; class QString Tools::tr(char const *, char const *, int)
	?setShowCallDuration@SettingsWrapper@@QAEH_N@Z @ 44 NONAME ; int SettingsWrapper::setShowCallDuration(bool)
	?metaObject@SettingsWrapper@@UBEPBUQMetaObject@@XZ @ 45 NONAME ; struct QMetaObject const * SettingsWrapper::metaObject(void) const
	?getStaticMetaObject@SettingsWrapper@@SAABUQMetaObject@@XZ @ 46 NONAME ; struct QMetaObject const & SettingsWrapper::getStaticMetaObject(void)
	?showCallDuration@SettingsWrapper@@QAE_NXZ @ 47 NONAME ; bool SettingsWrapper::showCallDuration(void)
	?writeVtVideoSending@SettingsWrapper@@QAEHH@Z @ 48 NONAME ; int SettingsWrapper::writeVtVideoSending(int)
	??1SettingsWrapper@@UAE@XZ @ 49 NONAME ; SettingsWrapper::~SettingsWrapper(void)
	?staticMetaObject@Tools@@2UQMetaObject@@B @ 50 NONAME ; struct QMetaObject const Tools::staticMetaObject
	??_ESettingsWrapper@@UAE@I@Z @ 51 NONAME ; SettingsWrapper::~SettingsWrapper(unsigned int)
	?trUtf8@Tools@@SA?AVQString@@PBD0@Z @ 52 NONAME ; class QString Tools::trUtf8(char const *, char const *)

