EXPORTS
	?tr@RadioUiEngine@@SA?AVQString@@PBD0@Z @ 1 NONAME ; class QString RadioUiEngine::tr(char const *, char const *)
	?setFrequency@RadioHistoryItem@@QAEXI@Z @ 2 NONAME ; void RadioHistoryItem::setFrequency(unsigned int)
	?currentStation@RadioStationModel@@QBEABVRadioStation@@XZ @ 3 NONAME ; class RadioStation const & RadioStationModel::currentStation(void) const
	?rowCount@RadioHistoryModel@@UBEHABVQModelIndex@@@Z @ 4 NONAME ; int RadioHistoryModel::rowCount(class QModelIndex const &) const
	?contains@RadioStationModel@@QBE_NI@Z @ 5 NONAME ; bool RadioStationModel::contains(unsigned int) const
	?qt_metacast@RadioUiEngine@@UAEPAXPBD@Z @ 6 NONAME ; void * RadioUiEngine::qt_metacast(char const *)
	?parseFrequency@RadioStation@@SA?AVQString@@I@Z @ 7 NONAME ; class QString RadioStation::parseFrequency(unsigned int)
	??0RadioStation@@QAE@ABV0@@Z @ 8 NONAME ; RadioStation::RadioStation(class RadioStation const &)
	?region@RadioUiEngine@@QBE?AW4Region@RadioRegion@@XZ @ 9 NONAME ; enum RadioRegion::Region RadioUiEngine::region(void) const
	?frequency@RadioStation@@QBEIXZ @ 10 NONAME ; unsigned int RadioStation::frequency(void) const
	?setFavoriteByFrequency@RadioStationModel@@QAEXI_N@Z @ 11 NONAME ; void RadioStationModel::setFavoriteByFrequency(unsigned int, bool)
	?isInitialized@RadioUiEngine@@QBE_NXZ @ 12 NONAME ; bool RadioUiEngine::isInitialized(void) const
	?staticMetaObject@RadioUiEngine@@2UQMetaObject@@B @ 13 NONAME ; struct QMetaObject const RadioUiEngine::staticMetaObject
	?indexFromFrequency@RadioStationModel@@QAEHI@Z @ 14 NONAME ; int RadioStationModel::indexFromFrequency(unsigned int)
	?stationsInRange@RadioStationModel@@QAE?AV?$QList@VRadioStation@@@@II@Z @ 15 NONAME ; class QList<class RadioStation> RadioStationModel::stationsInRange(unsigned int, unsigned int)
	?settings@RadioUiEngine@@QAEAAVRadioSettingsIf@@XZ @ 16 NONAME ; class RadioSettingsIf & RadioUiEngine::settings(void)
	?emitAntennaStatusChanged@RadioUiEngine@@AAEX_N@Z @ 17 NONAME ; void RadioUiEngine::emitAntennaStatusChanged(bool)
	?hasPiCode@RadioStation@@QBE_NXZ @ 18 NONAME ; bool RadioStation::hasPiCode(void) const
	??_ERadioScannerEngine@@UAE@I@Z @ 19 NONAME ; RadioScannerEngine::~RadioScannerEngine(unsigned int)
	?setFavoriteByPreset@RadioStationModel@@QAEXH_N@Z @ 20 NONAME ; void RadioStationModel::setFavoriteByPreset(int, bool)
	?rdsAvailabilityChanged@RadioUiEngine@@IAEX_N@Z @ 21 NONAME ; void RadioUiEngine::rdsAvailabilityChanged(bool)
	?findPresetIndex@RadioStationModel@@QAEHHAAVRadioStation@@@Z @ 22 NONAME ; int RadioStationModel::findPresetIndex(int, class RadioStation &)
	?stationHandlerIf@RadioStationModel@@QAEAAVRadioStationHandlerIf@@XZ @ 23 NONAME ; class RadioStationHandlerIf & RadioStationModel::stationHandlerIf(void)
	?qt_metacall@RadioHistoryModel@@UAEHW4Call@QMetaObject@@HPAPAX@Z @ 24 NONAME ; int RadioHistoryModel::qt_metacall(enum QMetaObject::Call, int, void * *)
	?frequencyString@RadioStation@@QBE?AVQString@@XZ @ 25 NONAME ; class QString RadioStation::frequencyString(void) const
	?emitVolumeChanged@RadioUiEngine@@AAEXH@Z @ 26 NONAME ; void RadioUiEngine::emitVolumeChanged(int)
	?qt_metacall@RadioUiEngine@@UAEHW4Call@QMetaObject@@HPAPAX@Z @ 27 NONAME ; int RadioUiEngine::qt_metacall(enum QMetaObject::Call, int, void * *)
	?reset@RadioStation@@AAEXXZ @ 28 NONAME ; void RadioStation::reset(void)
	?createScannerEngine@RadioUiEngine@@QAE?AV?$QSharedPointer@VRadioScannerEngine@@@@XZ @ 29 NONAME ; class QSharedPointer<class RadioScannerEngine> RadioUiEngine::createScannerEngine(void)
	?emitAudioRouteChanged@RadioUiEngine@@AAEX_N@Z @ 30 NONAME ; void RadioUiEngine::emitAudioRouteChanged(bool)
	?addItem@RadioHistoryModel@@AAEXABVQString@@0ABVRadioStation@@@Z @ 31 NONAME ; void RadioHistoryModel::addItem(class QString const &, class QString const &, class RadioStation const &)
	?d_func@RadioScannerEngine@@ABEPBVRadioScannerEnginePrivate@@XZ @ 32 NONAME ; class RadioScannerEnginePrivate const * RadioScannerEngine::d_func(void) const
	??4RadioStation@@QAEAAV0@ABV0@@Z @ 33 NONAME ; class RadioStation & RadioStation::operator=(class RadioStation const &)
	?toggleAudioRoute@RadioUiEngine@@QAEXXZ @ 34 NONAME ; void RadioUiEngine::toggleAudioRoute(void)
	?stationModel@RadioUiEngine@@QAEAAVRadioStationModel@@XZ @ 35 NONAME ; class RadioStationModel & RadioUiEngine::stationModel(void)
	?unsetType@RadioStation@@QAEXV?$QFlags@W4TypeFlag@RadioStation@@@@@Z @ 36 NONAME ; void RadioStation::unsetType(class QFlags<enum RadioStation::TypeFlag>)
	?toggleTagging@RadioHistoryModel@@QAEXABVRadioHistoryItem@@H@Z @ 37 NONAME ; void RadioHistoryModel::toggleTagging(class RadioHistoryItem const &, int)
	?muteChanged@RadioUiEngine@@IAEX_N@Z @ 38 NONAME ; void RadioUiEngine::muteChanged(bool)
	?maxFrequency@RadioUiEngine@@QBEIXZ @ 39 NONAME ; unsigned int RadioUiEngine::maxFrequency(void) const
	?saveStation@RadioStationModel@@QAEXAAVRadioStation@@@Z @ 40 NONAME ; void RadioStationModel::saveStation(class RadioStation &)
	?getStaticMetaObject@RadioHistoryModel@@SAABUQMetaObject@@XZ @ 41 NONAME ; struct QMetaObject const & RadioHistoryModel::getStaticMetaObject(void)
	?findUnusedPresetIndex@RadioStationModel@@AAEHXZ @ 42 NONAME ; int RadioStationModel::findUnusedPresetIndex(void)
	?hasChanged@RadioStation@@QBE_NXZ @ 43 NONAME ; bool RadioStation::hasChanged(void) const
	?trUtf8@RadioScannerEngine@@SA?AVQString@@PBD0H@Z @ 44 NONAME ; class QString RadioScannerEngine::trUtf8(char const *, char const *, int)
	?isScanning@RadioUiEngine@@QBE_NXZ @ 45 NONAME ; bool RadioUiEngine::isScanning(void) const
	?dynamicPsCheckEnded@RadioStationModel@@AAEXXZ @ 46 NONAME ; void RadioStationModel::dynamicPsCheckEnded(void)
	?d_func@RadioHistoryModel@@AAEPAVRadioHistoryModelPrivate@@XZ @ 47 NONAME ; class RadioHistoryModelPrivate * RadioHistoryModel::d_func(void)
	?skipStation@RadioUiEngine@@QAEIW4Mode@StationSkip@@IH@Z @ 48 NONAME ; unsigned int RadioUiEngine::skipStation(enum StationSkip::Mode, unsigned int, int)
	?setFrequency@RadioStation@@AAEXI@Z @ 49 NONAME ; void RadioStation::setFrequency(unsigned int)
	?piCodeToCallSign@RadioStation@@AAE?AVQString@@I@Z @ 50 NONAME ; class QString RadioStation::piCodeToCallSign(unsigned int)
	?seekStation@RadioUiEngine@@QAEXH@Z @ 51 NONAME ; void RadioUiEngine::seekStation(int)
	?favoriteChanged@RadioStationModel@@IAEXABVRadioStation@@@Z @ 52 NONAME ; void RadioStationModel::favoriteChanged(class RadioStation const &)
	?radioStatusChanged@RadioUiEngine@@IAEX_N@Z @ 53 NONAME ; void RadioUiEngine::radioStatusChanged(bool)
	?setIcons@RadioHistoryModel@@QAEXABVQIcon@@0@Z @ 54 NONAME ; void RadioHistoryModel::setIcons(class QIcon const &, class QIcon const &)
	?isCurrentSongRecognized@RadioHistoryModel@@QBE_NXZ @ 55 NONAME ; bool RadioHistoryModel::isCurrentSongRecognized(void) const
	?addStation@RadioStationModel@@QAEXABVRadioStation@@@Z @ 56 NONAME ; void RadioStationModel::addStation(class RadioStation const &)
	?clearRadioTextPlus@RadioHistoryModel@@AAEXXZ @ 57 NONAME ; void RadioHistoryModel::clearRadioTextPlus(void)
	?favoriteCount@RadioStationModel@@QAEHXZ @ 58 NONAME ; int RadioStationModel::favoriteCount(void)
	??1RadioScannerEngine@@UAE@XZ @ 59 NONAME ; RadioScannerEngine::~RadioScannerEngine(void)
	?tunedToFrequency@RadioUiEngine@@IAEXIH@Z @ 60 NONAME ; void RadioUiEngine::tunedToFrequency(unsigned int, int)
	?tr@RadioUiEngine@@SA?AVQString@@PBD0H@Z @ 61 NONAME ; class QString RadioUiEngine::tr(char const *, char const *, int)
	?launchBrowser@RadioUiEngine@@QAEXABVQString@@@Z @ 62 NONAME ; void RadioUiEngine::launchBrowser(class QString const &)
	?isScanning@RadioScannerEngine@@QBE_NXZ @ 63 NONAME ; bool RadioScannerEngine::isScanning(void) const
	??1RadioHistoryItem@@QAE@XZ @ 64 NONAME ; RadioHistoryItem::~RadioHistoryItem(void)
	?trUtf8@RadioScannerEngine@@SA?AVQString@@PBD0@Z @ 65 NONAME ; class QString RadioScannerEngine::trUtf8(char const *, char const *)
	?hasName@RadioStation@@QBE_NXZ @ 66 NONAME ; bool RadioStation::hasName(void) const
	?emitDataChanged@RadioStationModel@@AAEXABVRadioStation@@@Z @ 67 NONAME ; void RadioStationModel::emitDataChanged(class RadioStation const &)
	?setPowerOff@RadioUiEngine@@QAEXH@Z @ 68 NONAME ; void RadioUiEngine::setPowerOff(int)
	?isRadioOn@RadioUiEngine@@QBE_NXZ @ 69 NONAME ; bool RadioUiEngine::isRadioOn(void) const
	?continueScanning@RadioScannerEngine@@QAEXXZ @ 70 NONAME ; void RadioScannerEngine::continueScanning(void)
	?trUtf8@RadioHistoryModel@@SA?AVQString@@PBD0H@Z @ 71 NONAME ; class QString RadioHistoryModel::trUtf8(char const *, char const *, int)
	?removeByModelIndices@RadioHistoryModel@@QAEXAAV?$QList@VQModelIndex@@@@_N@Z @ 72 NONAME ; void RadioHistoryModel::removeByModelIndices(class QList<class QModelIndex> &, bool)
	?localCount@RadioStationModel@@QAEHXZ @ 73 NONAME ; int RadioStationModel::localCount(void)
	?list@RadioStationModel@@QBEABV?$QMap@IVRadioStation@@@@XZ @ 74 NONAME ; class QMap<unsigned int, class RadioStation> const & RadioStationModel::list(void) const
	?tr@RadioStationModel@@SA?AVQString@@PBD0@Z @ 75 NONAME ; class QString RadioStationModel::tr(char const *, char const *)
	?findClosest@RadioStationModel@@QAE?AVRadioStation@@IW4Mode@StationSkip@@@Z @ 76 NONAME ; class RadioStation RadioStationModel::findClosest(unsigned int, enum StationSkip::Mode)
	?flags@RadioStationModel@@UBE?AV?$QFlags@W4ItemFlag@Qt@@@@ABVQModelIndex@@@Z @ 77 NONAME ; class QFlags<enum Qt::ItemFlag> RadioStationModel::flags(class QModelIndex const &) const
	?launchRadioServer@RadioUiEngine@@SAXXZ @ 78 NONAME ; void RadioUiEngine::launchRadioServer(void)
	?staticMetaObject@RadioScannerEngine@@2UQMetaObject@@B @ 79 NONAME ; struct QMetaObject const RadioScannerEngine::staticMetaObject
	?id@RadioHistoryItem@@QBEHXZ @ 80 NONAME ; int RadioHistoryItem::id(void) const
	?stationsInRange@RadioUiEngine@@QAE?AV?$QList@VRadioStation@@@@II@Z @ 81 NONAME ; class QList<class RadioStation> RadioUiEngine::stationsInRange(unsigned int, unsigned int)
	?trUtf8@RadioUiEngine@@SA?AVQString@@PBD0@Z @ 82 NONAME ; class QString RadioUiEngine::trUtf8(char const *, char const *)
	?tr@RadioScannerEngine@@SA?AVQString@@PBD0H@Z @ 83 NONAME ; class QString RadioScannerEngine::tr(char const *, char const *, int)
	?setPiCode@RadioStation@@AAE_NHW4Region@RadioRegion@@@Z @ 84 NONAME ; bool RadioStation::setPiCode(int, enum RadioRegion::Region)
	?data_ptr@RadioHistoryItem@@QAEAAV?$QSharedDataPointer@VRadioHistoryItemPrivate@@@@XZ @ 85 NONAME ; class QSharedDataPointer<class RadioHistoryItemPrivate> & RadioHistoryItem::data_ptr(void)
	?radioText@RadioStation@@QBE?AVQString@@XZ @ 86 NONAME ; class QString RadioStation::radioText(void) const
	?setData@RadioStationModel@@UAE_NABVQModelIndex@@ABVQVariant@@H@Z @ 87 NONAME ; bool RadioStationModel::setData(class QModelIndex const &, class QVariant const &, int)
	?lastVolume@RadioUiEngine@@SAHXZ @ 88 NONAME ; int RadioUiEngine::lastVolume(void)
	?isInManualSeekMode@RadioUiEngine@@QBE_NXZ @ 89 NONAME ; bool RadioUiEngine::isInManualSeekMode(void) const
	?itemAtIndex@RadioHistoryModel@@QBE?AVRadioHistoryItem@@ABVQModelIndex@@@Z @ 90 NONAME ; class RadioHistoryItem RadioHistoryModel::itemAtIndex(class QModelIndex const &) const
	?setVolume@RadioUiEngine@@QAEXH@Z @ 91 NONAME ; void RadioUiEngine::setVolume(int)
	?setFavorite@RadioStation@@QAEX_N@Z @ 92 NONAME ; void RadioStation::setFavorite(bool)
	?d_func@RadioStationModel@@ABEPBVRadioStationModelPrivate@@XZ @ 93 NONAME ; class RadioStationModelPrivate const * RadioStationModel::d_func(void) const
	?emitChangeSignals@RadioStationModel@@AAEXABVRadioStation@@V?$QFlags@W4ChangeFlag@RadioStation@@@@@Z @ 94 NONAME ; void RadioStationModel::emitChangeSignals(class RadioStation const &, class QFlags<enum RadioStation::ChangeFlag>)
	?tr@RadioStationModel@@SA?AVQString@@PBD0H@Z @ 95 NONAME ; class QString RadioStationModel::tr(char const *, char const *, int)
	?hasUrl@RadioStation@@QBE_NXZ @ 96 NONAME ; bool RadioStation::hasUrl(void) const
	??1RadioStationModel@@UAE@XZ @ 97 NONAME ; RadioStationModel::~RadioStationModel(void)
	?isMuted@RadioUiEngine@@QBE_NXZ @ 98 NONAME ; bool RadioUiEngine::isMuted(void) const
	?renameStation@RadioStationModel@@QAEXHABVQString@@@Z @ 99 NONAME ; void RadioStationModel::renameStation(int, class QString const &)
	?currentFrequency@RadioUiEngine@@QBEIXZ @ 100 NONAME ; unsigned int RadioUiEngine::currentFrequency(void) const
	?emitItemAdded@RadioHistoryModel@@AAEXXZ @ 101 NONAME ; void RadioHistoryModel::emitItemAdded(void)
	?setUserDefinedName@RadioStation@@QAEXABVQString@@@Z @ 102 NONAME ; void RadioStation::setUserDefinedName(class QString const &)
	?setUrl@RadioStation@@AAEXABVQString@@@Z @ 103 NONAME ; void RadioStation::setUrl(class QString const &)
	?hasDynamicPs@RadioStation@@QBE_NXZ @ 104 NONAME ; bool RadioStation::hasDynamicPs(void) const
	??1RadioStation@@UAE@XZ @ 105 NONAME ; RadioStation::~RadioStation(void)
	?getStaticMetaObject@RadioScannerEngine@@SAABUQMetaObject@@XZ @ 106 NONAME ; struct QMetaObject const & RadioScannerEngine::getStaticMetaObject(void)
	?callSignString@RadioStation@@AAE?AVQString@@I@Z @ 107 NONAME ; class QString RadioStation::callSignString(unsigned int)
	?isValid@RadioStation@@QBE_NXZ @ 108 NONAME ; bool RadioStation::isValid(void) const
	?data_ptr@RadioStation@@QAEAAV?$QSharedDataPointer@VRadioStationPrivate@@@@XZ @ 109 NONAME ; class QSharedDataPointer<class RadioStationPrivate> & RadioStation::data_ptr(void)
	?trUtf8@RadioUiEngine@@SA?AVQString@@PBD0H@Z @ 110 NONAME ; class QString RadioUiEngine::trUtf8(char const *, char const *, int)
	?reset@RadioHistoryItem@@QAEXXZ @ 111 NONAME ; void RadioHistoryItem::reset(void)
	?trUtf8@RadioStationModel@@SA?AVQString@@PBD0@Z @ 112 NONAME ; class QString RadioStationModel::trUtf8(char const *, char const *)
	?setRadioTextPlus@RadioStation@@AAEXHABVQString@@@Z @ 113 NONAME ; void RadioStation::setRadioTextPlus(int, class QString const &)
	?setChangeFlags@RadioStation@@AAEXV?$QFlags@W4ChangeFlag@RadioStation@@@@@Z @ 114 NONAME ; void RadioStation::setChangeFlags(class QFlags<enum RadioStation::ChangeFlag>)
	??0RadioStationModel@@QAE@AAVRadioUiEnginePrivate@@@Z @ 115 NONAME ; RadioStationModel::RadioStationModel(class RadioUiEnginePrivate &)
	?stationDataChanged@RadioStationModel@@IAEXABVRadioStation@@@Z @ 116 NONAME ; void RadioStationModel::stationDataChanged(class RadioStation const &)
	?frequency@RadioHistoryItem@@QBEIXZ @ 117 NONAME ; unsigned int RadioHistoryItem::frequency(void) const
	?currentStation@RadioStationModel@@QAEAAVRadioStation@@XZ @ 118 NONAME ; class RadioStation & RadioStationModel::currentStation(void)
	?isDetached@RadioHistoryItem@@QBE_NXZ @ 119 NONAME ; bool RadioHistoryItem::isDetached(void) const
	?genre@RadioStation@@QBEHXZ @ 120 NONAME ; int RadioStation::genre(void) const
	?qt_metacall@RadioScannerEngine@@UAEHW4Call@QMetaObject@@HPAPAX@Z @ 121 NONAME ; int RadioScannerEngine::qt_metacall(enum QMetaObject::Call, int, void * *)
	?emitTunedToFrequency@RadioUiEngine@@AAEXIH@Z @ 122 NONAME ; void RadioUiEngine::emitTunedToFrequency(unsigned int, int)
	??0RadioStation@@QAE@XZ @ 123 NONAME ; RadioStation::RadioStation(void)
	?psType@RadioStation@@QBE?AV?$QFlags@W4PsTypeFlag@RadioStation@@@@XZ @ 124 NONAME ; class QFlags<enum RadioStation::PsTypeFlag> RadioStation::psType(void) const
	??1RadioHistoryModel@@UAE@XZ @ 125 NONAME ; RadioHistoryModel::~RadioHistoryModel(void)
	?d_func@RadioUiEngine@@ABEPBVRadioUiEnginePrivate@@XZ @ 126 NONAME ; class RadioUiEnginePrivate const * RadioUiEngine::d_func(void) const
	?findStation@RadioStationModel@@QBE?AVRadioStation@@IW4Criteria@FindCriteria@@@Z @ 127 NONAME ; class RadioStation RadioStationModel::findStation(unsigned int, enum FindCriteria::Criteria) const
	?scannerEngine@RadioUiEngine@@QAEPAVRadioScannerEngine@@XZ @ 128 NONAME ; class RadioScannerEngine * RadioUiEngine::scannerEngine(void)
	?setManualSeekMode@RadioUiEngine@@QAEX_N@Z @ 129 NONAME ; void RadioUiEngine::setManualSeekMode(bool)
	?isSongRecognitionAppAvailable@RadioUiEngine@@QAE_NXZ @ 130 NONAME ; bool RadioUiEngine::isSongRecognitionAppAvailable(void)
	?startScanning@RadioScannerEngine@@QAEXXZ @ 131 NONAME ; void RadioScannerEngine::startScanning(void)
	?emitStationFound@RadioScannerEngine@@AAEXABVRadioStation@@@Z @ 132 NONAME ; void RadioScannerEngine::emitStationFound(class RadioStation const &)
	?isValid@RadioHistoryItem@@QBE_NXZ @ 133 NONAME ; bool RadioHistoryItem::isValid(void) const
	?setPsType@RadioStation@@AAEXV?$QFlags@W4PsTypeFlag@RadioStation@@@@@Z @ 134 NONAME ; void RadioStation::setPsType(class QFlags<enum RadioStation::PsTypeFlag>)
	?setFrequency@RadioUiEngine@@QAEXIH@Z @ 135 NONAME ; void RadioUiEngine::setFrequency(unsigned int, int)
	?data@RadioHistoryModel@@UBE?AVQVariant@@ABVQModelIndex@@H@Z @ 136 NONAME ; class QVariant RadioHistoryModel::data(class QModelIndex const &, int) const
	??4RadioHistoryItem@@QAEAAV0@ABV0@@Z @ 137 NONAME ; class RadioHistoryItem & RadioHistoryItem::operator=(class RadioHistoryItem const &)
	?url@RadioStation@@QBE?AVQString@@XZ @ 138 NONAME ; class QString RadioStation::url(void) const
	?historyModel@RadioUiEngine@@QAEAAVRadioHistoryModel@@XZ @ 139 NONAME ; class RadioHistoryModel & RadioUiEngine::historyModel(void)
	?emitRdsAvailabilityChanged@RadioUiEngine@@AAEX_N@Z @ 140 NONAME ; void RadioUiEngine::emitRdsAvailabilityChanged(bool)
	?isAntennaAttached@RadioUiEngine@@QBE_NXZ @ 141 NONAME ; bool RadioUiEngine::isAntennaAttached(void) const
	?setStation@RadioHistoryItem@@QAEXABVQString@@@Z @ 142 NONAME ; void RadioHistoryItem::setStation(class QString const &)
	?removeByModelIndices@RadioStationModel@@QAEXAAV?$QList@VQModelIndex@@@@_N@Z @ 143 NONAME ; void RadioStationModel::removeByModelIndices(class QList<class QModelIndex> &, bool)
	?qt_metacast@RadioStationModel@@UAEPAXPBD@Z @ 144 NONAME ; void * RadioStationModel::qt_metacast(char const *)
	?hasSentRds@RadioStation@@QBE_NXZ @ 145 NONAME ; bool RadioStation::hasSentRds(void) const
	?presetIndex@RadioStation@@QBEHXZ @ 146 NONAME ; int RadioStation::presetIndex(void) const
	?cancel@RadioScannerEngine@@QAEXXZ @ 147 NONAME ; void RadioScannerEngine::cancel(void)
	?staticMetaObject@RadioStationModel@@2UQMetaObject@@B @ 148 NONAME ; struct QMetaObject const RadioStationModel::staticMetaObject
	?addRecognizedSong@RadioUiEngine@@QAEXABVQString@@0ABVRadioStation@@@Z @ 149 NONAME ; void RadioUiEngine::addRecognizedSong(class QString const &, class QString const &, class RadioStation const &)
	?emitMuteChanged@RadioUiEngine@@AAEX_N@Z @ 150 NONAME ; void RadioUiEngine::emitMuteChanged(bool)
	?setDynamicPsText@RadioStation@@AAEXABVQString@@@Z @ 151 NONAME ; void RadioStation::setDynamicPsText(class QString const &)
	?currentSongReset@RadioHistoryModel@@IAEXXZ @ 152 NONAME ; void RadioHistoryModel::currentSongReset(void)
	?removeByPresetIndex@RadioStationModel@@QAEXH@Z @ 153 NONAME ; void RadioStationModel::removeByPresetIndex(int)
	?d_func@RadioScannerEngine@@AAEPAVRadioScannerEnginePrivate@@XZ @ 154 NONAME ; class RadioScannerEnginePrivate * RadioScannerEngine::d_func(void)
	?isRenamed@RadioStation@@QBE_NXZ @ 155 NONAME ; bool RadioStation::isRenamed(void) const
	?stationAt@RadioStationModel@@QBE?AVRadioStation@@H@Z @ 156 NONAME ; class RadioStation RadioStationModel::stationAt(int) const
	?removeStation@RadioStationModel@@QAEXABVRadioStation@@@Z @ 157 NONAME ; void RadioStationModel::removeStation(class RadioStation const &)
	?openMusicStore@RadioUiEngine@@QAEXABVRadioHistoryItem@@W4MusicStore@1@@Z @ 158 NONAME ; void RadioUiEngine::openMusicStore(class RadioHistoryItem const &, enum RadioUiEngine::MusicStore)
	?metaObject@RadioUiEngine@@UBEPBUQMetaObject@@XZ @ 159 NONAME ; struct QMetaObject const * RadioUiEngine::metaObject(void) const
	?dynamicPsChanged@RadioStationModel@@IAEXABVRadioStation@@@Z @ 160 NONAME ; void RadioStationModel::dynamicPsChanged(class RadioStation const &)
	?setType@RadioStation@@QAEXV?$QFlags@W4TypeFlag@RadioStation@@@@@Z @ 161 NONAME ; void RadioStation::setType(class QFlags<enum RadioStation::TypeFlag>)
	??0RadioHistoryItem@@QAE@XZ @ 162 NONAME ; RadioHistoryItem::RadioHistoryItem(void)
	?removeByFrequency@RadioStationModel@@QAEXI@Z @ 163 NONAME ; void RadioStationModel::removeByFrequency(unsigned int)
	?isUsingLoudspeaker@RadioUiEngine@@QBE_NXZ @ 164 NONAME ; bool RadioUiEngine::isUsingLoudspeaker(void) const
	?findPresetIndex@RadioStationModel@@QAEHH@Z @ 165 NONAME ; int RadioStationModel::findPresetIndex(int)
	??0RadioHistoryItem@@QAE@ABV0@@Z @ 166 NONAME ; RadioHistoryItem::RadioHistoryItem(class RadioHistoryItem const &)
	?metaObject@RadioStationModel@@UBEPBUQMetaObject@@XZ @ 167 NONAME ; struct QMetaObject const * RadioStationModel::metaObject(void) const
	?getStaticMetaObject@RadioStationModel@@SAABUQMetaObject@@XZ @ 168 NONAME ; struct QMetaObject const & RadioStationModel::getStaticMetaObject(void)
	?isPoweringOff@RadioUiEngine@@QBE_NXZ @ 169 NONAME ; bool RadioUiEngine::isPoweringOff(void) const
	?lastTunedFrequency@RadioUiEngine@@SAII@Z @ 170 NONAME ; unsigned int RadioUiEngine::lastTunedFrequency(unsigned int)
	?tr@RadioScannerEngine@@SA?AVQString@@PBD0@Z @ 171 NONAME ; class QString RadioScannerEngine::tr(char const *, char const *)
	?removeAll@RadioHistoryModel@@QAEX_N@Z @ 172 NONAME ; void RadioHistoryModel::removeAll(bool)
	?hasGenre@RadioStation@@QBE_NXZ @ 173 NONAME ; bool RadioStation::hasGenre(void) const
	?audioRouteChanged@RadioUiEngine@@IAEX_N@Z @ 174 NONAME ; void RadioUiEngine::audioRouteChanged(bool)
	?setPowerOn@RadioUiEngine@@QAEXXZ @ 175 NONAME ; void RadioUiEngine::setPowerOn(void)
	?tr@RadioHistoryModel@@SA?AVQString@@PBD0H@Z @ 176 NONAME ; class QString RadioHistoryModel::tr(char const *, char const *, int)
	?dynamicPsText@RadioStation@@QBE?AVQString@@XZ @ 177 NONAME ; class QString RadioStation::dynamicPsText(void) const
	?isFirstTimeStart@RadioUiEngine@@QAE_NXZ @ 178 NONAME ; bool RadioUiEngine::isFirstTimeStart(void)
	?setMute@RadioUiEngine@@QAEX_N@Z @ 179 NONAME ; void RadioUiEngine::setMute(bool)
	?setGenre@RadioStation@@AAEXH@Z @ 180 NONAME ; void RadioStation::setGenre(int)
	??0RadioScannerEngine@@QAE@AAVRadioUiEnginePrivate@@@Z @ 181 NONAME ; RadioScannerEngine::RadioScannerEngine(class RadioUiEnginePrivate &)
	?emitRadioStatusChanged@RadioUiEngine@@AAEX_N@Z @ 182 NONAME ; void RadioUiEngine::emitRadioStatusChanged(bool)
	??_ERadioUiEngine@@UAE@I@Z @ 183 NONAME ; RadioUiEngine::~RadioUiEngine(unsigned int)
	?init@RadioUiEngine@@QAE_NXZ @ 184 NONAME ; bool RadioUiEngine::init(void)
	?setRadioText@RadioStation@@AAEXABVQString@@@Z @ 185 NONAME ; void RadioStation::setRadioText(class QString const &)
	?changeFlags@RadioStation@@QBE?AV?$QFlags@W4ChangeFlag@RadioStation@@@@XZ @ 186 NONAME ; class QFlags<enum RadioStation::ChangeFlag> RadioStation::changeFlags(void) const
	?findFrequency@RadioStationModel@@QBE_NIAAVRadioStation@@W4Criteria@FindCriteria@@@Z @ 187 NONAME ; bool RadioStationModel::findFrequency(unsigned int, class RadioStation &, enum FindCriteria::Criteria) const
	?d_func@RadioStationModel@@AAEPAVRadioStationModelPrivate@@XZ @ 188 NONAME ; class RadioStationModelPrivate * RadioStationModel::d_func(void)
	?addRadioTextPlus@RadioHistoryModel@@AAEXHABVQString@@ABVRadioStation@@@Z @ 189 NONAME ; void RadioHistoryModel::addRadioTextPlus(int, class QString const &, class RadioStation const &)
	?qt_metacast@RadioHistoryModel@@UAEPAXPBD@Z @ 190 NONAME ; void * RadioHistoryModel::qt_metacast(char const *)
	?setDetail@RadioStationModel@@QAEXV?$QFlags@W4DetailFlag@RadioStationModel@@@@@Z @ 191 NONAME ; void RadioStationModel::setDetail(class QFlags<enum RadioStationModel::DetailFlag>)
	??1RadioUiEngine@@UAE@XZ @ 192 NONAME ; RadioUiEngine::~RadioUiEngine(void)
	?tr@RadioHistoryModel@@SA?AVQString@@PBD0@Z @ 193 NONAME ; class QString RadioHistoryModel::tr(char const *, char const *)
	?time@RadioHistoryItem@@QBE?AVQString@@XZ @ 194 NONAME ; class QString RadioHistoryItem::time(void) const
	?reportChangedData@RadioHistoryModel@@AAEXHH@Z @ 195 NONAME ; void RadioHistoryModel::reportChangedData(int, int)
	?artist@RadioHistoryItem@@QBE?AVQString@@XZ @ 196 NONAME ; class QString RadioHistoryItem::artist(void) const
	?initialize@RadioStationModel@@QAEXPAVRadioPresetStorage@@PAVRadioEngineWrapper@@@Z @ 197 NONAME ; void RadioStationModel::initialize(class RadioPresetStorage *, class RadioEngineWrapper *)
	?isType@RadioStation@@QBE_NV?$QFlags@W4TypeFlag@RadioStation@@@@@Z @ 198 NONAME ; bool RadioStation::isType(class QFlags<enum RadioStation::TypeFlag>) const
	?resetCurrentSong@RadioHistoryModel@@QAEXXZ @ 199 NONAME ; void RadioHistoryModel::resetCurrentSong(void)
	?d_func@RadioHistoryModel@@ABEPBVRadioHistoryModelPrivate@@XZ @ 200 NONAME ; class RadioHistoryModelPrivate const * RadioHistoryModel::d_func(void) const
	?volumeChanged@RadioUiEngine@@IAEXH@Z @ 201 NONAME ; void RadioUiEngine::volumeChanged(int)
	?title@RadioHistoryItem@@QBE?AVQString@@XZ @ 202 NONAME ; class QString RadioHistoryItem::title(void) const
	?stationFound@RadioScannerEngine@@IAEXABVRadioStation@@@Z @ 203 NONAME ; void RadioScannerEngine::stationFound(class RadioStation const &)
	?resetChangeFlags@RadioStation@@QAEXXZ @ 204 NONAME ; void RadioStation::resetChangeFlags(void)
	?powerOffRequested@RadioUiEngine@@IAEXXZ @ 205 NONAME ; void RadioUiEngine::powerOffRequested(void)
	?metaObject@RadioScannerEngine@@UBEPBUQMetaObject@@XZ @ 206 NONAME ; struct QMetaObject const * RadioScannerEngine::metaObject(void) const
	?qt_metacast@RadioScannerEngine@@UAEPAXPBD@Z @ 207 NONAME ; void * RadioScannerEngine::qt_metacast(char const *)
	?setIcons@RadioStationModel@@QAEXABVQIcon@@00@Z @ 208 NONAME ; void RadioStationModel::setIcons(class QIcon const &, class QIcon const &, class QIcon const &)
	?callSignChar@RadioStation@@AAEDI@Z @ 209 NONAME ; char RadioStation::callSignChar(unsigned int)
	??_ERadioStation@@UAE@I@Z @ 210 NONAME ; RadioStation::~RadioStation(unsigned int)
	?antennaStatusChanged@RadioUiEngine@@IAEX_N@Z @ 211 NONAME ; void RadioUiEngine::antennaStatusChanged(bool)
	?staticMetaObject@RadioHistoryModel@@2UQMetaObject@@B @ 212 NONAME ; struct QMetaObject const RadioHistoryModel::staticMetaObject
	?setFirstTimeStartPerformed@RadioUiEngine@@QAEX_N@Z @ 213 NONAME ; void RadioUiEngine::setFirstTimeStartPerformed(bool)
	??0RadioStation@@AAE@HI@Z @ 214 NONAME ; RadioStation::RadioStation(int, unsigned int)
	?qt_metacall@RadioStationModel@@UAEHW4Call@QMetaObject@@HPAPAX@Z @ 215 NONAME ; int RadioStationModel::qt_metacall(enum QMetaObject::Call, int, void * *)
	?isDetached@RadioStation@@QBE_NXZ @ 216 NONAME ; bool RadioStation::isDetached(void) const
	??0RadioHistoryItem@@QAE@ABVQString@@0@Z @ 217 NONAME ; RadioHistoryItem::RadioHistoryItem(class QString const &, class QString const &)
	?name@RadioStation@@QBE?AVQString@@XZ @ 218 NONAME ; class QString RadioStation::name(void) const
	?hasDataChanged@RadioStation@@QBE_NV?$QFlags@W4ChangeFlag@RadioStation@@@@@Z @ 219 NONAME ; bool RadioStation::hasDataChanged(class QFlags<enum RadioStation::ChangeFlag>) const
	?removeAll@RadioStationModel@@QAEXW4RemoveMode@1@@Z @ 220 NONAME ; void RadioStationModel::removeAll(enum RadioStationModel::RemoveMode)
	?data@RadioStationModel@@UBE?AVQVariant@@ABVQModelIndex@@H@Z @ 221 NONAME ; class QVariant RadioStationModel::data(class QModelIndex const &, int) const
	?itemAdded@RadioHistoryModel@@IAEXXZ @ 222 NONAME ; void RadioHistoryModel::itemAdded(void)
	?getStaticMetaObject@RadioUiEngine@@SAABUQMetaObject@@XZ @ 223 NONAME ; struct QMetaObject const & RadioUiEngine::getStaticMetaObject(void)
	?setShowDetails@RadioHistoryModel@@QAEX_N@Z @ 224 NONAME ; void RadioHistoryModel::setShowDetails(bool)
	?launchSongRecognition@RadioUiEngine@@QAEXXZ @ 225 NONAME ; void RadioUiEngine::launchSongRecognition(void)
	?rowCount@RadioStationModel@@UBEHABVQModelIndex@@@Z @ 226 NONAME ; int RadioStationModel::rowCount(class QModelIndex const &) const
	?iterateCallSign@RadioStation@@AAE?AVQString@@HH@Z @ 227 NONAME ; class QString RadioStation::iterateCallSign(int, int)
	?toggleMute@RadioUiEngine@@QAEXXZ @ 228 NONAME ; void RadioUiEngine::toggleMute(void)
	?piCode@RadioStation@@QBEHXZ @ 229 NONAME ; int RadioStation::piCode(void) const
	?genreToString@RadioUiEngine@@QAE?AVQString@@HW4Target@GenreTarget@@@Z @ 230 NONAME ; class QString RadioUiEngine::genreToString(int, enum GenreTarget::Target)
	??0RadioUiEngine@@QAE@PAVQObject@@@Z @ 231 NONAME ; RadioUiEngine::RadioUiEngine(class QObject *)
	?hasRadiotext@RadioStation@@QBE_NXZ @ 232 NONAME ; bool RadioStation::hasRadiotext(void) const
	?setCurrentTime@RadioHistoryItem@@QAEXXZ @ 233 NONAME ; void RadioHistoryItem::setCurrentTime(void)
	?d_func@RadioUiEngine@@AAEPAVRadioUiEnginePrivate@@XZ @ 234 NONAME ; class RadioUiEnginePrivate * RadioUiEngine::d_func(void)
	?station@RadioHistoryItem@@QBE?AVQString@@XZ @ 235 NONAME ; class QString RadioHistoryItem::station(void) const
	??_ERadioHistoryModel@@UAE@I@Z @ 236 NONAME ; RadioHistoryModel::~RadioHistoryModel(unsigned int)
	?minFrequency@RadioUiEngine@@QBEIXZ @ 237 NONAME ; unsigned int RadioUiEngine::minFrequency(void) const
	?isTagged@RadioHistoryItem@@QBE_NXZ @ 238 NONAME ; bool RadioHistoryItem::isTagged(void) const
	?addScannedFrequency@RadioScannerEngine@@QAEXI@Z @ 239 NONAME ; void RadioScannerEngine::addScannedFrequency(unsigned int)
	?setShowTagged@RadioHistoryModel@@QAEX_N@Z @ 240 NONAME ; void RadioHistoryModel::setShowTagged(bool)
	?setPresetIndex@RadioStation@@AAEXH@Z @ 241 NONAME ; void RadioStation::setPresetIndex(int)
	?setName@RadioStation@@AAEXABVQString@@@Z @ 242 NONAME ; void RadioStation::setName(class QString const &)
	?trUtf8@RadioHistoryModel@@SA?AVQString@@PBD0@Z @ 243 NONAME ; class QString RadioHistoryModel::trUtf8(char const *, char const *)
	?frequencyStepSize@RadioUiEngine@@QBEIXZ @ 244 NONAME ; unsigned int RadioUiEngine::frequencyStepSize(void) const
	??0RadioHistoryModel@@AAE@AAVRadioUiEngine@@@Z @ 245 NONAME ; RadioHistoryModel::RadioHistoryModel(class RadioUiEngine &)
	?trUtf8@RadioStationModel@@SA?AVQString@@PBD0H@Z @ 246 NONAME ; class QString RadioStationModel::trUtf8(char const *, char const *, int)
	?radioTextReceived@RadioStationModel@@IAEXABVRadioStation@@@Z @ 247 NONAME ; void RadioStationModel::radioTextReceived(class RadioStation const &)
	?isFavorite@RadioStation@@QBE_NXZ @ 248 NONAME ; bool RadioStation::isFavorite(void) const
	?metaObject@RadioHistoryModel@@UBEPBUQMetaObject@@XZ @ 249 NONAME ; struct QMetaObject const * RadioHistoryModel::metaObject(void) const
	?seekingStarted@RadioUiEngine@@IAEXH@Z @ 250 NONAME ; void RadioUiEngine::seekingStarted(int)
	?emitSeekingStarted@RadioUiEngine@@AAEXW4Direction@Seek@@@Z @ 251 NONAME ; void RadioUiEngine::emitSeekingStarted(enum Seek::Direction)
	?isRecognizedByRds@RadioHistoryItem@@QBE_NXZ @ 252 NONAME ; bool RadioHistoryItem::isRecognizedByRds(void) const
	?setFavorites@RadioStationModel@@QAEXABV?$QList@VQModelIndex@@@@@Z @ 253 NONAME ; void RadioStationModel::setFavorites(class QList<class QModelIndex> const &)
	?setArtist@RadioHistoryItem@@QAEXABVQString@@@Z @ 254 NONAME ; void RadioHistoryItem::setArtist(class QString const &)
	??_ERadioStationModel@@UAE@I@Z @ 255 NONAME ; RadioStationModel::~RadioStationModel(unsigned int)
	?setTitle@RadioHistoryItem@@QAEXABVQString@@@Z @ 256 NONAME ; void RadioHistoryItem::setTitle(class QString const &)

