EXPORTS
	?trUtf8@RadioWindow@@SA?AVQString@@PBD0H@Z @ 1 NONAME ; class QString RadioWindow::trUtf8(char const *, char const *, int)
	?nextIndex@RadioStationCarousel@@AAEHH@Z @ 2 NONAME ; int RadioStationCarousel::nextIndex(int)
	?stationsInRange@RadioFrequencyStrip@@EBE?AV?$QList@UStationMarker@FrequencyStrip@@@@II@Z @ 3 NONAME ; class QList<struct FrequencyStrip::StationMarker> RadioFrequencyStrip::stationsInRange(unsigned int, unsigned int) const
	?scrollToIndex@RadioStationCarousel@@AAEXHW4Direction@Scroll@@V?$QFlags@W4ScrollFlag@RadioStationCarousel@@@@@Z @ 4 NONAME ; void RadioStationCarousel::scrollToIndex(int, enum Scroll::Direction, class QFlags<enum RadioStationCarousel::ScrollFlag>)
	?drawOffScreen@RadioStationCarousel@@QAEXAAVQPainter@@@Z @ 5 NONAME ; void RadioStationCarousel::drawOffScreen(class QPainter &)
	?qt_metacast@RadioFadingLabel@@UAEPAXPBD@Z @ 6 NONAME ; void * RadioFadingLabel::qt_metacast(char const *)
	?findStation@RadioStationCarousel@@EAE?AVRadioStation@@I@Z @ 7 NONAME ; class RadioStation RadioStationCarousel::findStation(unsigned int)
	?animateNewStation@RadioStationCarousel@@QAEXABVRadioStation@@@Z @ 8 NONAME ; void RadioStationCarousel::animateNewStation(class RadioStation const &)
	?nonFavoriteIcon@RadioStationCarousel@@UBE?AVHbIcon@@XZ @ 9 NONAME ; class HbIcon RadioStationCarousel::nonFavoriteIcon(void) const
	?gestureEvent@RadioStationCarousel@@EAEXPAVQGestureEvent@@@Z @ 10 NONAME ; void RadioStationCarousel::gestureEvent(class QGestureEvent *)
	?setFavoriteIcon@RadioStationCarousel@@QAEXABVHbIcon@@@Z @ 11 NONAME ; void RadioStationCarousel::setFavoriteIcon(class HbIcon const &)
	?update@RadioStationCarousel@@AAEXABVRadioStation@@@Z @ 12 NONAME ; void RadioStationCarousel::update(class RadioStation const &)
	?trUtf8@RadioFadingLabel@@SA?AVQString@@PBD0@Z @ 13 NONAME ; class QString RadioFadingLabel::trUtf8(char const *, char const *)
	?handleUrlClicked@RadioStationCarousel@@EAEXABVRadioStation@@@Z @ 14 NONAME ; void RadioStationCarousel::handleUrlClicked(class RadioStation const &)
	?skipRequested@RadioStationCarousel@@IAEXH@Z @ 15 NONAME ; void RadioStationCarousel::skipRequested(int)
	?setTextWithoutFading@RadioFadingLabel@@QAEXABVQString@@@Z @ 16 NONAME ; void RadioFadingLabel::setTextWithoutFading(class QString const &)
	?updateAntennaStatus@RadioWindow@@AAEX_N@Z @ 17 NONAME ; void RadioWindow::updateAntennaStatus(bool)
	?handleIconClicked@RadioStationCarousel@@EAEXABVRadioStation@@@Z @ 18 NONAME ; void RadioStationCarousel::handleIconClicked(class RadioStation const &)
	?init@RadioFrequencyStrip@@QAEXPAVRadioUiEngine@@AAVRadioUiLoader@@@Z @ 19 NONAME ; void RadioFrequencyStrip::init(class RadioUiEngine *, class RadioUiLoader &)
	?qt_metacall@RadioStationCarousel@@UAEHW4Call@QMetaObject@@HPAPAX@Z @ 20 NONAME ; int RadioStationCarousel::qt_metacall(enum QMetaObject::Call, int, void * *)
	?isInitialized@RadioStationCarousel@@ABE_NXZ @ 21 NONAME ; bool RadioStationCarousel::isInitialized(void) const
	?init@RadioStationCarousel@@QAEXAAVRadioUiLoader@@PAVRadioUiEngine@@@Z @ 22 NONAME ; void RadioStationCarousel::init(class RadioUiLoader &, class RadioUiEngine *)
	?scrollPosChanged@RadioStationCarousel@@AAEXABVQPointF@@@Z @ 23 NONAME ; void RadioStationCarousel::scrollPosChanged(class QPointF const &)
	?frequencyChanged@RadioFrequencyStrip@@IAEXIHH@Z @ 24 NONAME ; void RadioFrequencyStrip::frequencyChanged(unsigned int, int, int)
	?setAutoScrollTime@RadioStationCarousel@@QAEXH@Z @ 25 NONAME ; void RadioStationCarousel::setAutoScrollTime(int)
	?prevIndex@RadioStationCarousel@@AAEHH@Z @ 26 NONAME ; int RadioStationCarousel::prevIndex(int)
	?skipToPreviousFavorite@RadioFrequencyStrip@@EAEXXZ @ 27 NONAME ; void RadioFrequencyStrip::skipToPreviousFavorite(void)
	?trUtf8@RadioStationCarousel@@SA?AVQString@@PBD0@Z @ 28 NONAME ; class QString RadioStationCarousel::trUtf8(char const *, char const *)
	?tr@RadioStationCarousel@@SA?AVQString@@PBD0@Z @ 29 NONAME ; class QString RadioStationCarousel::tr(char const *, char const *)
	?skip@RadioStationCarousel@@AAEXW4Mode@StationSkip@@@Z @ 30 NONAME ; void RadioStationCarousel::skip(enum StationSkip::Mode)
	?emitFrequencyChanged@RadioFrequencyStrip@@EAEXIHH@Z @ 31 NONAME ; void RadioFrequencyStrip::emitFrequencyChanged(unsigned int, int, int)
	?isScanning@RadioFrequencyStrip@@EBE_NXZ @ 32 NONAME ; bool RadioFrequencyStrip::isScanning(void) const
	??1RadioWindow@@UAE@XZ @ 33 NONAME ; RadioWindow::~RadioWindow(void)
	?skipRequested@RadioFrequencyStrip@@IAEXH@Z @ 34 NONAME ; void RadioFrequencyStrip::skipRequested(int)
	?setText@RadioFadingLabel@@QAEXABVQString@@@Z @ 35 NONAME ; void RadioFadingLabel::setText(class QString const &)
	?showEvent@RadioStationCarousel@@EAEXPAVQShowEvent@@@Z @ 36 NONAME ; void RadioStationCarousel::showEvent(class QShowEvent *)
	?trUtf8@RadioFrequencyStrip@@SA?AVQString@@PBD0@Z @ 37 NONAME ; class QString RadioFrequencyStrip::trUtf8(char const *, char const *)
	?activateView@RadioWindow@@AAEXPAVRadioViewBase@@ABVQString@@V?$QFlags@W4ViewSwitchFlag@Hb@@@@@Z @ 38 NONAME ; void RadioWindow::activateView(class RadioViewBase *, class QString const &, class QFlags<enum Hb::ViewSwitchFlag>)
	?calculateDifference@RadioStationCarousel@@AAEHHAAW4Direction@Scroll@@@Z @ 39 NONAME ; int RadioStationCarousel::calculateDifference(int, enum Scroll::Direction &)
	?orientationSection@RadioWindow@@QAE?AVQString@@XZ @ 40 NONAME ; class QString RadioWindow::orientationSection(void)
	??1RadioFrequencyStrip@@UAE@XZ @ 41 NONAME ; RadioFrequencyStrip::~RadioFrequencyStrip(void)
	?cancelAnimation@RadioStationCarousel@@QAEXXZ @ 42 NONAME ; void RadioStationCarousel::cancelAnimation(void)
	?staticMetaObject@RadioStationCarousel@@2UQMetaObject@@B @ 43 NONAME ; struct QMetaObject const RadioStationCarousel::staticMetaObject
	?skipToPrevious@RadioFrequencyStrip@@EAEXXZ @ 44 NONAME ; void RadioFrequencyStrip::skipToPrevious(void)
	?qt_metacall@RadioFadingLabel@@UAEHW4Call@QMetaObject@@HPAPAX@Z @ 45 NONAME ; int RadioFadingLabel::qt_metacall(enum QMetaObject::Call, int, void * *)
	??0RadioFrequencyStrip@@QAE@XZ @ 46 NONAME ; RadioFrequencyStrip::RadioFrequencyStrip(void)
	?setCenterIndex@RadioStationCarousel@@AAEXHV?$QFlags@W4ScrollFlag@RadioStationCarousel@@@@@Z @ 47 NONAME ; void RadioStationCarousel::setCenterIndex(int, class QFlags<enum RadioStationCarousel::ScrollFlag>)
	?resizeEvent@RadioStationCarousel@@EAEXPAVQGraphicsSceneResizeEvent@@@Z @ 48 NONAME ; void RadioStationCarousel::resizeEvent(class QGraphicsSceneResizeEvent *)
	?updateStations@RadioStationCarousel@@AAEXXZ @ 49 NONAME ; void RadioStationCarousel::updateStations(void)
	??_ERadioWindow@@UAE@I@Z @ 50 NONAME ; RadioWindow::~RadioWindow(unsigned int)
	?tr@RadioFrequencyStrip@@SA?AVQString@@PBD0@Z @ 51 NONAME ; class QString RadioFrequencyStrip::tr(char const *, char const *)
	?metaObject@RadioFrequencyStrip@@UBEPBUQMetaObject@@XZ @ 52 NONAME ; struct QMetaObject const * RadioFrequencyStrip::metaObject(void) const
	?qt_metacall@RadioFrequencyStrip@@UAEHW4Call@QMetaObject@@HPAPAX@Z @ 53 NONAME ; int RadioFrequencyStrip::qt_metacall(enum QMetaObject::Call, int, void * *)
	?qt_metacall@RadioWindow@@UAEHW4Call@QMetaObject@@HPAPAX@Z @ 54 NONAME ; int RadioWindow::qt_metacall(enum QMetaObject::Call, int, void * *)
	?startEffect@RadioFadingLabel@@AAEXABVQString@@PBD@Z @ 55 NONAME ; void RadioFadingLabel::startEffect(class QString const &, char const *)
	?seekDown@RadioFrequencyStrip@@EAEXXZ @ 56 NONAME ; void RadioFrequencyStrip::seekDown(void)
	?activateHistoryView@RadioWindow@@QAEXXZ @ 57 NONAME ; void RadioWindow::activateHistoryView(void)
	??_ERadioStationCarousel@@UAE@I@Z @ 58 NONAME ; RadioStationCarousel::~RadioStationCarousel(unsigned int)
	?tr@RadioFadingLabel@@SA?AVQString@@PBD0@Z @ 59 NONAME ; class QString RadioFadingLabel::tr(char const *, char const *)
	?getStaticMetaObject@RadioFadingLabel@@SAABUQMetaObject@@XZ @ 60 NONAME ; struct QMetaObject const & RadioFadingLabel::getStaticMetaObject(void)
	?setManualSeekMode@RadioStationCarousel@@QAEX_N@Z @ 61 NONAME ; void RadioStationCarousel::setManualSeekMode(bool)
	?qt_metacast@RadioWindow@@UAEPAXPBD@Z @ 62 NONAME ; void * RadioWindow::qt_metacast(char const *)
	?trimHtml@RadioFadingLabel@@AAE?AVQString@@ABV2@@Z @ 63 NONAME ; class QString RadioFadingLabel::trimHtml(class QString const &)
	?tr@RadioWindow@@SA?AVQString@@PBD0@Z @ 64 NONAME ; class QString RadioWindow::tr(char const *, char const *)
	?favoriteIcon@RadioStationCarousel@@UBE?AVHbIcon@@XZ @ 65 NONAME ; class HbIcon RadioStationCarousel::favoriteIcon(void) const
	?getStaticMetaObject@RadioFrequencyStrip@@SAABUQMetaObject@@XZ @ 66 NONAME ; struct QMetaObject const & RadioFrequencyStrip::getStaticMetaObject(void)
	?showErrorMessage@RadioWindow@@QAEXABVQString@@@Z @ 67 NONAME ; void RadioWindow::showErrorMessage(class QString const &)
	??0RadioFadingLabel@@QAE@PAVQGraphicsItem@@@Z @ 68 NONAME ; RadioFadingLabel::RadioFadingLabel(class QGraphicsItem *)
	?isInManualSeek@RadioStationCarousel@@EBE_NXZ @ 69 NONAME ; bool RadioStationCarousel::isInManualSeek(void) const
	??1RadioStationCarousel@@UAE@XZ @ 70 NONAME ; RadioStationCarousel::~RadioStationCarousel(void)
	?isInitialized@RadioFrequencyStrip@@EBE_NXZ @ 71 NONAME ; bool RadioFrequencyStrip::isInitialized(void) const
	??_ERadioFrequencyStrip@@UAE@I@Z @ 72 NONAME ; RadioFrequencyStrip::~RadioFrequencyStrip(unsigned int)
	?setFadingEnabled@RadioFadingLabel@@QAEX_N@Z @ 73 NONAME ; void RadioFadingLabel::setFadingEnabled(bool)
	?localizeGenre@RadioStationCarousel@@EAE?AVQString@@H@Z @ 74 NONAME ; class QString RadioStationCarousel::localizeGenre(int)
	?showVolumeLevel@RadioWindow@@AAEXH@Z @ 75 NONAME ; void RadioWindow::showVolumeLevel(int)
	?getStaticMetaObject@RadioWindow@@SAABUQMetaObject@@XZ @ 76 NONAME ; struct QMetaObject const & RadioWindow::getStaticMetaObject(void)
	?handleRadiotextClicked@RadioStationCarousel@@EAEXABVRadioStation@@@Z @ 77 NONAME ; void RadioStationCarousel::handleRadiotextClicked(class RadioStation const &)
	?timerFired@RadioStationCarousel@@AAEXXZ @ 78 NONAME ; void RadioStationCarousel::timerFired(void)
	?trUtf8@RadioWindow@@SA?AVQString@@PBD0@Z @ 79 NONAME ; class QString RadioWindow::trUtf8(char const *, char const *)
	?seekUp@RadioFrequencyStrip@@EAEXXZ @ 80 NONAME ; void RadioFrequencyStrip::seekUp(void)
	??0RadioWindow@@QAE@PAVQWidget@@@Z @ 81 NONAME ; RadioWindow::RadioWindow(class QWidget *)
	?tr@RadioFadingLabel@@SA?AVQString@@PBD0H@Z @ 82 NONAME ; class QString RadioFadingLabel::tr(char const *, char const *, int)
	?updateRadioText@RadioStationCarousel@@AAEXABVRadioStation@@@Z @ 83 NONAME ; void RadioStationCarousel::updateRadioText(class RadioStation const &)
	?updateAntennaStatus@RadioStationCarousel@@QAEX_N@Z @ 84 NONAME ; void RadioStationCarousel::updateAntennaStatus(bool)
	?setFrequency@RadioStationCarousel@@QAEXIHW4Direction@Scroll@@@Z @ 85 NONAME ; void RadioStationCarousel::setFrequency(unsigned int, int, enum Scroll::Direction)
	?setInfoText@RadioStationCarousel@@QAEXW4Type@CarouselInfoText@@@Z @ 86 NONAME ; void RadioStationCarousel::setInfoText(enum CarouselInfoText::Type)
	?staticMetaObject@RadioFadingLabel@@2UQMetaObject@@B @ 87 NONAME ; struct QMetaObject const RadioFadingLabel::staticMetaObject
	?tr@RadioFrequencyStrip@@SA?AVQString@@PBD0H@Z @ 88 NONAME ; class QString RadioFrequencyStrip::tr(char const *, char const *, int)
	?trUtf8@RadioFrequencyStrip@@SA?AVQString@@PBD0H@Z @ 89 NONAME ; class QString RadioFrequencyStrip::trUtf8(char const *, char const *, int)
	?getStaticMetaObject@RadioStationCarousel@@SAABUQMetaObject@@XZ @ 90 NONAME ; struct QMetaObject const & RadioStationCarousel::getStaticMetaObject(void)
	?metaObject@RadioFadingLabel@@UBEPBUQMetaObject@@XZ @ 91 NONAME ; struct QMetaObject const * RadioFadingLabel::metaObject(void) const
	?metaObject@RadioWindow@@UBEPBUQMetaObject@@XZ @ 92 NONAME ; struct QMetaObject const * RadioWindow::metaObject(void) const
	?staticMetaObject@RadioFrequencyStrip@@2UQMetaObject@@B @ 93 NONAME ; struct QMetaObject const RadioFrequencyStrip::staticMetaObject
	?autoScrollTime@RadioStationCarousel@@QBEHXZ @ 94 NONAME ; int RadioStationCarousel::autoScrollTime(void) const
	?qt_metacast@RadioStationCarousel@@UAEPAXPBD@Z @ 95 NONAME ; void * RadioStationCarousel::qt_metacast(char const *)
	?skipToNextFavorite@RadioFrequencyStrip@@EAEXXZ @ 96 NONAME ; void RadioFrequencyStrip::skipToNextFavorite(void)
	?tr@RadioWindow@@SA?AVQString@@PBD0H@Z @ 97 NONAME ; class QString RadioWindow::tr(char const *, char const *, int)
	?seekRequested@RadioFrequencyStrip@@IAEXH@Z @ 98 NONAME ; void RadioFrequencyStrip::seekRequested(int)
	??0RadioStationCarousel@@QAE@PAVQGraphicsItem@@@Z @ 99 NONAME ; RadioStationCarousel::RadioStationCarousel(class QGraphicsItem *)
	?adjustAfterScroll@RadioStationCarousel@@AAEXXZ @ 100 NONAME ; void RadioStationCarousel::adjustAfterScroll(void)
	?metaObject@RadioStationCarousel@@UBEPBUQMetaObject@@XZ @ 101 NONAME ; struct QMetaObject const * RadioStationCarousel::metaObject(void) const
	?effectFinished@RadioFadingLabel@@AAEXUEffectStatus@HbEffect@@@Z @ 102 NONAME ; void RadioFadingLabel::effectFinished(struct HbEffect::EffectStatus)
	?skipToNext@RadioFrequencyStrip@@EAEXXZ @ 103 NONAME ; void RadioFrequencyStrip::skipToNext(void)
	?updateOrientation@RadioWindow@@AAEXW4Orientation@Qt@@@Z @ 104 NONAME ; void RadioWindow::updateOrientation(enum Qt::Orientation)
	?activateMainView@RadioWindow@@QAEXXZ @ 105 NONAME ; void RadioWindow::activateMainView(void)
	?trUtf8@RadioFadingLabel@@SA?AVQString@@PBD0H@Z @ 106 NONAME ; class QString RadioFadingLabel::trUtf8(char const *, char const *, int)
	?uiEngine@RadioStationCarousel@@QAEPAVRadioUiEngine@@XZ @ 107 NONAME ; class RadioUiEngine * RadioStationCarousel::uiEngine(void)
	?setLandscape@RadioStationCarousel@@QAEX_N@Z @ 108 NONAME ; void RadioStationCarousel::setLandscape(bool)
	?setScanningMode@RadioStationCarousel@@QAEX_N@Z @ 109 NONAME ; void RadioStationCarousel::setScanningMode(bool)
	??1RadioFadingLabel@@UAE@XZ @ 110 NONAME ; RadioFadingLabel::~RadioFadingLabel(void)
	?setNonFavoriteIcon@RadioStationCarousel@@QAEXABVHbIcon@@@Z @ 111 NONAME ; void RadioStationCarousel::setNonFavoriteIcon(class HbIcon const &)
	?isInScanningMode@RadioStationCarousel@@QBE_NXZ @ 112 NONAME ; bool RadioStationCarousel::isInScanningMode(void) const
	?isAntennaAttached@RadioStationCarousel@@QBE_NXZ @ 113 NONAME ; bool RadioStationCarousel::isAntennaAttached(void) const
	?activateStationsView@RadioWindow@@QAEXXZ @ 114 NONAME ; void RadioWindow::activateStationsView(void)
	?tr@RadioStationCarousel@@SA?AVQString@@PBD0H@Z @ 115 NONAME ; class QString RadioStationCarousel::tr(char const *, char const *, int)
	?setFrequency@RadioFrequencyStrip@@UAEXIHW4Direction@Scroll@@@Z @ 116 NONAME ; void RadioFrequencyStrip::setFrequency(unsigned int, int, enum Scroll::Direction)
	?frequencyChanged@RadioStationCarousel@@IAEXIHH@Z @ 117 NONAME ; void RadioStationCarousel::frequencyChanged(unsigned int, int, int)
	?trimIndex@RadioStationCarousel@@AAEHH@Z @ 118 NONAME ; int RadioStationCarousel::trimIndex(int)
	?initView@RadioWindow@@AAEXXZ @ 119 NONAME ; void RadioWindow::initView(void)
	?trUtf8@RadioStationCarousel@@SA?AVQString@@PBD0H@Z @ 120 NONAME ; class QString RadioStationCarousel::trUtf8(char const *, char const *, int)
	??_ERadioFadingLabel@@UAE@I@Z @ 121 NONAME ; RadioFadingLabel::~RadioFadingLabel(unsigned int)
	?init@RadioWindow@@QAEXXZ @ 122 NONAME ; void RadioWindow::init(void)
	?isScrollingAllowed@RadioStationCarousel@@ABE_NXZ @ 123 NONAME ; bool RadioStationCarousel::isScrollingAllowed(void) const
	?qt_metacast@RadioFrequencyStrip@@UAEPAXPBD@Z @ 124 NONAME ; void * RadioFrequencyStrip::qt_metacast(char const *)
	?staticMetaObject@RadioWindow@@2UQMetaObject@@B @ 125 NONAME ; struct QMetaObject const RadioWindow::staticMetaObject
	?cleanRdsData@RadioStationCarousel@@QAEXXZ @ 126 NONAME ; void RadioStationCarousel::cleanRdsData(void)
	?clearInfoText@RadioStationCarousel@@QAEXXZ @ 127 NONAME ; void RadioStationCarousel::clearInfoText(void)
	?adjustPos@RadioStationCarousel@@AAEXH@Z @ 128 NONAME ; void RadioStationCarousel::adjustPos(int)
	?frequencyAtIndex@RadioFrequencyStrip@@EBEIH@Z @ 129 NONAME ; unsigned int RadioFrequencyStrip::frequencyAtIndex(int) const
	?scanAnimationFinished@RadioStationCarousel@@IAEXXZ @ 130 NONAME ; void RadioStationCarousel::scanAnimationFinished(void)

