EXPORTS
	?timeFormat@SettingsUtility@@QAEHAAVQStringList@@@Z @ 1 NONAME ; int SettingsUtility::timeFormat(class QStringList &)
	?setSnoozeTime@SettingsUtility@@QAEXH@Z @ 2 NONAME ; void SettingsUtility::setSnoozeTime(int)
	?workdays@SettingsUtility@@QAEHAAVQStringList@@@Z @ 3 NONAME ; int SettingsUtility::workdays(class QStringList &)
	?setDateFormat@SettingsUtility@@QAEXABVQString@@@Z @ 4 NONAME ; void SettingsUtility::setDateFormat(class QString const &)
	?time@SettingsUtility@@QAE?AVQString@@XZ @ 5 NONAME ; class QString SettingsUtility::time(void)
	?staticMetaObject@SettingsUtility@@2UQMetaObject@@B @ 6 NONAME ; struct QMetaObject const SettingsUtility::staticMetaObject
	?clockType@SettingsUtility@@QAEHAAVQStringList@@@Z @ 7 NONAME ; int SettingsUtility::clockType(class QStringList &)
	?setDateSeparator@SettingsUtility@@QAEXABVQString@@@Z @ 8 NONAME ; void SettingsUtility::setDateSeparator(class QString const &)
	?date@SettingsUtility@@QAE?AVQString@@XZ @ 9 NONAME ; class QString SettingsUtility::date(void)
	?dateFormat@SettingsUtility@@QAEHAAVQStringList@@@Z @ 10 NONAME ; int SettingsUtility::dateFormat(class QStringList &)
	?dateSeparator@SettingsUtility@@QAEHAAVQStringList@@@Z @ 11 NONAME ; int SettingsUtility::dateSeparator(class QStringList &)
	?setTimeSeparator@SettingsUtility@@QAEXABVQString@@@Z @ 12 NONAME ; void SettingsUtility::setTimeSeparator(class QString const &)
	?snoozeTime@SettingsUtility@@QAEHAAVQStringList@@@Z @ 13 NONAME ; int SettingsUtility::snoozeTime(class QStringList &)
	?qt_metacast@SettingsUtility@@UAEPAXPBD@Z @ 14 NONAME ; void * SettingsUtility::qt_metacast(char const *)
	?setWorkdays@SettingsUtility@@QAEXABVQString@@@Z @ 15 NONAME ; void SettingsUtility::setWorkdays(class QString const &)
	?dateFormatString@SettingsUtility@@QAE?AVQString@@XZ @ 16 NONAME ; class QString SettingsUtility::dateFormatString(void)
	??_ESettingsUtility@@UAE@I@Z @ 17 NONAME ; SettingsUtility::~SettingsUtility(unsigned int)
	?metaObject@SettingsUtility@@UBEPBUQMetaObject@@XZ @ 18 NONAME ; struct QMetaObject const * SettingsUtility::metaObject(void) const
	??0SettingsUtility@@QAE@PAVQObject@@@Z @ 19 NONAME ; SettingsUtility::SettingsUtility(class QObject *)
	?qt_metacall@SettingsUtility@@UAEHW4Call@QMetaObject@@HPAPAX@Z @ 20 NONAME ; int SettingsUtility::qt_metacall(enum QMetaObject::Call, int, void * *)
	?timeSeparator@SettingsUtility@@QAEHAAVQStringList@@@Z @ 21 NONAME ; int SettingsUtility::timeSeparator(class QStringList &)
	?setClockType@SettingsUtility@@QAEXABVQString@@@Z @ 22 NONAME ; void SettingsUtility::setClockType(class QString const &)
	?setTimeFormat@SettingsUtility@@QAEXABVQString@@@Z @ 23 NONAME ; void SettingsUtility::setTimeFormat(class QString const &)
	?settingsChanged@SettingsUtility@@IAEXW4SettingsItemChanged@@VQString@@@Z @ 24 NONAME ; void SettingsUtility::settingsChanged(enum SettingsItemChanged, class QString)
	?timeFormatString@SettingsUtility@@QAE?AVQString@@XZ @ 25 NONAME ; class QString SettingsUtility::timeFormatString(void)
	?tr@SettingsUtility@@SA?AVQString@@PBD0H@Z @ 26 NONAME ; class QString SettingsUtility::tr(char const *, char const *, int)
	??1SettingsUtility@@UAE@XZ @ 27 NONAME ; SettingsUtility::~SettingsUtility(void)
	?setStartOfWeek@SettingsUtility@@QAEXH@Z @ 28 NONAME ; void SettingsUtility::setStartOfWeek(int)
	?trUtf8@SettingsUtility@@SA?AVQString@@PBD0@Z @ 29 NONAME ; class QString SettingsUtility::trUtf8(char const *, char const *)
	?tr@SettingsUtility@@SA?AVQString@@PBD0@Z @ 30 NONAME ; class QString SettingsUtility::tr(char const *, char const *)
	?trUtf8@SettingsUtility@@SA?AVQString@@PBD0H@Z @ 31 NONAME ; class QString SettingsUtility::trUtf8(char const *, char const *, int)
	?getStaticMetaObject@SettingsUtility@@SAABUQMetaObject@@XZ @ 32 NONAME ; struct QMetaObject const & SettingsUtility::getStaticMetaObject(void)

