EXPORTS
	_ZN10AgendaUtil10cloneEntryERK11AgendaEntryNS0_4TypeE @ 1 NONAME
	_ZN10AgendaUtil10entryAddedEm @ 2 NONAME
	_ZN10AgendaUtil11deleteEntryEm @ 3 NONAME
	_ZN10AgendaUtil11parentEntryER11AgendaEntry @ 4 NONAME
	_ZN10AgendaUtil11qt_metacallEN11QMetaObject4CallEiPPv @ 5 NONAME
	_ZN10AgendaUtil11qt_metacastEPKc @ 6 NONAME
	_ZN10AgendaUtil12entryDeletedEm @ 7 NONAME
	_ZN10AgendaUtil12entryUpdatedEm @ 8 NONAME
	_ZN10AgendaUtil12setCompletedER11AgendaEntrybR9QDateTime @ 9 NONAME
	_ZN10AgendaUtil13deleteEntriesER9QDateTimeS1_NS_11FilterFlagsE @ 10 NONAME
	_ZN10AgendaUtil14entriesChangedE5QListImE @ 11 NONAME
	_ZN10AgendaUtil14entriesDeletedEi @ 12 NONAME
	_ZN10AgendaUtil15fetchAllEntriesENS_11FilterFlagsE @ 13 NONAME
	_ZN10AgendaUtil15importvCalendarERK7QStringR11AgendaEntry @ 14 NONAME
	_ZN10AgendaUtil16staticMetaObjectE @ 15 NONAME DATA 16
	_ZN10AgendaUtil17exportAsvCalendarERK7QStringl @ 16 NONAME
	_ZN10AgendaUtil19deleteRepeatedEntryER11AgendaEntryNS_15RecurrenceRangeE @ 17 NONAME
	_ZN10AgendaUtil19fetchEntriesInRangeE9QDateTimeS0_NS_11FilterFlagsE @ 18 NONAME
	_ZN10AgendaUtil19getStaticMetaObjectEv @ 19 NONAME
	_ZN10AgendaUtil19markDatesWithEventsE9QDateTimeS0_NS_11FilterFlagsER5QListI5QDateE @ 20 NONAME
	_ZN10AgendaUtil20getNextInstanceTimesER11AgendaEntryR9QDateTimeS3_ @ 21 NONAME
	_ZN10AgendaUtil22areNoEntriesInCalendarEv @ 22 NONAME
	_ZN10AgendaUtil23createEntryIdListForDayE9QDateTimeNS_11FilterFlagsE @ 23 NONAME
	_ZN10AgendaUtil24getPreviousInstanceTimesER11AgendaEntryR9QDateTimeS3_ @ 24 NONAME
	_ZN10AgendaUtil24isWorkdaysRepeatingEntryERK16AgendaRepeatRule @ 25 NONAME
	_ZN10AgendaUtil26entryViewCreationCompletedEi @ 26 NONAME
	_ZN10AgendaUtil29instanceViewCreationCompletedEi @ 27 NONAME
	_ZN10AgendaUtil5storeER11AgendaEntryNS_15RecurrenceRangeE9QDateTime @ 28 NONAME
	_ZN10AgendaUtil7maxTimeEv @ 29 NONAME
	_ZN10AgendaUtil7minTimeEv @ 30 NONAME
	_ZN10AgendaUtil8entryIdsENS_11FilterFlagsE @ 31 NONAME
	_ZN10AgendaUtil9fetchByIdEm @ 32 NONAME
	_ZN10AgendaUtilC1EP7QObject @ 33 NONAME
	_ZN10AgendaUtilC2EP7QObject @ 34 NONAME
	_ZN10AgendaUtilD0Ev @ 35 NONAME
	_ZN10AgendaUtilD1Ev @ 36 NONAME
	_ZN10AgendaUtilD2Ev @ 37 NONAME
	_ZN11AgendaAlarm13setTimeOffsetEi @ 38 NONAME
	_ZN11AgendaAlarm17setAlarmSoundNameERK7QString @ 39 NONAME
	_ZN11AgendaAlarm6detachEv @ 40 NONAME
	_ZN11AgendaAlarmC1ERKS_ @ 41 NONAME
	_ZN11AgendaAlarmC1Ev @ 42 NONAME
	_ZN11AgendaAlarmC2ERKS_ @ 43 NONAME
	_ZN11AgendaAlarmC2Ev @ 44 NONAME
	_ZN11AgendaAlarmD1Ev @ 45 NONAME
	_ZN11AgendaAlarmD2Ev @ 46 NONAME
	_ZN11AgendaAlarmaSERKS_ @ 47 NONAME
	_ZN11AgendaEntry10categoriesEv @ 48 NONAME
	_ZN11AgendaEntry10setDTStampERK9QDateTime @ 49 NONAME
	_ZN11AgendaEntry10setSummaryERK7QString @ 50 NONAME
	_ZN11AgendaEntry11addAttendeeERK14AgendaAttendee @ 51 NONAME
	_ZN11AgendaEntry11addCategoryERK14AgendaCategory @ 52 NONAME
	_ZN11AgendaEntry11isRepeatingEv @ 53 NONAME
	_ZN11AgendaEntry11setGeoValueERK14AgendaGeoValue @ 54 NONAME
	_ZN11AgendaEntry11setLocationERK7QString @ 55 NONAME
	_ZN11AgendaEntry11setPriorityEi @ 56 NONAME
	_ZN11AgendaEntry12isTimedEntryEv @ 57 NONAME
	_ZN11AgendaEntry12recurrenceIdEv @ 58 NONAME
	_ZN11AgendaEntry12setFavouriteEj @ 59 NONAME
	_ZN11AgendaEntry13setRepeatRuleERK16AgendaRepeatRule @ 60 NONAME
	_ZN11AgendaEntry14setDescriptionERK7QString @ 61 NONAME
	_ZN11AgendaEntry15setRecurrenceIdER9QDateTime @ 62 NONAME
	_ZN11AgendaEntry18setStartAndEndTimeERK9QDateTimeS2_ @ 63 NONAME
	_ZN11AgendaEntry20setCompletedDateTimeERK9QDateTime @ 64 NONAME
	_ZN11AgendaEntry23setLastModifiedDateTimeERK9QDateTime @ 65 NONAME
	_ZN11AgendaEntry6detachEv @ 66 NONAME
	_ZN11AgendaEntry7setTypeENS_4TypeE @ 67 NONAME
	_ZN11AgendaEntry8setAlarmERK11AgendaAlarm @ 68 NONAME
	_ZN11AgendaEntry9attendeesEv @ 69 NONAME
	_ZN11AgendaEntry9setMethodENS_6MethodE @ 70 NONAME
	_ZN11AgendaEntry9setRDatesERK5QListI5QDateE @ 71 NONAME
	_ZN11AgendaEntry9setStatusENS_6StatusE @ 72 NONAME
	_ZN11AgendaEntryC1ENS_4TypeE @ 73 NONAME
	_ZN11AgendaEntryC1ERKS_ @ 74 NONAME
	_ZN11AgendaEntryC1Ev @ 75 NONAME
	_ZN11AgendaEntryC2ENS_4TypeE @ 76 NONAME
	_ZN11AgendaEntryC2ERKS_ @ 77 NONAME
	_ZN11AgendaEntryC2Ev @ 78 NONAME
	_ZN11AgendaEntryD0Ev @ 79 NONAME
	_ZN11AgendaEntryD1Ev @ 80 NONAME
	_ZN11AgendaEntryD2Ev @ 81 NONAME
	_ZN11AgendaEntryaSERKS_ @ 82 NONAME
	_ZN14AgendaAttendee10setAddressERK7QString @ 83 NONAME
	_ZN14AgendaAttendee13setCommonNameERK7QString @ 84 NONAME
	_ZN14AgendaAttendee20setResponseRequestedEb @ 85 NONAME
	_ZN14AgendaAttendee6detachEv @ 86 NONAME
	_ZN14AgendaAttendee7setRoleENS_15ParticipantRoleE @ 87 NONAME
	_ZN14AgendaAttendee9setStatusENS_10StatusTypeE @ 88 NONAME
	_ZN14AgendaAttendeeC1ERK7QString @ 89 NONAME
	_ZN14AgendaAttendeeC1ERKS_ @ 90 NONAME
	_ZN14AgendaAttendeeC1Ev @ 91 NONAME
	_ZN14AgendaAttendeeC2ERK7QString @ 92 NONAME
	_ZN14AgendaAttendeeC2ERKS_ @ 93 NONAME
	_ZN14AgendaAttendeeC2Ev @ 94 NONAME
	_ZN14AgendaAttendeeD0Ev @ 95 NONAME
	_ZN14AgendaAttendeeD1Ev @ 96 NONAME
	_ZN14AgendaAttendeeD2Ev @ 97 NONAME
	_ZN14AgendaAttendeeaSERKS_ @ 98 NONAME
	_ZN14AgendaCategory11setCategoryENS_12CategoryTypeE @ 99 NONAME
	_ZN14AgendaCategory23setExtendedCategoryNameERK7QString @ 100 NONAME
	_ZN14AgendaCategory6detachEv @ 101 NONAME
	_ZN14AgendaCategoryC1ENS_12CategoryTypeE @ 102 NONAME
	_ZN14AgendaCategoryC1ERKS_ @ 103 NONAME
	_ZN14AgendaCategoryC1Ev @ 104 NONAME
	_ZN14AgendaCategoryC2ENS_12CategoryTypeE @ 105 NONAME
	_ZN14AgendaCategoryC2ERKS_ @ 106 NONAME
	_ZN14AgendaCategoryC2Ev @ 107 NONAME
	_ZN14AgendaCategoryD0Ev @ 108 NONAME
	_ZN14AgendaCategoryD1Ev @ 109 NONAME
	_ZN14AgendaCategoryD2Ev @ 110 NONAME
	_ZN14AgendaCategoryaSERKS_ @ 111 NONAME
	_ZN14AgendaGeoValue10setLatLongEdd @ 112 NONAME
	_ZN14AgendaGeoValue6detachEv @ 113 NONAME
	_ZN14AgendaGeoValueC1ERKS_ @ 114 NONAME
	_ZN14AgendaGeoValueC1Ev @ 115 NONAME
	_ZN14AgendaGeoValueC2ERKS_ @ 116 NONAME
	_ZN14AgendaGeoValueC2Ev @ 117 NONAME
	_ZN14AgendaGeoValueD1Ev @ 118 NONAME
	_ZN14AgendaGeoValueD2Ev @ 119 NONAME
	_ZN14AgendaGeoValueaSERKS_ @ 120 NONAME
	_ZN16AgendaRepeatRule10setByMonthERK5QListINS_5MonthEE @ 121 NONAME
	_ZN16AgendaRepeatRule11setIntervalEi @ 122 NONAME
	_ZN16AgendaRepeatRule12setWeekStartENS_3DayE @ 123 NONAME
	_ZN16AgendaRepeatRule13setByMonthDayERK5QListIiE @ 124 NONAME
	_ZN16AgendaRepeatRule18setRepeatRuleStartERK9QDateTime @ 125 NONAME
	_ZN16AgendaRepeatRule6detachEv @ 126 NONAME
	_ZN16AgendaRepeatRule7setTypeENS_8RuleTypeE @ 127 NONAME
	_ZN16AgendaRepeatRule8setByDayERK5QListINS_3DayEE @ 128 NONAME
	_ZN16AgendaRepeatRule8setUntilERK9QDateTime @ 129 NONAME
	_ZN16AgendaRepeatRuleC1ENS_8RuleTypeE @ 130 NONAME
	_ZN16AgendaRepeatRuleC1ERKS_ @ 131 NONAME
	_ZN16AgendaRepeatRuleC1Ev @ 132 NONAME
	_ZN16AgendaRepeatRuleC2ENS_8RuleTypeE @ 133 NONAME
	_ZN16AgendaRepeatRuleC2ERKS_ @ 134 NONAME
	_ZN16AgendaRepeatRuleC2Ev @ 135 NONAME
	_ZN16AgendaRepeatRuleD1Ev @ 136 NONAME
	_ZN16AgendaRepeatRuleD2Ev @ 137 NONAME
	_ZN16AgendaRepeatRuleaSERKS_ @ 138 NONAME
	_ZNK10AgendaUtil10metaObjectEv @ 139 NONAME
	_ZNK10AgendaUtil5errorEv @ 140 NONAME
	_ZNK11AgendaAlarm10timeOffsetEv @ 141 NONAME
	_ZNK11AgendaAlarm14alarmSoundNameEv @ 142 NONAME
	_ZNK11AgendaAlarm6isNullEv @ 143 NONAME
	_ZNK11AgendaAlarmeqERKS_ @ 144 NONAME
	_ZNK11AgendaAlarmneERKS_ @ 145 NONAME
	_ZNK11AgendaEntry10categoriesEv @ 146 NONAME
	_ZNK11AgendaEntry10repeatRuleEv @ 147 NONAME
	_ZNK11AgendaEntry11descriptionEv @ 148 NONAME
	_ZNK11AgendaEntry13clearGeoValueEv @ 149 NONAME
	_ZNK11AgendaEntry14durationInSecsEv @ 150 NONAME
	_ZNK11AgendaEntry17completedDateTimeEv @ 151 NONAME
	_ZNK11AgendaEntry20lastModifiedDateTimeEv @ 152 NONAME
	_ZNK11AgendaEntry2idEv @ 153 NONAME
	_ZNK11AgendaEntry4typeEv @ 154 NONAME
	_ZNK11AgendaEntry5alarmEv @ 155 NONAME
	_ZNK11AgendaEntry6isNullEv @ 156 NONAME
	_ZNK11AgendaEntry6methodEv @ 157 NONAME
	_ZNK11AgendaEntry6rDatesEv @ 158 NONAME
	_ZNK11AgendaEntry6statusEv @ 159 NONAME
	_ZNK11AgendaEntry7dtStampEv @ 160 NONAME
	_ZNK11AgendaEntry7endTimeEv @ 161 NONAME
	_ZNK11AgendaEntry7summaryEv @ 162 NONAME
	_ZNK11AgendaEntry8geoValueEv @ 163 NONAME
	_ZNK11AgendaEntry8locationEv @ 164 NONAME
	_ZNK11AgendaEntry8priorityEv @ 165 NONAME
	_ZNK11AgendaEntry9attendeesEv @ 166 NONAME
	_ZNK11AgendaEntry9favouriteEv @ 167 NONAME
	_ZNK11AgendaEntry9startTimeEv @ 168 NONAME
	_ZNK11AgendaEntryeqERKS_ @ 169 NONAME
	_ZNK11AgendaEntryneERKS_ @ 170 NONAME
	_ZNK14AgendaAttendee10commonNameEv @ 171 NONAME
	_ZNK14AgendaAttendee17responseRequestedEv @ 172 NONAME
	_ZNK14AgendaAttendee4roleEv @ 173 NONAME
	_ZNK14AgendaAttendee6isNullEv @ 174 NONAME
	_ZNK14AgendaAttendee6statusEv @ 175 NONAME
	_ZNK14AgendaAttendee7addressEv @ 176 NONAME
	_ZNK14AgendaAttendeeeqERKS_ @ 177 NONAME
	_ZNK14AgendaAttendeeneERKS_ @ 178 NONAME
	_ZNK14AgendaCategory20extendedCategoryNameEv @ 179 NONAME
	_ZNK14AgendaCategory6isNullEv @ 180 NONAME
	_ZNK14AgendaCategory8categoryEv @ 181 NONAME
	_ZNK14AgendaCategoryeqERKS_ @ 182 NONAME
	_ZNK14AgendaCategoryneERKS_ @ 183 NONAME
	_ZNK14AgendaGeoValue10getLatLongERdS0_ @ 184 NONAME
	_ZNK14AgendaGeoValue6isNullEv @ 185 NONAME
	_ZNK14AgendaGeoValueeqERKS_ @ 186 NONAME
	_ZNK14AgendaGeoValueneERKS_ @ 187 NONAME
	_ZNK16AgendaRepeatRule10byMonthDayEv @ 188 NONAME
	_ZNK16AgendaRepeatRule15repeatRuleStartEv @ 189 NONAME
	_ZNK16AgendaRepeatRule4typeEv @ 190 NONAME
	_ZNK16AgendaRepeatRule5byDayEv @ 191 NONAME
	_ZNK16AgendaRepeatRule5untilEv @ 192 NONAME
	_ZNK16AgendaRepeatRule6isNullEv @ 193 NONAME
	_ZNK16AgendaRepeatRule7byMonthEv @ 194 NONAME
	_ZNK16AgendaRepeatRule8intervalEv @ 195 NONAME
	_ZNK16AgendaRepeatRule9weekStartEv @ 196 NONAME
	_ZNK16AgendaRepeatRuleeqERKS_ @ 197 NONAME
	_ZNK16AgendaRepeatRuleneERKS_ @ 198 NONAME
	_ZTI10AgendaUtil @ 199 NONAME
	_ZTI11AgendaEntry @ 200 NONAME
	_ZTI14AgendaAttendee @ 201 NONAME
	_ZTI14AgendaCategory @ 202 NONAME
	_ZTV10AgendaUtil @ 203 NONAME
	_ZTV11AgendaEntry @ 204 NONAME
	_ZTV14AgendaAttendee @ 205 NONAME
	_ZTV14AgendaCategory @ 206 NONAME

