EXPORTS
	_ZN11CntEditView10deactivateEv @ 1 NONAME
	_ZN11CntEditView11qt_metacallEN11QMetaObject4CallEiPPv @ 2 NONAME
	_ZN11CntEditView11qt_metacastEPKc @ 3 NONAME
	_ZN11CntEditView14contactRemovedEb @ 4 NONAME
	_ZN11CntEditView14contactUpdatedEi @ 5 NONAME
	_ZN11CntEditView16changesDiscardedEv @ 6 NONAME
	_ZN11CntEditView16staticMetaObjectE @ 7 NONAME DATA 16
	_ZN11CntEditView19getStaticMetaObjectEv @ 8 NONAME
	_ZN11CntEditView8activateE4QMapIi8QVariantE @ 9 NONAME
	_ZN11CntEditView9setEngineER17CntAbstractEngine @ 10 NONAME
	_ZN11CntEditViewC1Ev @ 11 NONAME
	_ZN11CntEditViewC2Ev @ 12 NONAME
	_ZN11CntEditViewD0Ev @ 13 NONAME
	_ZN11CntEditViewD1Ev @ 14 NONAME
	_ZN11CntEditViewD2Ev @ 15 NONAME
	_ZN13CntKeyGrabber11eventFilterEP7QObjectP6QEvent @ 16 NONAME
	_ZN13CntKeyGrabber11qt_metacallEN11QMetaObject4CallEiPPv @ 17 NONAME
	_ZN13CntKeyGrabber11qt_metacastEPKc @ 18 NONAME
	_ZN13CntKeyGrabber16staticMetaObjectE @ 19 NONAME DATA 16
	_ZN13CntKeyGrabber19getStaticMetaObjectEv @ 20 NONAME
	_ZN13CntKeyGrabberC1EP12HbMainWindowP7QObject @ 21 NONAME
	_ZN13CntKeyGrabberC2EP12HbMainWindowP7QObject @ 22 NONAME
	_ZN13CntKeyGrabberD0Ev @ 23 NONAME
	_ZN13CntKeyGrabberD1Ev @ 24 NONAME
	_ZN13CntKeyGrabberD2Ev @ 25 NONAME
	_ZN13CntMainWindow11qt_metacallEN11QMetaObject4CallEiPPv @ 26 NONAME
	_ZN13CntMainWindow11qt_metacastEPKc @ 27 NONAME
	_ZN13CntMainWindow16staticMetaObjectE @ 28 NONAME DATA 16
	_ZN13CntMainWindow19getStaticMetaObjectEv @ 29 NONAME
	_ZN13CntMainWindowC1EP7QWidgeti @ 30 NONAME
	_ZN13CntMainWindowC2EP7QWidgeti @ 31 NONAME
	_ZN13CntMainWindowD0Ev @ 32 NONAME
	_ZN13CntMainWindowD1Ev @ 33 NONAME
	_ZN13CntMainWindowD2Ev @ 34 NONAME
	_ZN14CntActionPopup11qt_metacallEN11QMetaObject4CallEiPPv @ 35 NONAME
	_ZN14CntActionPopup11qt_metacastEPKc @ 36 NONAME
	_ZN14CntActionPopup15showActionPopupE7QString @ 37 NONAME
	_ZN14CntActionPopup16staticMetaObjectE @ 38 NONAME DATA 16
	_ZN14CntActionPopup19getStaticMetaObjectEv @ 39 NONAME
	_ZN14CntActionPopup20executeContactActionERN10QtMobility8QContactENS0_14QContactDetailE7QString @ 40 NONAME
	_ZN14CntActionPopup24actionPopupCancelPressedEv @ 41 NONAME
	_ZN14CntActionPopupC1EPN10QtMobility8QContactE @ 42 NONAME
	_ZN14CntActionPopupC2EPN10QtMobility8QContactE @ 43 NONAME
	_ZN14CntActionPopupD0Ev @ 44 NONAME
	_ZN14CntActionPopupD1Ev @ 45 NONAME
	_ZN14CntActionPopupD2Ev @ 46 NONAME
	_ZN16CntViewNavigator11qt_metacallEN11QMetaObject4CallEiPPv @ 47 NONAME
	_ZN16CntViewNavigator11qt_metacastEPKc @ 48 NONAME
	_ZN16CntViewNavigator12addExceptionERKiS1_ @ 49 NONAME
	_ZN16CntViewNavigator12removeEffectERKi @ 50 NONAME
	_ZN16CntViewNavigator15removeExceptionERKi @ 51 NONAME
	_ZN16CntViewNavigator16staticMetaObjectE @ 52 NONAME DATA 16
	_ZN16CntViewNavigator19getStaticMetaObjectEv @ 53 NONAME
	_ZN16CntViewNavigator4backER6QFlagsIN2Hb14ViewSwitchFlagEEb @ 54 NONAME
	_ZN16CntViewNavigator4nextERKiR6QFlagsIN2Hb14ViewSwitchFlagEE @ 55 NONAME
	_ZN16CntViewNavigator7addRootERKi @ 56 NONAME
	_ZN16CntViewNavigator9addEffectERKiS1_ @ 57 NONAME
	_ZN16CntViewNavigatorC1EP7QObject @ 58 NONAME
	_ZN16CntViewNavigatorC2EP7QObject @ 59 NONAME
	_ZN16CntViewNavigatorD0Ev @ 60 NONAME
	_ZN16CntViewNavigatorD1Ev @ 61 NONAME
	_ZN16CntViewNavigatorD2Ev @ 62 NONAME
	_ZN18CntContactCardView10deactivateEv @ 63 NONAME
	_ZN18CntContactCardView11backPressedEi @ 64 NONAME
	_ZN18CntContactCardView11qt_metacallEN11QMetaObject4CallEiPPv @ 65 NONAME
	_ZN18CntContactCardView11qt_metacastEPKc @ 66 NONAME
	_ZN18CntContactCardView13addToContactsEv @ 67 NONAME
	_ZN18CntContactCardView13viewActivatedEP22CntAbstractViewManager4QMapIi8QVariantE @ 68 NONAME
	_ZN18CntContactCardView16staticMetaObjectE @ 69 NONAME DATA 16
	_ZN18CntContactCardView19getStaticMetaObjectEv @ 70 NONAME
	_ZN18CntContactCardView8activateE4QMapIi8QVariantE @ 71 NONAME
	_ZN18CntContactCardView9setEngineER17CntAbstractEngine @ 72 NONAME
	_ZN18CntContactCardViewC1Eb @ 73 NONAME
	_ZN18CntContactCardViewC2Eb @ 74 NONAME
	_ZN18CntContactCardViewD0Ev @ 75 NONAME
	_ZN18CntContactCardViewD1Ev @ 76 NONAME
	_ZN18CntContactCardViewD2Ev @ 77 NONAME
	_ZN18CntGroupMemberView10deactivateEv @ 78 NONAME
	_ZN18CntGroupMemberView11backPressedEv @ 79 NONAME
	_ZN18CntGroupMemberView11qt_metacallEN11QMetaObject4CallEiPPv @ 80 NONAME
	_ZN18CntGroupMemberView11qt_metacastEPKc @ 81 NONAME
	_ZN18CntGroupMemberView16staticMetaObjectE @ 82 NONAME DATA 16
	_ZN18CntGroupMemberView19getStaticMetaObjectEv @ 83 NONAME
	_ZN18CntGroupMemberView8activateE4QMapIi8QVariantE @ 84 NONAME
	_ZN18CntGroupMemberView9setEngineER17CntAbstractEngine @ 85 NONAME
	_ZN18CntGroupMemberViewC1Ev @ 86 NONAME
	_ZN18CntGroupMemberViewC2Ev @ 87 NONAME
	_ZN18CntGroupMemberViewD0Ev @ 88 NONAME
	_ZN18CntGroupMemberViewD1Ev @ 89 NONAME
	_ZN18CntGroupMemberViewD2Ev @ 90 NONAME
	_ZN20CntBaseSelectionView10deactivateEv @ 91 NONAME
	_ZN20CntBaseSelectionView10viewClosedEv @ 92 NONAME
	_ZN20CntBaseSelectionView10viewOpenedEP22CntAbstractViewManager4QMapIi8QVariantE @ 93 NONAME
	_ZN20CntBaseSelectionView11qt_metacallEN11QMetaObject4CallEiPPv @ 94 NONAME
	_ZN20CntBaseSelectionView11qt_metacastEPKc @ 95 NONAME
	_ZN20CntBaseSelectionView16staticMetaObjectE @ 96 NONAME DATA 16
	_ZN20CntBaseSelectionView19getStaticMetaObjectEv @ 97 NONAME
	_ZN20CntBaseSelectionView8activateE4QMapIi8QVariantE @ 98 NONAME
	_ZN20CntBaseSelectionViewC2Ev @ 99 NONAME
	_ZN20CntBaseSelectionViewD0Ev @ 100 NONAME
	_ZN20CntBaseSelectionViewD1Ev @ 101 NONAME
	_ZN20CntBaseSelectionViewD2Ev @ 102 NONAME
	_ZN21CntDefaultViewFactory10createViewEi @ 103 NONAME
	_ZN21CntDefaultViewFactory16createPluginViewEi @ 104 NONAME
	_ZN21CntDefaultViewFactoryC1ER19CntExtensionManager @ 105 NONAME
	_ZN21CntDefaultViewFactoryC2ER19CntExtensionManager @ 106 NONAME
	_ZN21CntDefaultViewFactoryD0Ev @ 107 NONAME
	_ZN21CntDefaultViewFactoryD1Ev @ 108 NONAME
	_ZN21CntDefaultViewFactoryD2Ev @ 109 NONAME
	_ZN21CntDefaultViewManager10changeViewE4QMapIi8QVariantE @ 110 NONAME
	_ZN21CntDefaultViewManager10switchViewE4QMapIi8QVariantE6QFlagsIN2Hb14ViewSwitchFlagEE @ 111 NONAME
	_ZN21CntDefaultViewManager11qt_metacallEN11QMetaObject4CallEiPPv @ 112 NONAME
	_ZN21CntDefaultViewManager11qt_metacastEPKc @ 113 NONAME
	_ZN21CntDefaultViewManager13currentViewIdEv @ 114 NONAME
	_ZN21CntDefaultViewManager13deleteOldViewEv @ 115 NONAME
	_ZN21CntDefaultViewManager14setViewFactoryEP22CntAbstractViewFactory @ 116 NONAME
	_ZN21CntDefaultViewManager16setViewNavigatorEP16CntViewNavigator @ 117 NONAME
	_ZN21CntDefaultViewManager16staticMetaObjectE @ 118 NONAME DATA 16
	_ZN21CntDefaultViewManager17removeCurrentViewEv @ 119 NONAME
	_ZN21CntDefaultViewManager19getStaticMetaObjectEv @ 120 NONAME
	_ZN21CntDefaultViewManager4backE4QMapIi8QVariantEb @ 121 NONAME
	_ZN21CntDefaultViewManager6engineEv @ 122 NONAME
	_ZN21CntDefaultViewManager7cleanupEv @ 123 NONAME
	_ZN21CntDefaultViewManager8closeAppEv @ 124 NONAME
	_ZN21CntDefaultViewManagerC1EP12HbMainWindow @ 125 NONAME
	_ZN21CntDefaultViewManagerC2EP12HbMainWindow @ 126 NONAME
	_ZN21CntDefaultViewManagerD0Ev @ 127 NONAME
	_ZN21CntDefaultViewManagerD1Ev @ 128 NONAME
	_ZN21CntDefaultViewManagerD2Ev @ 129 NONAME
	_ZNK11CntEditView10metaObjectEv @ 130 NONAME
	_ZNK11CntEditView4viewEv @ 131 NONAME
	_ZNK11CntEditView6viewIdEv @ 132 NONAME
	_ZNK11CntEditView9isDefaultEv @ 133 NONAME
	_ZNK13CntKeyGrabber10metaObjectEv @ 134 NONAME
	_ZNK13CntMainWindow10metaObjectEv @ 135 NONAME
	_ZNK14CntActionPopup10metaObjectEv @ 136 NONAME
	_ZNK16CntViewNavigator10metaObjectEv @ 137 NONAME
	_ZNK18CntContactCardView10metaObjectEv @ 138 NONAME
	_ZNK18CntContactCardView4viewEv @ 139 NONAME
	_ZNK18CntContactCardView6viewIdEv @ 140 NONAME
	_ZNK18CntContactCardView9isDefaultEv @ 141 NONAME
	_ZNK18CntGroupMemberView10metaObjectEv @ 142 NONAME
	_ZNK18CntGroupMemberView4viewEv @ 143 NONAME
	_ZNK18CntGroupMemberView6viewIdEv @ 144 NONAME
	_ZNK18CntGroupMemberView9isDefaultEv @ 145 NONAME
	_ZNK20CntBaseSelectionView10metaObjectEv @ 146 NONAME
	_ZNK20CntBaseSelectionView4viewEv @ 147 NONAME
	_ZNK20CntBaseSelectionView9isDefaultEv @ 148 NONAME
	_ZNK21CntDefaultViewManager10metaObjectEv @ 149 NONAME
	_ZTI11CntEditView @ 150 NONAME
	_ZTI13CntKeyGrabber @ 151 NONAME
	_ZTI13CntMainWindow @ 152 NONAME
	_ZTI14CntActionPopup @ 153 NONAME
	_ZTI16CntViewNavigator @ 154 NONAME
	_ZTI18CntContactCardView @ 155 NONAME
	_ZTI18CntGroupMemberView @ 156 NONAME
	_ZTI20CntBaseSelectionView @ 157 NONAME
	_ZTI21CntDefaultViewFactory @ 158 NONAME
	_ZTI21CntDefaultViewManager @ 159 NONAME
	_ZTV11CntEditView @ 160 NONAME
	_ZTV13CntKeyGrabber @ 161 NONAME
	_ZTV13CntMainWindow @ 162 NONAME
	_ZTV14CntActionPopup @ 163 NONAME
	_ZTV16CntViewNavigator @ 164 NONAME
	_ZTV18CntContactCardView @ 165 NONAME
	_ZTV18CntGroupMemberView @ 166 NONAME
	_ZTV20CntBaseSelectionView @ 167 NONAME
	_ZTV21CntDefaultViewFactory @ 168 NONAME
	_ZTV21CntDefaultViewManager @ 169 NONAME
	_ZThn8_N11CntEditView10deactivateEv @ 170 NONAME
	_ZThn8_N11CntEditView8activateE4QMapIi8QVariantE @ 171 NONAME
	_ZThn8_N11CntEditView9setEngineER17CntAbstractEngine @ 172 NONAME
	_ZThn8_N11CntEditViewD0Ev @ 173 NONAME
	_ZThn8_N11CntEditViewD1Ev @ 174 NONAME
	_ZThn8_N13CntMainWindowD0Ev @ 175 NONAME
	_ZThn8_N13CntMainWindowD1Ev @ 176 NONAME
	_ZThn8_N18CntContactCardView10deactivateEv @ 177 NONAME
	_ZThn8_N18CntContactCardView8activateE4QMapIi8QVariantE @ 178 NONAME
	_ZThn8_N18CntContactCardView9setEngineER17CntAbstractEngine @ 179 NONAME
	_ZThn8_N18CntContactCardViewD0Ev @ 180 NONAME
	_ZThn8_N18CntContactCardViewD1Ev @ 181 NONAME
	_ZThn8_N18CntGroupMemberView10deactivateEv @ 182 NONAME
	_ZThn8_N18CntGroupMemberView8activateE4QMapIi8QVariantE @ 183 NONAME
	_ZThn8_N18CntGroupMemberView9setEngineER17CntAbstractEngine @ 184 NONAME
	_ZThn8_N18CntGroupMemberViewD0Ev @ 185 NONAME
	_ZThn8_N18CntGroupMemberViewD1Ev @ 186 NONAME
	_ZThn8_N20CntBaseSelectionView10deactivateEv @ 187 NONAME
	_ZThn8_N20CntBaseSelectionView8activateE4QMapIi8QVariantE @ 188 NONAME
	_ZThn8_N20CntBaseSelectionViewD0Ev @ 189 NONAME
	_ZThn8_N20CntBaseSelectionViewD1Ev @ 190 NONAME
	_ZThn8_N21CntDefaultViewManager10changeViewE4QMapIi8QVariantE @ 191 NONAME
	_ZThn8_N21CntDefaultViewManager4backE4QMapIi8QVariantEb @ 192 NONAME
	_ZThn8_N21CntDefaultViewManagerD0Ev @ 193 NONAME
	_ZThn8_N21CntDefaultViewManagerD1Ev @ 194 NONAME
	_ZThn8_NK11CntEditView4viewEv @ 195 NONAME
	_ZThn8_NK11CntEditView6viewIdEv @ 196 NONAME
	_ZThn8_NK11CntEditView9isDefaultEv @ 197 NONAME
	_ZThn8_NK18CntContactCardView4viewEv @ 198 NONAME
	_ZThn8_NK18CntContactCardView6viewIdEv @ 199 NONAME
	_ZThn8_NK18CntContactCardView9isDefaultEv @ 200 NONAME
	_ZThn8_NK18CntGroupMemberView4viewEv @ 201 NONAME
	_ZThn8_NK18CntGroupMemberView6viewIdEv @ 202 NONAME
	_ZThn8_NK18CntGroupMemberView9isDefaultEv @ 203 NONAME
	_ZThn8_NK20CntBaseSelectionView4viewEv @ 204 NONAME
	_ZThn8_NK20CntBaseSelectionView9isDefaultEv @ 205 NONAME

