EXPORTS
	?writeMultiplePresence@PrcPresenceWriter@@QAE_NABV?$QList@PAVPrcPresenceBuddyInfoQt@@@@@Z @ 1 NONAME ; bool PrcPresenceWriter::writeMultiplePresence(class QList<class PrcPresenceBuddyInfoQt *> const &)
	?deletePresence@PrcPresenceWriter@@QAE_NABVQString@@@Z @ 2 NONAME ; bool PrcPresenceWriter::deletePresence(class QString const &)
	?buddyCountInService@PrcPresenceReader@@QAEHABVQString@@@Z @ 3 NONAME ; int PrcPresenceReader::buddyCountInService(class QString const &)
	?unSubscribePresenceBuddyChange@PrcPresenceReader@@QAEXABVQString@@@Z @ 4 NONAME ; void PrcPresenceReader::unSubscribePresenceBuddyChange(class QString const &)
	?qt_metacall@PrcPresenceWriter@@UAEHW4Call@QMetaObject@@HPAPAX@Z @ 5 NONAME ; int PrcPresenceWriter::qt_metacall(enum QMetaObject::Call, int, void * *)
	?servicesCount@PrcPresenceReader@@QAEHXZ @ 6 NONAME ; int PrcPresenceReader::servicesCount(void)
	?createWriter@PrcPresenceWriter@@SAPAV1@XZ @ 7 NONAME ; class PrcPresenceWriter * PrcPresenceWriter::createWriter(void)
	?writePresence@PrcPresenceWriter@@QAE_NABVPrcPresenceBuddyInfoQt@@@Z @ 8 NONAME ; bool PrcPresenceWriter::writePresence(class PrcPresenceBuddyInfoQt const &)
	?tr@PrcPresenceReader@@SA?AVQString@@PBD0@Z @ 9 NONAME ; class QString PrcPresenceReader::tr(char const *, char const *)
	?deleteService@PrcPresenceWriter@@QAE_NABVQString@@@Z @ 10 NONAME ; bool PrcPresenceWriter::deleteService(class QString const &)
	??1PrcPresenceWriter@@UAE@XZ @ 11 NONAME ; PrcPresenceWriter::~PrcPresenceWriter(void)
	?allBuddiesPresenceInService@PrcPresenceReader@@QAE_NABVQString@@@Z @ 12 NONAME ; bool PrcPresenceReader::allBuddiesPresenceInService(class QString const &)
	?cancelRead@PrcPresenceReader@@QAE_NXZ @ 13 NONAME ; bool PrcPresenceReader::cancelRead(void)
	??_EPrcPresenceReader@@UAE@I@Z @ 14 NONAME ; PrcPresenceReader::~PrcPresenceReader(unsigned int)
	?qt_metacast@PrcPresenceReader@@UAEPAXPBD@Z @ 15 NONAME ; void * PrcPresenceReader::qt_metacast(char const *)
	?createInstance@PrcPresenceBuddyInfoQt@@SAPAV1@XZ @ 16 NONAME ; class PrcPresenceBuddyInfoQt * PrcPresenceBuddyInfoQt::createInstance(void)
	?buddyCountInAllServices@PrcPresenceReader@@QAEHXZ @ 17 NONAME ; int PrcPresenceReader::buddyCountInAllServices(void)
	??0PrcPresenceWriter@@AAE@XZ @ 18 NONAME ; PrcPresenceWriter::PrcPresenceWriter(void)
	?createReader@PrcPresenceReader@@SAPAV1@XZ @ 19 NONAME ; class PrcPresenceReader * PrcPresenceReader::createReader(void)
	?getStaticMetaObject@PrcPresenceWriter@@SAABUQMetaObject@@XZ @ 20 NONAME ; struct QMetaObject const & PrcPresenceWriter::getStaticMetaObject(void)
	?signalPresenceRead@PrcPresenceReader@@IAEX_NV?$QList@PAVPrcPresenceBuddyInfoQt@@@@@Z @ 21 NONAME ; void PrcPresenceReader::signalPresenceRead(bool, class QList<class PrcPresenceBuddyInfoQt *>)
	?newBuddyPresenceInfo@PrcPresenceWriter@@QAEPAVPrcPresenceBuddyInfoQt@@XZ @ 22 NONAME ; class PrcPresenceBuddyInfoQt * PrcPresenceWriter::newBuddyPresenceInfo(void)
	?cancelWrite@PrcPresenceWriter@@QAE_NXZ @ 23 NONAME ; bool PrcPresenceWriter::cancelWrite(void)
	?signalPresenceWrite@PrcPresenceWriter@@IAEX_N@Z @ 24 NONAME ; void PrcPresenceWriter::signalPresenceWrite(bool)
	?trUtf8@PrcPresenceWriter@@SA?AVQString@@PBD0@Z @ 25 NONAME ; class QString PrcPresenceWriter::trUtf8(char const *, char const *)
	?qt_metacall@PrcPresenceReader@@UAEHW4Call@QMetaObject@@HPAPAX@Z @ 26 NONAME ; int PrcPresenceReader::qt_metacall(enum QMetaObject::Call, int, void * *)
	?tr@PrcPresenceWriter@@SA?AVQString@@PBD0H@Z @ 27 NONAME ; class QString PrcPresenceWriter::tr(char const *, char const *, int)
	?qt_metacast@PrcPresenceWriter@@UAEPAXPBD@Z @ 28 NONAME ; void * PrcPresenceWriter::qt_metacast(char const *)
	??1PrcPresenceReader@@UAE@XZ @ 29 NONAME ; PrcPresenceReader::~PrcPresenceReader(void)
	?getStaticMetaObject@PrcPresenceReader@@SAABUQMetaObject@@XZ @ 30 NONAME ; struct QMetaObject const & PrcPresenceReader::getStaticMetaObject(void)
	?metaObject@PrcPresenceWriter@@UBEPBUQMetaObject@@XZ @ 31 NONAME ; struct QMetaObject const * PrcPresenceWriter::metaObject(void) const
	?tr@PrcPresenceReader@@SA?AVQString@@PBD0H@Z @ 32 NONAME ; class QString PrcPresenceReader::tr(char const *, char const *, int)
	?staticMetaObject@PrcPresenceReader@@2UQMetaObject@@B @ 33 NONAME ; struct QMetaObject const PrcPresenceReader::staticMetaObject
	?staticMetaObject@PrcPresenceWriter@@2UQMetaObject@@B @ 34 NONAME ; struct QMetaObject const PrcPresenceWriter::staticMetaObject
	?trUtf8@PrcPresenceReader@@SA?AVQString@@PBD0@Z @ 35 NONAME ; class QString PrcPresenceReader::trUtf8(char const *, char const *)
	?metaObject@PrcPresenceReader@@UBEPBUQMetaObject@@XZ @ 36 NONAME ; struct QMetaObject const * PrcPresenceReader::metaObject(void) const
	?trUtf8@PrcPresenceWriter@@SA?AVQString@@PBD0H@Z @ 37 NONAME ; class QString PrcPresenceWriter::trUtf8(char const *, char const *, int)
	?tr@PrcPresenceWriter@@SA?AVQString@@PBD0@Z @ 38 NONAME ; class QString PrcPresenceWriter::tr(char const *, char const *)
	??0PrcPresenceReader@@AAE@XZ @ 39 NONAME ; PrcPresenceReader::PrcPresenceReader(void)
	?presenceInfo@PrcPresenceReader@@QAEPAVPrcPresenceBuddyInfoQt@@ABVQString@@@Z @ 40 NONAME ; class PrcPresenceBuddyInfoQt * PrcPresenceReader::presenceInfo(class QString const &)
	?signalPresenceNotification@PrcPresenceReader@@IAEX_NPAVPrcPresenceBuddyInfoQt@@@Z @ 41 NONAME ; void PrcPresenceReader::signalPresenceNotification(bool, class PrcPresenceBuddyInfoQt *)
	?subscribePresenceBuddyChange@PrcPresenceReader@@QAE_NABVQString@@@Z @ 42 NONAME ; bool PrcPresenceReader::subscribePresenceBuddyChange(class QString const &)
	??_EPrcPresenceWriter@@UAE@I@Z @ 43 NONAME ; PrcPresenceWriter::~PrcPresenceWriter(unsigned int)
	?trUtf8@PrcPresenceReader@@SA?AVQString@@PBD0H@Z @ 44 NONAME ; class QString PrcPresenceReader::trUtf8(char const *, char const *, int)

