EXPORTS
	?edit@NotesEditor@@QAEXVAgendaEntry@@@Z @ 1 NONAME ; void NotesEditor::edit(class AgendaEntry)
	?tr@NotesEditor@@SA?AVQString@@PBD0H@Z @ 2 NONAME ; class QString NotesEditor::tr(char const *, char const *, int)
	?edit@NotesEditor@@QAEXK@Z @ 3 NONAME ; void NotesEditor::edit(unsigned long)
	?edit@NotesEditor@@QAEXABVQFile@@@Z @ 4 NONAME ; void NotesEditor::edit(class QFile const &)
	?d_func@NotesEditor@@ABEPBVNotesEditorPrivate@@XZ @ 5 NONAME ; class NotesEditorPrivate const * NotesEditor::d_func(void) const
	?qt_metacast@NotesEditor@@UAEPAXPBD@Z @ 6 NONAME ; void * NotesEditor::qt_metacast(char const *)
	?trUtf8@NotesEditor@@SA?AVQString@@PBD0H@Z @ 7 NONAME ; class QString NotesEditor::trUtf8(char const *, char const *, int)
	??_ENotesEditor@@UAE@I@Z @ 8 NONAME ; NotesEditor::~NotesEditor(unsigned int)
	?edit@NotesEditor@@QAEXABVQString@@@Z @ 9 NONAME ; void NotesEditor::edit(class QString const &)
	?qt_metacall@NotesEditor@@UAEHW4Call@QMetaObject@@HPAPAX@Z @ 10 NONAME ; int NotesEditor::qt_metacall(enum QMetaObject::Call, int, void * *)
	?create@NotesEditor@@QAEXW4CreateType@1@@Z @ 11 NONAME ; void NotesEditor::create(enum NotesEditor::CreateType)
	?d_func@NotesEditor@@AAEPAVNotesEditorPrivate@@XZ @ 12 NONAME ; class NotesEditorPrivate * NotesEditor::d_func(void)
	??1NotesEditor@@UAE@XZ @ 13 NONAME ; NotesEditor::~NotesEditor(void)
	??0NotesEditor@@QAE@PAVQObject@@@Z @ 14 NONAME ; NotesEditor::NotesEditor(class QObject *)
	?staticMetaObject@NotesEditor@@2UQMetaObject@@B @ 15 NONAME ; struct QMetaObject const NotesEditor::staticMetaObject
	??0NotesEditor@@QAE@PAVAgendaUtil@@PAVQObject@@@Z @ 16 NONAME ; NotesEditor::NotesEditor(class AgendaUtil *, class QObject *)
	?close@NotesEditor@@QAEKW4CloseType@1@@Z @ 17 NONAME ; unsigned long NotesEditor::close(enum NotesEditor::CloseType)
	?editingCompleted@NotesEditor@@IAEX_N@Z @ 18 NONAME ; void NotesEditor::editingCompleted(bool)
	?metaObject@NotesEditor@@UBEPBUQMetaObject@@XZ @ 19 NONAME ; struct QMetaObject const * NotesEditor::metaObject(void) const
	?tr@NotesEditor@@SA?AVQString@@PBD0@Z @ 20 NONAME ; class QString NotesEditor::tr(char const *, char const *)
	?trUtf8@NotesEditor@@SA?AVQString@@PBD0@Z @ 21 NONAME ; class QString NotesEditor::trUtf8(char const *, char const *)
	?getStaticMetaObject@NotesEditor@@SAABUQMetaObject@@XZ @ 22 NONAME ; struct QMetaObject const & NotesEditor::getStaticMetaObject(void)

