EXPORTS
	_ZN10MpSongData11qt_metacallEN11QMetaObject4CallEiPPv @ 1 NONAME
	_ZN10MpSongData11qt_metacastEPKc @ 2 NONAME
	_ZN10MpSongData11setMpxMediaERK9CMPXMedia @ 3 NONAME
	_ZN10MpSongData13albumArtReadyEv @ 4 NONAME
	_ZN10MpSongData14thumbnailReadyE7QPixmapPvii @ 5 NONAME
	_ZN10MpSongData16staticMetaObjectE @ 6 NONAME DATA 16
	_ZN10MpSongData19getStaticMetaObjectEv @ 7 NONAME
	_ZN10MpSongData19playbackInfoChangedEv @ 8 NONAME
	_ZN10MpSongData21songDetailInfoChangedEv @ 9 NONAME
	_ZN10MpSongData7setLinkERK7QString @ 10 NONAME
	_ZN10MpSongDataC1EP7QObject @ 11 NONAME
	_ZN10MpSongDataC2EP7QObject @ 12 NONAME
	_ZN10MpSongDataD0Ev @ 13 NONAME
	_ZN10MpSongDataD1Ev @ 14 NONAME
	_ZN10MpSongDataD2Ev @ 15 NONAME
	_ZN14MpPlaybackData10setAlbumIdEi @ 16 NONAME
	_ZN14MpPlaybackData11qt_metacallEN11QMetaObject4CallEiPPv @ 17 NONAME
	_ZN14MpPlaybackData11qt_metacastEPKc @ 18 NONAME
	_ZN14MpPlaybackData11setDurationEi @ 19 NONAME
	_ZN14MpPlaybackData11setPositionEi @ 20 NONAME
	_ZN14MpPlaybackData12setCorruptedEi @ 21 NONAME
	_ZN14MpPlaybackData12setRealAudioEb @ 22 NONAME
	_ZN14MpPlaybackData13albumArtReadyEv @ 23 NONAME
	_ZN14MpPlaybackData13fileCorruptedEi @ 24 NONAME
	_ZN14MpPlaybackData14setAlbumArtUriERK7QString @ 25 NONAME
	_ZN14MpPlaybackData14thumbnailReadyERK7QPixmapPvii @ 26 NONAME
	_ZN14MpPlaybackData15durationChangedEv @ 27 NONAME
	_ZN14MpPlaybackData15positionChangedEv @ 28 NONAME
	_ZN14MpPlaybackData16setPlaybackStateENS_15SimplifiedStateE @ 29 NONAME
	_ZN14MpPlaybackData16staticMetaObjectE @ 30 NONAME DATA 16
	_ZN14MpPlaybackData18commitPlaybackInfoEb @ 31 NONAME
	_ZN14MpPlaybackData19getStaticMetaObjectEv @ 32 NONAME
	_ZN14MpPlaybackData19playbackInfoChangedEv @ 33 NONAME
	_ZN14MpPlaybackData20playbackStateChangedEv @ 34 NONAME
	_ZN14MpPlaybackData2idEv @ 35 NONAME
	_ZN14MpPlaybackData5setIdEi @ 36 NONAME
	_ZN14MpPlaybackData6setUriERK7QString @ 37 NONAME
	_ZN14MpPlaybackData7albumIdEv @ 38 NONAME
	_ZN14MpPlaybackData8setAlbumERK7QString @ 39 NONAME
	_ZN14MpPlaybackData8setTitleERK7QString @ 40 NONAME
	_ZN14MpPlaybackData9realAudioEv @ 41 NONAME
	_ZN14MpPlaybackData9resetDataEv @ 42 NONAME
	_ZN14MpPlaybackData9setArtistERK7QString @ 43 NONAME
	_ZN14MpPlaybackDataC1EP7QObject @ 44 NONAME
	_ZN14MpPlaybackDataC2EP7QObject @ 45 NONAME
	_ZN14MpPlaybackDataD0Ev @ 46 NONAME
	_ZN14MpPlaybackDataD1Ev @ 47 NONAME
	_ZN14MpPlaybackDataD2Ev @ 48 NONAME
	_ZN19MpMpxCollectionData10removeItemEi @ 49 NONAME
	_ZN19MpMpxCollectionData10setContextE18TCollectionContext @ 50 NONAME
	_ZN19MpMpxCollectionData11albumSongIdEi @ 51 NONAME
	_ZN19MpMpxCollectionData11containerIdEv @ 52 NONAME
	_ZN19MpMpxCollectionData11dataChangedEv @ 53 NONAME
	_ZN19MpMpxCollectionData11qt_metacallEN11QMetaObject4CallEiPPv @ 54 NONAME
	_ZN19MpMpxCollectionData11qt_metacastEPKc @ 55 NONAME
	_ZN19MpMpxCollectionData11setMpxMediaERK9CMPXMediab @ 56 NONAME
	_ZN19MpMpxCollectionData14albumSongIndexEi @ 57 NONAME
	_ZN19MpMpxCollectionData14containerMediaEv @ 58 NONAME
	_ZN19MpMpxCollectionData14contextChangedE18TCollectionContext @ 59 NONAME
	_ZN19MpMpxCollectionData14isAutoPlaylistEi @ 60 NONAME
	_ZN19MpMpxCollectionData14isAutoPlaylistEv @ 61 NONAME
	_ZN19MpMpxCollectionData14testCachedItemEi @ 62 NONAME
	_ZN19MpMpxCollectionData15setAlbumContentERK9CMPXMedia @ 63 NONAME
	_ZN19MpMpxCollectionData15setCorruptValueE11QModelIndexb @ 64 NONAME
	_ZN19MpMpxCollectionData15setCurrentAlbumEi @ 65 NONAME
	_ZN19MpMpxCollectionData16albumDataChangedEv @ 66 NONAME
	_ZN19MpMpxCollectionData16insertCachedItemEi @ 67 NONAME
	_ZN19MpMpxCollectionData16staticMetaObjectE @ 68 NONAME DATA 16
	_ZN19MpMpxCollectionData17refreshAlbumSongsEv @ 69 NONAME
	_ZN19MpMpxCollectionData19getStaticMetaObjectEv @ 70 NONAME
	_ZN19MpMpxCollectionData21setReloadAlbumContentEb @ 71 NONAME
	_ZN19MpMpxCollectionData6itemIdEi @ 72 NONAME
	_ZN19MpMpxCollectionData9itemCountEi @ 73 NONAME
	_ZN19MpMpxCollectionData9itemIndexEi @ 74 NONAME
	_ZN19MpMpxCollectionData9songIndexEi @ 75 NONAME
	_ZN19MpMpxCollectionDataC1EP7QObject @ 76 NONAME
	_ZN19MpMpxCollectionDataC2EP7QObject @ 77 NONAME
	_ZN19MpMpxCollectionDataD0Ev @ 78 NONAME
	_ZN19MpMpxCollectionDataD1Ev @ 79 NONAME
	_ZN19MpMpxCollectionDataD2Ev @ 80 NONAME
	_ZN21MpCollectionDataModel10reloadDataEv @ 81 NONAME
	_ZN21MpCollectionDataModel10removeRowsEiiRK11QModelIndex @ 82 NONAME
	_ZN21MpCollectionDataModel10setContextE18TCollectionContext @ 83 NONAME
	_ZN21MpCollectionDataModel11qt_metacallEN11QMetaObject4CallEiPPv @ 84 NONAME
	_ZN21MpCollectionDataModel11qt_metacastEPKc @ 85 NONAME
	_ZN21MpCollectionDataModel12dataReloadedEv @ 86 NONAME
	_ZN21MpCollectionDataModel12dropMimeDataEPK9QMimeDataN2Qt10DropActionEiiRK11QModelIndex @ 87 NONAME
	_ZN21MpCollectionDataModel12orderChangedEiiii @ 88 NONAME
	_ZN21MpCollectionDataModel12refreshModelEv @ 89 NONAME
	_ZN21MpCollectionDataModel13fileCorruptedEi @ 90 NONAME
	_ZN21MpCollectionDataModel14collectionDataEv @ 91 NONAME
	_ZN21MpCollectionDataModel14updateAlbumArtEi @ 92 NONAME
	_ZN21MpCollectionDataModel16staticMetaObjectE @ 93 NONAME DATA 16
	_ZN21MpCollectionDataModel17setItemVisibilityERK11QModelIndexb @ 94 NONAME
	_ZN21MpCollectionDataModel19getStaticMetaObjectEv @ 95 NONAME
	_ZN21MpCollectionDataModelC1EP19MpMpxCollectionDataP14MpPlaybackDataP7QObject @ 96 NONAME
	_ZN21MpCollectionDataModelC2EP19MpMpxCollectionDataP14MpPlaybackDataP7QObject @ 97 NONAME
	_ZN21MpCollectionDataModelD0Ev @ 98 NONAME
	_ZN21MpCollectionDataModelD1Ev @ 99 NONAME
	_ZN21MpCollectionDataModelD2Ev @ 100 NONAME
	_ZN30MpCollectionTBoneListDataModel10updateSongEv @ 101 NONAME
	_ZN30MpCollectionTBoneListDataModel11qt_metacallEN11QMetaObject4CallEiPPv @ 102 NONAME
	_ZN30MpCollectionTBoneListDataModel11qt_metacastEPKc @ 103 NONAME
	_ZN30MpCollectionTBoneListDataModel12refreshModelEv @ 104 NONAME
	_ZN30MpCollectionTBoneListDataModel13fileCorruptedEi @ 105 NONAME
	_ZN30MpCollectionTBoneListDataModel16albumDataChangedEv @ 106 NONAME
	_ZN30MpCollectionTBoneListDataModel16staticMetaObjectE @ 107 NONAME DATA 16
	_ZN30MpCollectionTBoneListDataModel18albumDataAvailableEv @ 108 NONAME
	_ZN30MpCollectionTBoneListDataModel19getStaticMetaObjectEv @ 109 NONAME
	_ZN30MpCollectionTBoneListDataModel19updatePlaybackStateEv @ 110 NONAME
	_ZN30MpCollectionTBoneListDataModel29enablePlaybackIndicatorEnableEb @ 111 NONAME
	_ZN30MpCollectionTBoneListDataModelC1EP19MpMpxCollectionDataP14MpPlaybackDataP7QObject @ 112 NONAME
	_ZN30MpCollectionTBoneListDataModelC2EP19MpMpxCollectionDataP14MpPlaybackDataP7QObject @ 113 NONAME
	_ZN30MpCollectionTBoneListDataModelD0Ev @ 114 NONAME
	_ZN30MpCollectionTBoneListDataModelD1Ev @ 115 NONAME
	_ZN30MpCollectionTBoneListDataModelD2Ev @ 116 NONAME
	_ZNK10MpSongData10albumTrackEv @ 117 NONAME
	_ZNK10MpSongData10metaObjectEv @ 118 NONAME
	_ZNK10MpSongData10sampleRateEv @ 119 NONAME
	_ZNK10MpSongData14albumArtBase64Ev @ 120 NONAME
	_ZNK10MpSongData14isDrmProtectedEv @ 121 NONAME
	_ZNK10MpSongData14reservedLengthEv @ 122 NONAME
	_ZNK10MpSongData18removeAlbumArtFileEv @ 123 NONAME
	_ZNK10MpSongData4linkEv @ 124 NONAME
	_ZNK10MpSongData4sizeEv @ 125 NONAME
	_ZNK10MpSongData4yearEv @ 126 NONAME
	_ZNK10MpSongData5albumEv @ 127 NONAME
	_ZNK10MpSongData5genreEv @ 128 NONAME
	_ZNK10MpSongData5titleEv @ 129 NONAME
	_ZNK10MpSongData6artistEv @ 130 NONAME
	_ZNK10MpSongData7bitRateEv @ 131 NONAME
	_ZNK10MpSongData7commentEv @ 132 NONAME
	_ZNK10MpSongData8albumArtER6HbIcon @ 133 NONAME
	_ZNK10MpSongData8composerEv @ 134 NONAME
	_ZNK10MpSongData8durationEv @ 135 NONAME
	_ZNK10MpSongData8fileNameEv @ 136 NONAME
	_ZNK10MpSongData8mimeTypeEv @ 137 NONAME
	_ZNK10MpSongData8modifiedEv @ 138 NONAME
	_ZNK10MpSongData8musicURLEv @ 139 NONAME
	_ZNK10MpSongData9copyrightEv @ 140 NONAME
	_ZNK14MpPlaybackData10metaObjectEv @ 141 NONAME
	_ZNK14MpPlaybackData13playbackStateEv @ 142 NONAME
	_ZNK14MpPlaybackData3uriEv @ 143 NONAME
	_ZNK14MpPlaybackData5albumEv @ 144 NONAME
	_ZNK14MpPlaybackData5titleEv @ 145 NONAME
	_ZNK14MpPlaybackData6artistEv @ 146 NONAME
	_ZNK14MpPlaybackData8albumArtER6HbIcon @ 147 NONAME
	_ZNK14MpPlaybackData8durationEv @ 148 NONAME
	_ZNK14MpPlaybackData8positionEv @ 149 NONAME
	_ZNK19MpMpxCollectionData10metaObjectEv @ 150 NONAME
	_ZNK19MpMpxCollectionData13albumSongDataEiNS_8DataTypeE @ 151 NONAME
	_ZNK19MpMpxCollectionData15albumSongsCountEv @ 152 NONAME
	_ZNK19MpMpxCollectionData15collectionTitleEv @ 153 NONAME
	_ZNK19MpMpxCollectionData15hasItemPropertyEiNS_12DataPropertyE @ 154 NONAME
	_ZNK19MpMpxCollectionData17currentAlbumIndexEv @ 155 NONAME
	_ZNK19MpMpxCollectionData20hasAlbumSongPropertyEiNS_12DataPropertyE @ 156 NONAME
	_ZNK19MpMpxCollectionData5countEv @ 157 NONAME
	_ZNK19MpMpxCollectionData7contextEv @ 158 NONAME
	_ZNK19MpMpxCollectionData8itemDataEiNS_8DataTypeE @ 159 NONAME
	_ZNK21MpCollectionDataModel10metaObjectEv @ 160 NONAME
	_ZNK21MpCollectionDataModel20supportedDropActionsEv @ 161 NONAME
	_ZNK21MpCollectionDataModel4dataERK11QModelIndexi @ 162 NONAME
	_ZNK21MpCollectionDataModel8mimeDataERK5QListI11QModelIndexE @ 163 NONAME
	_ZNK21MpCollectionDataModel8rowCountERK11QModelIndex @ 164 NONAME
	_ZNK21MpCollectionDataModel9mimeTypesEv @ 165 NONAME
	_ZNK30MpCollectionTBoneListDataModel10metaObjectEv @ 166 NONAME
	_ZNK30MpCollectionTBoneListDataModel4dataERK11QModelIndexi @ 167 NONAME
	_ZNK30MpCollectionTBoneListDataModel8rowCountERK11QModelIndex @ 168 NONAME
	_ZTI10MpSongData @ 169 NONAME
	_ZTI14MpPlaybackData @ 170 NONAME
	_ZTI19MpMpxCollectionData @ 171 NONAME
	_ZTI21MpCollectionDataModel @ 172 NONAME
	_ZTI30MpCollectionTBoneListDataModel @ 173 NONAME
	_ZTV10MpSongData @ 174 NONAME
	_ZTV14MpPlaybackData @ 175 NONAME
	_ZTV19MpMpxCollectionData @ 176 NONAME
	_ZTV21MpCollectionDataModel @ 177 NONAME
	_ZTV30MpCollectionTBoneListDataModel @ 178 NONAME
	_ZN21MpCollectionDataModel9setLayoutE17TCollectionLayout @ 179 NONAME
	_ZN19MpMpxCollectionData11dataChangedEii @ 180 NONAME
	_ZN19MpMpxCollectionData21incrementalOpenUpdateEv @ 181 NONAME
	_ZN21MpCollectionDataModel10reloadDataEii @ 182 NONAME
	_ZN14MpPlaybackData24collectionPlaylistOpenedEv @ 183 NONAME
	_ZN14MpPlaybackData30handleCollectionPlaylistOpenedEv @ 184 NONAME

