EXPORTS
	_ZN15GlxStateManager10setupItemsEv @ 1 NONAME
	_ZN15GlxStateManager11changeStateEii @ 2 NONAME
	_ZN15GlxStateManager11createModelEi13NavigationDir @ 3 NONAME
	_ZN15GlxStateManager11createStateEi @ 4 NONAME
	_ZN15GlxStateManager11eventFilterEP7QObjectP6QEvent @ 5 NONAME
	_ZN15GlxStateManager11qt_metacallEN11QMetaObject4CallEiPPv @ 6 NONAME
	_ZN15GlxStateManager11qt_metacastEPKc @ 7 NONAME
	_ZN15GlxStateManager12eventHandlerERi @ 8 NONAME
	_ZN15GlxStateManager13cleanAllModelEv @ 9 NONAME
	_ZN15GlxStateManager13launchFetcherEi @ 10 NONAME
	_ZN15GlxStateManager13previousStateEv @ 11 NONAME
	_ZN15GlxStateManager14executeCommandEi @ 12 NONAME
	_ZN15GlxStateManager14launchActivityEv @ 13 NONAME
	_ZN15GlxStateManager15actionTriggeredEi @ 14 NONAME
	_ZN15GlxStateManager15cleanupExternalEv @ 15 NONAME
	_ZN15GlxStateManager15createGridModelEi13NavigationDir @ 16 NONAME
	_ZN15GlxStateManager15exitApplicationEv @ 17 NONAME
	_ZN15GlxStateManager15exitMarkingModeEv @ 18 NONAME
	_ZN15GlxStateManager15externalCommandEi @ 19 NONAME
	_ZN15GlxStateManager16enterMarkingModeEv @ 20 NONAME
	_ZN15GlxStateManager16gridItemSelectedERK11QModelIndexR18QAbstractItemModel @ 21 NONAME
	_ZN15GlxStateManager16setupItemsSignalEv @ 22 NONAME
	_ZN15GlxStateManager16staticMetaObjectE @ 23 NONAME DATA 16
	_ZN15GlxStateManager16updateTNProgressEi @ 24 NONAME
	_ZN15GlxStateManager17launchApplicationEv @ 25 NONAME
	_ZN15GlxStateManager18launchFromExternalEv @ 26 NONAME
	_ZN15GlxStateManager18removeCurrentModelEv @ 27 NONAME
	_ZN15GlxStateManager18thumbnailPopulatedEv @ 28 NONAME
	_ZN15GlxStateManager19getStaticMetaObjectEv @ 29 NONAME
	_ZN15GlxStateManager20launchProgressDialogEv @ 30 NONAME
	_ZN15GlxStateManager20setFullScreenContextEv @ 31 NONAME
	_ZN15GlxStateManager20validateActivityDataEv @ 32 NONAME
	_ZN15GlxStateManager20vanishProgressDialogEv @ 33 NONAME
	_ZN15GlxStateManager6goBackEii @ 34 NONAME
	_ZN15GlxStateManager8saveDataEv @ 35 NONAME
	_ZN15GlxStateManager9nextStateEii @ 36 NONAME
	_ZN15GlxStateManager9saveImageEv @ 37 NONAME
	_ZN15GlxStateManagerC1Ev @ 38 NONAME
	_ZN15GlxStateManagerC2Ev @ 39 NONAME
	_ZN15GlxStateManagerD0Ev @ 40 NONAME
	_ZN15GlxStateManagerD1Ev @ 41 NONAME
	_ZN15GlxStateManagerD2Ev @ 42 NONAME
	_ZNK15GlxStateManager10metaObjectEv @ 43 NONAME
	_ZTI15GlxStateManager @ 44 NONAME
	_ZTV15GlxStateManager @ 45 NONAME

