EXPORTS
	_ZN17CImMobilityLogger10LogDataOutEiRK6TDesC8 @ 1 NONAME
	_ZN17CImMobilityLogger16CreateDefaultLogERK7TDesC16 @ 2 NONAME
	_ZN17CImMobilityLogger17CreateStandardLogERK7TDesC16Ri @ 3 NONAME
	_ZN17CImMobilityLogger5LogOnEii @ 4 NONAME
	_ZN17CImMobilityLogger7LogTextEiPKc @ 5 NONAME
	_ZN17CImMobilityLogger7LogTextEiRK6TDesC8 @ 6 NONAME
	_ZN17CImMobilityLogger8CloseLogEi @ 7 NONAME
	_ZN17CImMobilityLogger9LogDataInEiRK6TDesC8 @ 8 NONAME
	_ZN17CImMobilityLogger9LogFormatEi11TRefByValueIK6TDesC8Ez @ 9 NONAME
	_ZN17CImMobilityLogger9LogFormatEiPKcz @ 10 NONAME
	_ZN25CImMobilityPolicyProvider17MigrationCompleteEl18TImMigrateComplete16TAccessPointInfo @ 11 NONAME
	_ZN25CImMobilityPolicyProvider25PreferredCarrierAvailableER24MImMobilityPolicyHandlerl4TUidRK6TDesC816TAccessPointInfoS6_ii @ 12 NONAME
	_ZN25CImMobilityPolicyProvider6CancelEl @ 13 NONAME
	_ZN25CImMobilityPolicyProvider6DeleteEv @ 14 NONAME
	_ZN25CImMobilityPolicyProvider6GetRefEv @ 15 NONAME
	_ZN25CImMobilityPolicyProvider6LoggerEv @ 16 NONAME
	_ZN25CImMobilityPolicyProvider7CreateLEv @ 17 NONAME
	_ZTI17CImMobilityLogger @ 18 NONAME
	_ZTI25CImMobilityPolicyProvider @ 19 NONAME
	_ZTV17CImMobilityLogger @ 20 NONAME
	_ZTV25CImMobilityPolicyProvider @ 21 NONAME

