EXPORTS
	?retrieveItemUri@GlxMLWrapper@@QAE?AVQString@@H@Z @ 1 NONAME ; class QString GlxMLWrapper::retrieveItemUri(int)
	?handlepopulated@GlxMLWrapper@@QAEXXZ @ 2 NONAME ; void GlxMLWrapper::handlepopulated(void)
	?removeContextMode@GlxMLWrapper@@QAEXW4GlxContextMode@@@Z @ 3 NONAME ; void GlxMLWrapper::removeContextMode(enum GlxContextMode)
	?itemCorrupted@GlxMLWrapper@@IAEXH@Z @ 4 NONAME ; void GlxMLWrapper::itemCorrupted(int)
	?populated@GlxMLWrapper@@IAEXXZ @ 5 NONAME ; void GlxMLWrapper::populated(void)
	?trUtf8@GlxMLWrapper@@SA?AVQString@@PBD0H@Z @ 6 NONAME ; class QString GlxMLWrapper::trUtf8(char const *, char const *, int)
	?retrieveItemSize@GlxMLWrapper@@QAEHH@Z @ 7 NONAME ; int GlxMLWrapper::retrieveItemSize(int)
	?handleGeneralError@GlxMLWrapper@@QAEXH@Z @ 8 NONAME ; void GlxMLWrapper::handleGeneralError(int)
	?setDrmValid@GlxMLWrapper@@QAEXH_N@Z @ 9 NONAME ; void GlxMLWrapper::setDrmValid(int, bool)
	?updateItem@GlxMLWrapper@@IAEXHW4GlxTBContextType@@@Z @ 10 NONAME ; void GlxMLWrapper::updateItem(int, enum GlxTBContextType)
	?removeItems@GlxMLWrapper@@IAEXHH@Z @ 11 NONAME ; void GlxMLWrapper::removeItems(int, int)
	?IsPopulated@GlxMLWrapper@@QAE_NXZ @ 12 NONAME ; bool GlxMLWrapper::IsPopulated(void)
	?getItemCount@GlxMLWrapper@@QAEHXZ @ 13 NONAME ; int GlxMLWrapper::getItemCount(void)
	?getVisibleWindowIndex@GlxMLWrapper@@QAEHXZ @ 14 NONAME ; int GlxMLWrapper::getVisibleWindowIndex(void)
	?setFocusIndex@GlxMLWrapper@@QAEXH@Z @ 15 NONAME ; void GlxMLWrapper::setFocusIndex(int)
	?retrieveItemDate@GlxMLWrapper@@QAE?AVQDate@@H@Z @ 16 NONAME ; class QDate GlxMLWrapper::retrieveItemDate(int)
	?qt_metacall@GlxMLWrapper@@UAEHW4Call@QMetaObject@@HPAPAX@Z @ 17 NONAME ; int GlxMLWrapper::qt_metacall(enum QMetaObject::Call, int, void * *)
	?updateDetails@GlxMLWrapper@@IAEXXZ @ 18 NONAME ; void GlxMLWrapper::updateDetails(void)
	?retrieveItemFrameCount@GlxMLWrapper@@QAEHH@Z @ 19 NONAME ; int GlxMLWrapper::retrieveItemFrameCount(int)
	?retrieveListTitle@GlxMLWrapper@@QAE?AVQString@@H@Z @ 20 NONAME ; class QString GlxMLWrapper::retrieveListTitle(int)
	?IsDrmProtected@GlxMLWrapper@@QAE_NH@Z @ 21 NONAME ; bool GlxMLWrapper::IsDrmProtected(int)
	?retrieveListItemCount@GlxMLWrapper@@QAEHH@Z @ 22 NONAME ; int GlxMLWrapper::retrieveListItemCount(int)
	?tr@GlxMLWrapper@@SA?AVQString@@PBD0@Z @ 23 NONAME ; class QString GlxMLWrapper::tr(char const *, char const *)
	?setVisibleWindowIndex@GlxMLWrapper@@QAEXH@Z @ 24 NONAME ; void GlxMLWrapper::setVisibleWindowIndex(int)
	?getStaticMetaObject@GlxMLWrapper@@SAABUQMetaObject@@XZ @ 25 NONAME ; struct QMetaObject const & GlxMLWrapper::getStaticMetaObject(void)
	?retrieveListSubTitle@GlxMLWrapper@@QAE?AVQString@@H@Z @ 26 NONAME ; class QString GlxMLWrapper::retrieveListSubTitle(int)
	?updateAlbumTitle@GlxMLWrapper@@IAEXVQString@@@Z @ 27 NONAME ; void GlxMLWrapper::updateAlbumTitle(class QString)
	?staticMetaObject@GlxMLWrapper@@2UQMetaObject@@B @ 28 NONAME ; struct QMetaObject const GlxMLWrapper::staticMetaObject
	?handleListItemAvailable@GlxMLWrapper@@QAEXH@Z @ 29 NONAME ; void GlxMLWrapper::handleListItemAvailable(int)
	?trUtf8@GlxMLWrapper@@SA?AVQString@@PBD0@Z @ 30 NONAME ; class QString GlxMLWrapper::trUtf8(char const *, char const *)
	?itemsRemoved@GlxMLWrapper@@QAEXHH@Z @ 31 NONAME ; void GlxMLWrapper::itemsRemoved(int, int)
	?handleTitleAvailable@GlxMLWrapper@@QAEXVQString@@@Z @ 32 NONAME ; void GlxMLWrapper::handleTitleAvailable(class QString)
	?retrieveItemTime@GlxMLWrapper@@QAE?AVQTime@@H@Z @ 33 NONAME ; class QTime GlxMLWrapper::retrieveItemTime(int)
	?metaObject@GlxMLWrapper@@UBEPBUQMetaObject@@XZ @ 34 NONAME ; struct QMetaObject const * GlxMLWrapper::metaObject(void) const
	?insertItems@GlxMLWrapper@@IAEXHH@Z @ 35 NONAME ; void GlxMLWrapper::insertItems(int, int)
	?isCorruptedImage@GlxMLWrapper@@QAE_NH@Z @ 36 NONAME ; bool GlxMLWrapper::isCorruptedImage(int)
	?isSystemItem@GlxMLWrapper@@QAE_NH@Z @ 37 NONAME ; bool GlxMLWrapper::isSystemItem(int)
	?getFocusIndex@GlxMLWrapper@@QBEHXZ @ 38 NONAME ; int GlxMLWrapper::getFocusIndex(void) const
	?handleIconCorrupt@GlxMLWrapper@@QAEXH@Z @ 39 NONAME ; void GlxMLWrapper::handleIconCorrupt(int)
	?retrieveItemDimension@GlxMLWrapper@@QAE?AVQSize@@H@Z @ 40 NONAME ; class QSize GlxMLWrapper::retrieveItemDimension(int)
	?RetrieveL@GlxAttributeRetriever@@SAHABVMGlxFetchContext@@AAVMGlxMediaList@@H@Z @ 41 NONAME ; int GlxAttributeRetriever::RetrieveL(class MGlxFetchContext const &, class MGlxMediaList &, int)
	?handleDetailsItemAvailable@GlxMLWrapper@@QAEXH@Z @ 42 NONAME ; void GlxMLWrapper::handleDetailsItemAvailable(int)
	?retrieveListDesc@GlxMLWrapper@@QAE?AVQString@@H@Z @ 43 NONAME ; class QString GlxMLWrapper::retrieveListDesc(int)
	?IsDrmValid@GlxMLWrapper@@QAE_NH@Z @ 44 NONAME ; bool GlxMLWrapper::IsDrmValid(int)
	?handleReceivedIcon@GlxMLWrapper@@QAEXHW4GlxTBContextType@@@Z @ 45 NONAME ; void GlxMLWrapper::handleReceivedIcon(int, enum GlxTBContextType)
	?retrieveViewTitle@GlxMLWrapper@@QAE?AVQString@@XZ @ 46 NONAME ; class QString GlxMLWrapper::retrieveViewTitle(void)
	?tr@GlxMLWrapper@@SA?AVQString@@PBD0H@Z @ 47 NONAME ; class QString GlxMLWrapper::tr(char const *, char const *, int)
	?setContextMode@GlxMLWrapper@@QAEXW4GlxContextMode@@@Z @ 48 NONAME ; void GlxMLWrapper::setContextMode(enum GlxContextMode)
	??_EGlxMLWrapper@@UAE@I@Z @ 49 NONAME ; GlxMLWrapper::~GlxMLWrapper(unsigned int)
	??1GlxMLWrapper@@UAE@XZ @ 50 NONAME ; GlxMLWrapper::~GlxMLWrapper(void)
	?RetrieveBitmap@GlxMLWrapper@@QAE?AVQVariant@@H@Z @ 51 NONAME ; class QVariant GlxMLWrapper::RetrieveBitmap(int)
	??1CGlxTitleFetcher@@UAE@XZ @ 52 NONAME ; CGlxTitleFetcher::~CGlxTitleFetcher(void)
	?HandleTitleAvailableL@GlxMLWrapperPrivate@@UAEXABVTDesC16@@@Z @ 53 NONAME ; void GlxMLWrapperPrivate::HandleTitleAvailableL(class TDesC16 const &)
	?qt_metacast@GlxMLWrapper@@UAEPAXPBD@Z @ 54 NONAME ; void * GlxMLWrapper::qt_metacast(char const *)
	?retrieveItemImage@GlxMLWrapper@@QAE?AVQImage@@HW4GlxTBContextType@@@Z @ 55 NONAME ; class QImage GlxMLWrapper::retrieveItemImage(int, enum GlxTBContextType)
	?setSelectedIndex@GlxMLWrapper@@QAEXH@Z @ 56 NONAME ; void GlxMLWrapper::setSelectedIndex(int)
	??0GlxMLWrapper@@QAE@HHW4TGlxFilterItemType@@VQString@@W4GlxFetcherFilterType@@@Z @ 57 NONAME ; GlxMLWrapper::GlxMLWrapper(int, int, enum TGlxFilterItemType, class QString, enum GlxFetcherFilterType)
	?retrieveItemIcon@GlxMLWrapper@@QAEPAVHbIcon@@HW4GlxTBContextType@@@Z @ 58 NONAME ; class HbIcon * GlxMLWrapper::retrieveItemIcon(int, enum GlxTBContextType)
	?itemsAdded@GlxMLWrapper@@QAEXHH@Z @ 59 NONAME ; void GlxMLWrapper::itemsAdded(int, int)

