EXPORTS
	_ZN15CIRDataProvider16ReleaseResourcesEv @ 1 NONAME
	_ZN15CIRDataProvider19GetHttpDataProviderEv @ 2 NONAME
	_ZN15CIRDataProvider19IRHttpCancelRequestEv @ 3 NONAME
	_ZN15CIRDataProvider19IRHttpIssueRequestLER18CIRHttpRequestData @ 4 NONAME
	_ZN15CIRDataProvider4NewLER23MIRDataProviderObserver @ 5 NONAME
	_ZN15CIRDataProvider4NewLER23MIRDataProviderObserverRK7TDesC16 @ 6 NONAME
	_ZN19CIRHttpDataProvider21GetLogoDownloadEngineEv @ 7 NONAME
	_ZN21CIRLogoDownloadEngine12SendRequestLEP13CIRIsdsPresetP21MLogoDownloadObserveriii @ 8 NONAME
	_ZN21CIRLogoDownloadEngine12SendRequestLEP13CIRIsdsPresetii @ 9 NONAME
	_ZN21CIRLogoDownloadEngine13GetCacheLogoLERK7TDesC16Ri @ 10 NONAME
	_ZN21CIRLogoDownloadEngine13SendCacheLogoEv @ 11 NONAME
	_ZN21CIRLogoDownloadEngine17CancelTransactionEv @ 12 NONAME
	_ZN21CIRLogoDownloadEngine19SendPresetWithLogoLEv @ 13 NONAME
	_ZN21CIRLogoDownloadEngine4NewLEv @ 14 NONAME
	_ZN21CIRLogoDownloadEngineD0Ev @ 15 NONAME
	_ZN21CIRLogoDownloadEngineD1Ev @ 16 NONAME
	_ZN21CIRLogoDownloadEngineD2Ev @ 17 NONAME
	_ZNK21CIRLogoDownloadEngine9IsRunningEv @ 18 NONAME
	_ZTI21CIRLogoDownloadEngine @ 19 NONAME
	_ZTV21CIRLogoDownloadEngine @ 20 NONAME
	_ZN21CIRLogoDownloadEngine13IsLogoCachedLEP13CIRIsdsPresetii @ 21 NONAME

