EXPORTS
	??0CGlxCollectionPluginBase@@QAE@XZ @ 1 NONAME ; CGlxCollectionPluginBase::CGlxCollectionPluginBase(void)
	??0CGlxDataSource@@QAE@XZ @ 2 NONAME ; CGlxDataSource::CGlxDataSource(void)
	??0CGlxDataSourceTask@@QAE@PAVCGlxRequest@@AAVMGlxDataSourceRequestObserver@@PAVCGlxDataSource@@@Z @ 3 NONAME ; CGlxDataSourceTask::CGlxDataSourceTask(class CGlxRequest *, class MGlxDataSourceRequestObserver &, class CGlxDataSource *)
	??1CGlxCollectionPluginBase@@UAE@XZ @ 4 NONAME ; CGlxCollectionPluginBase::~CGlxCollectionPluginBase(void)
	??1CGlxDataSource@@UAE@XZ @ 5 NONAME ; CGlxDataSource::~CGlxDataSource(void)
	??1CGlxDataSourceTask@@UAE@XZ @ 6 NONAME ; CGlxDataSourceTask::~CGlxDataSourceTask(void)
	??1CGlxRequest@@UAE@XZ @ 7 NONAME ; CGlxRequest::~CGlxRequest(void)
	?AddL@CGlxCollectionPluginBase@@EAEXABVCMPXMedia@@@Z @ 8 NONAME ; void CGlxCollectionPluginBase::AddL(class CMPXMedia const &)
	?AttributeId@CGlxThumbnailRequest@@QBEIXZ @ 9 NONAME ; unsigned int CGlxThumbnailRequest::AttributeId(void) const
	?BroadcastMessage@CGlxDataSource@@IAEXAAVCMPXMedia@@@Z @ 10 NONAME ; void CGlxDataSource::BroadcastMessage(class CMPXMedia &)
	?CancelRequest@CGlxCollectionPluginBase@@EAEXXZ @ 11 NONAME ; void CGlxCollectionPluginBase::CancelRequest(void)
	?CancelRequest@CGlxDataSource@@UAEXAAVMGlxDataSourceRequestObserver@@@Z @ 12 NONAME ; void CGlxDataSource::CancelRequest(class MGlxDataSourceRequestObserver &)
	?Close@CGlxDataSource@@UAEXAAVMGlxDataSourceUpdateObserver@@@Z @ 13 NONAME ; void CGlxDataSource::Close(class MGlxDataSourceUpdateObserver &)
	?CollectionPluginUid@CGlxRequest@@QBE?AVTUid@@XZ @ 14 NONAME ; class TUid CGlxRequest::CollectionPluginUid(void) const
	?CommandL@CGlxCollectionPluginBase@@EAEXAAVCMPXMedia@@@Z @ 15 NONAME ; void CGlxCollectionPluginBase::CommandL(class CMPXMedia &)
	?CommandL@CGlxCollectionPluginBase@@EAEXW4TMPXCollectionCommand@@H@Z @ 16 NONAME ; void CGlxCollectionPluginBase::CommandL(enum TMPXCollectionCommand, int)
	?CpiAttributeAdditionalAttributes@CGlxCollectionPluginBase@@MAEXABVTMPXAttribute@@AAV?$RArray@VTMPXAttribute@@@@@Z @ 17 NONAME ; void CGlxCollectionPluginBase::CpiAttributeAdditionalAttributes(class TMPXAttribute const &, class RArray<class TMPXAttribute> &)
	?CreateResponseL@CGlxDataSourceTask@@QAEXXZ @ 18 NONAME ; void CGlxDataSourceTask::CreateResponseL(void)
	?DataSourceRequestL@CGlxDataSource@@UAEXPAVCGlxRequest@@AAVMGlxDataSourceRequestObserver@@@Z @ 19 NONAME ; void CGlxDataSource::DataSourceRequestL(class CGlxRequest *, class MGlxDataSourceRequestObserver &)
	?DefaultFilter@CGlxCollectionPluginBase@@MAE?AVTGlxFilterProperties@@H@Z @ 20 NONAME ; class TGlxFilterProperties CGlxCollectionPluginBase::DefaultFilter(int)
	?DoCancel@CGlxDataSource@@UAEXXZ @ 21 NONAME ; void CGlxDataSource::DoCancel(void)
	?Filter@CGlxRequest@@QBEPAVCMPXMedia@@XZ @ 22 NONAME ; class CMPXMedia * CGlxRequest::Filter(void) const
	?FindAllL@CGlxCollectionPluginBase@@EAEXABVCMPXMedia@@ABV?$TArray@VTMPXAttribute@@@@@Z @ 23 NONAME ; void CGlxCollectionPluginBase::FindAllL(class CMPXMedia const &, class TArray<class TMPXAttribute> const &)
	?FindAllSyncL@CGlxCollectionPluginBase@@EAEPAVCMPXMedia@@ABV2@ABV?$TArray@VTMPXAttribute@@@@@Z @ 24 NONAME ; class CMPXMedia * CGlxCollectionPluginBase::FindAllSyncL(class CMPXMedia const &, class TArray<class TMPXAttribute> const &)
	?GetCapabilities@CGlxCollectionPluginBase@@EAEHXZ @ 25 NONAME ; int CGlxCollectionPluginBase::GetCapabilities(void)
	?HandleCpiAttributeResponseL@CGlxCollectionPluginBase@@MAEXPAVCMPXMedia@@V?$TArray@VTMPXAttribute@@@@V?$TArray@VTGlxMediaId@@@@@Z @ 26 NONAME ; void CGlxCollectionPluginBase::HandleCpiAttributeResponseL(class CMPXMedia *, class TArray<class TMPXAttribute>, class TArray<class TGlxMediaId>)
	?HandleMessage@CGlxCollectionPluginBase@@EAEXAAVCMPXMedia@@@Z @ 27 NONAME ; void CGlxCollectionPluginBase::HandleMessage(class CMPXMedia &)
	?HandleRequestComplete@CGlxDataSourceTask@@UAEXH@Z @ 28 NONAME ; void CGlxDataSourceTask::HandleRequestComplete(int)
	?HandleResponse@CGlxCollectionPluginBase@@EAEXPAVCMPXMedia@@PAVCGlxRequest@@ABH@Z @ 29 NONAME ; void CGlxCollectionPluginBase::HandleResponse(class CMPXMedia *, class CGlxRequest *, int const &)
	?HandleTaskComplete@CGlxDataSource@@QAEXPAVCGlxDataSourceTask@@@Z @ 30 NONAME ; void CGlxDataSource::HandleTaskComplete(class CGlxDataSourceTask *)
	?IsUpdateMessageIgnored@CGlxCollectionPluginBase@@MAEHAAVCMPXMedia@@@Z @ 31 NONAME ; int CGlxCollectionPluginBase::IsUpdateMessageIgnored(class CMPXMedia &)
	?ItemId@CGlxThumbnailRequest@@QBEABVTGlxMediaId@@XZ @ 32 NONAME ; class TGlxMediaId const & CGlxThumbnailRequest::ItemId(void) const
	?ListToMediaL@CGlxDataSourceTask@@MAEXABV?$RArray@VTGlxMediaId@@@@@Z @ 33 NONAME ; void CGlxDataSourceTask::ListToMediaL(class RArray<class TGlxMediaId> const &)
	?LoadLocalizedStringLC@CGlxCollectionPluginBase@@IAEPAVHBufC16@@ABVTDesC16@@H@Z @ 34 NONAME ; class HBufC16 * CGlxCollectionPluginBase::LoadLocalizedStringLC(class TDesC16 const &, int)
	?LoadLocalizedStringLC@CGlxStringCache@@QAEPAVHBufC16@@ABVTDesC16@@H@Z @ 35 NONAME ; class HBufC16 * CGlxStringCache::LoadLocalizedStringLC(class TDesC16 const &, int)
	?MediaL@CGlxCollectionPluginBase@@EAEXABVCMPXCollectionPath@@ABV?$TArray@VTMPXAttribute@@@@ABV?$TArray@W4TCapability@@@@PAVCMPXMedia@@@Z @ 36 NONAME ; void CGlxCollectionPluginBase::MediaL(class CMPXCollectionPath const &, class TArray<class TMPXAttribute> const &, class TArray<enum TCapability> const &, class CMPXMedia *)
	?NewL@CGlxGetRequest@@SAPAV1@ABV?$RArray@VTGlxMediaId@@@@ABV?$RArray@VTMPXAttribute@@@@1ABVTUid@@PAVCMPXMedia@@H@Z @ 37 NONAME ; class CGlxGetRequest * CGlxGetRequest::NewL(class RArray<class TGlxMediaId> const &, class RArray<class TMPXAttribute> const &, class RArray<class TMPXAttribute> const &, class TUid const &, class CMPXMedia *, int)
	?NewL@CGlxIdListRequest@@SAPAV1@VTGlxMediaId@@ABVTUid@@PAVCMPXMedia@@AAVCMPXCollectionPath@@@Z @ 38 NONAME ; class CGlxIdListRequest * CGlxIdListRequest::NewL(class TGlxMediaId, class TUid const &, class CMPXMedia *, class CMPXCollectionPath &)
	?NewL@CGlxStringCache@@SAPAV1@XZ @ 39 NONAME ; class CGlxStringCache * CGlxStringCache::NewL(void)
	?NewL@CGlxThumbnailRequest@@SAPAV1@VTGlxThumbnailRequest@@ABVTUid@@HPAVCMPXMedia@@@Z @ 40 NONAME ; class CGlxThumbnailRequest * CGlxThumbnailRequest::NewL(class TGlxThumbnailRequest, class TUid const &, int, class CMPXMedia *)
	?OpenDataSourceL@MGlxDataSource@@SAPAV1@ABVTUid@@AAVMGlxDataSourceUpdateObserver@@@Z @ 41 NONAME ; class MGlxDataSource * MGlxDataSource::OpenDataSourceL(class TUid const &, class MGlxDataSourceUpdateObserver &)
	?OpenL@CGlxCollectionPluginBase@@EAEXABVCMPXCollectionPath@@ABV?$TArray@VTMPXAttribute@@@@PAVCMPXMedia@@@Z @ 42 NONAME ; void CGlxCollectionPluginBase::OpenL(class CMPXCollectionPath const &, class TArray<class TMPXAttribute> const &, class CMPXMedia *)
	?RemoveL@CGlxCollectionPluginBase@@EAEXABVCMPXCollectionPath@@@Z @ 43 NONAME ; void CGlxCollectionPluginBase::RemoveL(class CMPXCollectionPath const &)
	?RemoveL@CGlxCollectionPluginBase@@EAEXABVCMPXMedia@@@Z @ 44 NONAME ; void CGlxCollectionPluginBase::RemoveL(class CMPXMedia const &)
	?RunError@CGlxDataSource@@UAEHH@Z @ 45 NONAME ; int CGlxDataSource::RunError(int)
	?RunL@CGlxDataSource@@UAEXXZ @ 46 NONAME ; void CGlxDataSource::RunL(void)
	?SetL@CGlxCollectionPluginBase@@EAEXABVCMPXMedia@@@Z @ 47 NONAME ; void CGlxCollectionPluginBase::SetL(class CMPXMedia const &)
	?SetThumbnailInfo@CGlxThumbnailRequest@@QAEXPAVCGlxtnFileInfo@@@Z @ 48 NONAME ; void CGlxThumbnailRequest::SetThumbnailInfo(class CGlxtnFileInfo *)
	?ThumbnailInfo@CGlxThumbnailRequest@@QBEPAVCGlxtnFileInfo@@XZ @ 49 NONAME ; class CGlxtnFileInfo * CGlxThumbnailRequest::ThumbnailInfo(void) const
	?ThumbnailRequest@CGlxThumbnailRequest@@QBEXAAVTGlxThumbnailRequest@@@Z @ 50 NONAME ; void CGlxThumbnailRequest::ThumbnailRequest(class TGlxThumbnailRequest &) const
	?TryStartTask@CGlxDataSource@@IAEXH@Z @ 51 NONAME ; void CGlxDataSource::TryStartTask(int)
	?initializeTextResolverSymbian@CGlxCollectionPluginBase@@IAEXXZ @ 52 NONAME ; void CGlxCollectionPluginBase::initializeTextResolverSymbian(void)
	?LoadLocalizedStringLC@CGlxCollectionPluginBase@@IAEPAVHBufC16@@ABVTDesC16@@@Z @ 53 NONAME ; class HBufC16 * CGlxCollectionPluginBase::LoadLocalizedStringLC(class TDesC16 const &)

