EXPORTS
	_ZN10CDelayedOp10SetContextER11CBasePluginR18MDelayedOpsManager @ 1 NONAME
	_ZN10CDelayedOp4RunLEv @ 2 NONAME
	_ZN10CDelayedOp7StartOpEv @ 3 NONAME
	_ZN10CDelayedOp8DoCancelEv @ 4 NONAME
	_ZN10CDelayedOp9GetPluginEv @ 5 NONAME
	_ZN10CDelayedOpC2Ev @ 6 NONAME
	_ZN10CDelayedOpD0Ev @ 7 NONAME
	_ZN10CDelayedOpD1Ev @ 8 NONAME
	_ZN10CDelayedOpD2Ev @ 9 NONAME
	_ZN11CBasePlugin10ConstructLEv @ 10 NONAME
	_ZN11CBasePlugin10GoOfflineLERK12TFSMailMsgId @ 11 NONAME
	_ZN11CBasePlugin10ResetCacheEv @ 12 NONAME
	_ZN11CBasePlugin11CancelSyncLERK12TFSMailMsgId @ 13 NONAME
	_ZN11CBasePlugin11ChildPartsLERK12TFSMailMsgIdS2_S2_S2_R13RPointerArrayI18CFSMailMessagePartE @ 14 NONAME
	_ZNK11CBasePlugin11GetPluginIdEv @ 15 NONAME
	_ZN11CBasePlugin11RefreshNowLERK12TFSMailMsgIdR22MFSMailRequestObserverii @ 16 NONAME
	_ZN11CBasePlugin11SetContentLERK7TDesC16RK12TFSMailMsgIdS5_S5_S5_ @ 17 NONAME
	_ZN11CBasePlugin12AddObserverLER20MFSMailEventObserver @ 18 NONAME
	_ZN11CBasePlugin12CancelSearchERK12TFSMailMsgId @ 19 NONAME
	_ZN11CBasePlugin12GetBodyPartLER16CMsgStoreMessageRK7TDesC16 @ 20 NONAME
	_ZN11CBasePlugin12GetMessagesLERK12TFSMailMsgIdS2_RK6RArrayIS0_ER13RPointerArrayI14CFSMailMessageE14TFSMailDetails @ 21 NONAME
	_ZN11CBasePlugin12ListFoldersLERK12TFSMailMsgIdR13RPointerArrayI13CFSMailFolderE @ 22 NONAME
	_ZN11CBasePlugin12ListFoldersLERK12TFSMailMsgIdS2_R13RPointerArrayI13CFSMailFolderE @ 23 NONAME
	_ZN11CBasePlugin12MessagePartLERK12TFSMailMsgIdS2_S2_S2_ @ 24 NONAME
	_ZN11CBasePlugin12NotifyEventLEjjj12TFSMailEventj @ 25 NONAME
	_ZN11CBasePlugin12SendMessageLER14CFSMailMessage @ 26 NONAME
	_ZN11CBasePlugin12SendMessageLER16CMsgStoreMailBoxR16CMsgStoreMessageRK5TTime @ 27 NONAME
	_ZN11CBasePlugin13AuthenticateLER22MFSMailRequestObserveri @ 28 NONAME
	_ZN11CBasePlugin13CopyMessagesLERK12TFSMailMsgIdRK6RArrayIS0_ERS4_S2_S2_ @ 29 NONAME
	_ZN11CBasePlugin13CreateFolderLERK12TFSMailMsgIdS2_RK7TDesC16i @ 30 NONAME
	_ZN11CBasePlugin13GetCachedMsgLEjj @ 31 NONAME
	_ZN11CBasePlugin13ListMessagesLERK12TFSMailMsgIdS2_14TFSMailDetailsRK6RArrayI19TFSMailSortCriteriaE @ 32 NONAME
	_ZN11CBasePlugin13MoveMessagesLERK12TFSMailMsgIdRK6RArrayIS0_ES2_S2_ @ 33 NONAME
	_ZN11CBasePlugin13NewChildPartLERK12TFSMailMsgIdS2_S2_S2_S2_RK7TDesC16 @ 34 NONAME
	_ZN11CBasePlugin13StoreMessageLERK12TFSMailMsgIdR14CFSMailMessage @ 35 NONAME
	_ZN11CBasePlugin14DoListFoldersLE12TFSMailMsgIdjiR13RPointerArrayI13CFSMailFolderE @ 36 NONAME
	_ZN11CBasePlugin14FetchMessagesLERK12TFSMailMsgIdS2_RK6RArrayIS0_E14TFSMailDetailsR22MFSMailRequestObserveri @ 37 NONAME
	_ZN11CBasePlugin14GetBrandingIdLERK12TFSMailMsgId @ 38 NONAME
	_ZN11CBasePlugin14GetCachedBodyLEj @ 39 NONAME
	_ZN11CBasePlugin14ListMailBoxesLER6RArrayI12TFSMailMsgIdE @ 40 NONAME
	_ZN11CBasePlugin14RemoveObserverER20MFSMailEventObserver @ 41 NONAME
	_ZN11CBasePlugin14ResetBodyCacheEv @ 42 NONAME
	_ZN11CBasePlugin14SetMailboxNameERK12TFSMailMsgIdRK7TDesC16 @ 43 NONAME
	_ZN11CBasePlugin14StoreMessagesLERK12TFSMailMsgIdR13RPointerArrayI14CFSMailMessageER22MFSMailRequestObserveri @ 44 NONAME
	_ZN11CBasePlugin15DoCancelSearchLERK12TFSMailMsgId @ 45 NONAME
	_ZN11CBasePlugin15GetFolderByUidLERK12TFSMailMsgIdS2_ @ 46 NONAME
	_ZN11CBasePlugin15GetMailboxInfoLEj @ 47 NONAME
	_ZN11CBasePlugin15SetCredentialsLERK12TFSMailMsgIdRK7TDesC16S5_ @ 48 NONAME
	_ZN11CBasePlugin16CurrentSyncStateERK12TFSMailMsgId @ 49 NONAME
	_ZN11CBasePlugin16GetMailBoxByUidLERK12TFSMailMsgId @ 50 NONAME
	_ZN11CBasePlugin16GetMailBoxStatusERK12TFSMailMsgId @ 51 NONAME
	_ZN11CBasePlugin16GetMessageByUidLERK12TFSMailMsgIdS2_S2_14TFSMailDetails @ 52 NONAME
	_ZN11CBasePlugin16RemoveChildPartLERK12TFSMailMsgIdS2_S2_S2_S2_ @ 53 NONAME
	_ZN11CBasePlugin16RemoveChildPartLERK12TFSMailMsgIdS2_S2_S2_S2_R22MFSMailRequestObserveri @ 54 NONAME
	_ZN11CBasePlugin17FindFetchRequestLEjjjjRNS_17TOngoingFetchInfoE @ 55 NONAME
	_ZN11CBasePlugin17StoreMessagePartLERK12TFSMailMsgIdS2_S2_R18CFSMailMessagePart @ 56 NONAME
	_ZN11CBasePlugin17SystemEventNotifyE20TMsgStoreSystemEvent @ 57 NONAME
	_ZN11CBasePlugin18AccountEventNotifyE21TMsgStoreAccountEventlRK7TDesC16S3_j @ 58 NONAME
	_ZN11CBasePlugin18DeleteFetchRequestERNS_17TOngoingFetchInfoE @ 59 NONAME
	_ZN11CBasePlugin18DeleteFolderByUidLERK12TFSMailMsgIdS2_ @ 60 NONAME
	_ZN11CBasePlugin18FetchEmailAddressLER26CMsgStorePropertyContainerj @ 61 NONAME
	_ZN11CBasePlugin18FetchMessagePartsLERK12TFSMailMsgIdS2_S2_RK6RArrayIS0_ER22MFSMailRequestObserverij @ 62 NONAME
	_ZN11CBasePlugin18GetLastSyncStatusLERK12TFSMailMsgId @ 63 NONAME
	_ZN11CBasePlugin18ModificationNotifyEj18TMsgStoreOperation22TMsgStoreContainerTypemjjj @ 64 NONAME
	_ZN11CBasePlugin18NotifyGlobalEventLE12TFSMailEvent12TFSMailMsgIdPvS2_S2_ @ 65 NONAME
	_ZN11CBasePlugin18RemovePartContentLERK12TFSMailMsgIdS2_S2_RK6RArrayIS0_E @ 66 NONAME
	_ZN11CBasePlugin18StoreMessagePartsLER13RPointerArrayI18CFSMailMessagePartER22MFSMailRequestObserveri @ 67 NONAME
	_ZN11CBasePlugin18SystemEventNotifyLE20TMsgStoreSystemEvent @ 68 NONAME
	_ZN11CBasePlugin19AccountEventNotifyLE21TMsgStoreAccountEventlRK7TDesC16S3_j @ 69 NONAME
	_ZN11CBasePlugin19CreateReplyMessageLERK12TFSMailMsgIdS2_iRK7TDesC16 @ 70 NONAME
	_ZN11CBasePlugin19DeleteMailBoxByUidLERK12TFSMailMsgIdR22MFSMailRequestObserveri @ 71 NONAME
	_ZN11CBasePlugin19GetContentToBufferLERK12TFSMailMsgIdS2_S2_S2_R6TDes16j @ 72 NONAME
	_ZN11CBasePlugin19GetMessagePartFileLERK12TFSMailMsgIdS2_S2_S2_R5RFilei @ 73 NONAME
	_ZN11CBasePlugin19ModificationNotifyLEj18TMsgStoreOperation22TMsgStoreContainerTypemjjj @ 74 NONAME
	_ZN11CBasePlugin19NotifyMailboxEventLE12TFSMailEvent12TFSMailMsgIdPvS2_S2_ @ 75 NONAME
	_ZN11CBasePlugin19TranslateEmailFwMrLER13MMRInfoObjectR26CMsgStorePropertyContainer @ 76 NONAME
	_ZN11CBasePlugin20CopyMessagePartFileLERK12TFSMailMsgIdS2_S2_S2_RK7TDesC16 @ 77 NONAME
	_ZN11CBasePlugin20CreateMessageToSendLERK12TFSMailMsgId @ 78 NONAME
	_ZN11CBasePlugin20CreateMessageToSendLERK12TFSMailMsgIdR22MFSMailRequestObserveri @ 79 NONAME
	_ZN11CBasePlugin20DeleteMessagesByUidLERK12TFSMailMsgIdS2_RK6RArrayIS0_E @ 80 NONAME
	_ZN11CBasePlugin20GetAccountForMsgBoxLERK12TFSMailMsgId @ 81 NONAME
	_ZN11CBasePlugin20GetDelayedOpsManagerEv @ 82 NONAME
	_ZN11CBasePlugin20GetStandardFolderIdLERK12TFSMailMsgId13TFSFolderType @ 83 NONAME
	_ZN11CBasePlugin20HandleMailboxDeleteLERK12TFSMailMsgId @ 84 NONAME
	_ZN11CBasePlugin20RefreshMailboxCacheLEj @ 85 NONAME
	_ZN11CBasePlugin20RemoveAllPropertiesLER26CMsgStorePropertyContainerRK6TDesC8 @ 86 NONAME
	_ZN11CBasePlugin20ReportRequestStatusLEjjjji @ 87 NONAME
	_ZN11CBasePlugin20TranslateMsgStoreMrLERK12TFSMailMsgIdR26CMsgStorePropertyContainerS4_R18CFSMailMessagePart @ 88 NONAME
	_ZN11CBasePlugin20WizardDataAvailableLEv @ 89 NONAME
	_ZN11CBasePlugin21CreateForwardMessageLERK12TFSMailMsgIdS2_RK7TDesC16 @ 90 NONAME
	_ZN11CBasePlugin21CreateMrReplyMessageLERK12TFSMailMsgIdR13MMRInfoObjectS2_ @ 91 NONAME
	_ZN11CBasePlugin21GetCachedMsgChildrenLEv @ 92 NONAME
	_ZN11CBasePlugin21MailboxHasCapabilityLE22TFSMailBoxCapabilities12TFSMailMsgId @ 93 NONAME
	_ZN11CBasePlugin21NewChildPartFromFileLERK12TFSMailMsgIdS2_S2_S2_RK7TDesC16R5RFile @ 94 NONAME
	_ZN11CBasePlugin21NewChildPartFromFileLERK12TFSMailMsgIdS2_S2_S2_RK7TDesC16S5_ @ 95 NONAME
	_ZN11CBasePlugin21NewChildPartFromFileLERK12TFSMailMsgIdS2_S2_S2_RK7TDesC16S5_R22MFSMailRequestObserveri @ 96 NONAME
	_ZN11CBasePlugin22ClearSearchResultCacheERK12TFSMailMsgId @ 97 NONAME
	_ZN11CBasePlugin22GetCachedBodyChildrenLEv @ 98 NONAME
	_ZN11CBasePlugin22GetMailboxDisplayNameLEjR6RBuf16 @ 99 NONAME
	_ZN11CBasePlugin23CopyMessageAsChildPartLERK12TFSMailMsgIdS2_S2_S2_S2_RK14CFSMailMessage @ 100 NONAME
	_ZN11CBasePlugin23DeleteDelayedOpsManagerEv @ 101 NONAME
	_ZN11CBasePlugin23SetPartContentFromFileLERK12TFSMailMsgIdS2_S2_S2_RK7TDesC16 @ 102 NONAME
	_ZN11CBasePlugin23SubscribeMailboxEventsLERK12TFSMailMsgIdR20MFSMailEventObserver @ 103 NONAME
	_ZN11CBasePlugin23TranslateMsgStorePropsLERK12TFSMailMsgIdR26CMsgStorePropertyContainerR18CFSMailMessagePart14TFSMailDetails @ 104 NONAME
	_ZN11CBasePlugin24HandleRemovePartContentLER16CMsgStoreMessageR20CMsgStoreMessagePart @ 105 NONAME
	_ZN11CBasePlugin24TranslateEmailFwMessageLER18CFSMailMessagePartR20CMsgStoreMessageParti @ 106 NONAME
	_ZN11CBasePlugin24UnsubscribeMailboxEventsERK12TFSMailMsgIdR20MFSMailEventObserver @ 107 NONAME
	_ZN11CBasePlugin25DeleteFetchRequestForPartERNS_17TOngoingFetchInfoE @ 108 NONAME
	_ZN11CBasePlugin25DoClearSearchResultCacheLERK12TFSMailMsgId @ 109 NONAME
	_ZN11CBasePlugin25SetReplyOrForwardToFieldLER16CMsgStoreMessage @ 110 NONAME
	_ZN11CBasePlugin25TranslateEmailFwAttendeeLER12MMROrganizerR16RMsgStoreAddress @ 111 NONAME
	_ZN11CBasePlugin25TranslateEmailFwDayOfWeekEN16MRRecurrenceRule15TMRRecurrentDayERm @ 112 NONAME
	_ZN11CBasePlugin25UnregisterRequestObserverEi @ 113 NONAME
	_ZN11CBasePlugin25UnsubscribeMailboxEventsLERK12TFSMailMsgIdR20MFSMailEventObserver @ 114 NONAME
	_ZN11CBasePlugin26CreateForwardReplyMessageLERK12TFSMailMsgIdS2_iRK7TDesC16ii @ 115 NONAME
	_ZN11CBasePlugin26InvalidateCacheIfNecessaryEjjj @ 116 NONAME
	_ZN11CBasePlugin26TranslateMsgStoreDayOfWeekEmR14TDayOfWeekFtor @ 117 NONAME
	_ZN11CBasePlugin27TranslateEmailFwRecipientsLER20CMsgStoreMessagePartRK6TDesC8R13RPointerArrayI14CFSMailAddressE @ 118 NONAME
	_ZN11CBasePlugin32RefreshCachedMailBoxDisplayNameLERiRKj @ 119 NONAME
	_ZN11CBasePlugin33NewChildPartFromFilePathOrHandleLERK12TFSMailMsgIdS2_S2_S2_RK7TDesC16S5_iR5RFile @ 120 NONAME
	_ZN11CBasePlugin4NewLEv @ 121 NONAME
	_ZN11CBasePlugin5NewLCEv @ 122 NONAME
	_ZN11CBasePlugin7CancelLEi @ 123 NONAME
	_ZN11CBasePlugin7SearchLERK12TFSMailMsgIdRK6RArrayIS0_ERK13RPointerArrayI7TDesC16ERK19TFSMailSortCriteriaR24MFSMailBoxSearchObserver @ 124 NONAME
	_ZN11CBasePlugin7StatusLEi @ 125 NONAME
	_ZN11CBasePlugin9GoOnlineLERK12TFSMailMsgId @ 126 NONAME
	_ZN11CBasePluginC1Ev @ 127 NONAME
	_ZN11CBasePluginC2Ev @ 128 NONAME
	_ZN11CBasePluginD0Ev @ 129 NONAME
	_ZN11CBasePluginD1Ev @ 130 NONAME
	_ZN11CBasePluginD2Ev @ 131 NONAME
	_ZN15CBaseMrAttendee11SetAddressLERK7TDesC16 @ 132 NONAME
	_ZN15CBaseMrAttendee14SetCommonNameLERK7TDesC16 @ 133 NONAME
	_ZN15CBaseMrAttendee16SetAttendeeRoleLEN11MMRAttendee13TAttendeeRoleE @ 134 NONAME
	_ZN15CBaseMrAttendee18SetAttendeeStatusLERN11MMRAttendee15TAttendeeStatusE @ 135 NONAME
	_ZN15CBaseMrAttendee21SetResponseRequestedLEi @ 136 NONAME
	_ZN15CBaseMrAttendee4NewLERK11MMRAttendee @ 137 NONAME
	_ZN15CBaseMrAttendee4NewLERK12MMROrganizer @ 138 NONAME
	_ZN15CBaseMrAttendee4NewLEv @ 139 NONAME
	_ZN15CBaseMrAttendeeD0Ev @ 140 NONAME
	_ZN15CBaseMrAttendeeD1Ev @ 141 NONAME
	_ZN15CBaseMrAttendeeD2Ev @ 142 NONAME
	_ZN15CResourceLoader2FsEv @ 143 NONAME
	_ZN15CResourceLoader4NewLERK7TDesC16 @ 144 NONAME
	_ZN15CResourceLoader6Load2LEi @ 145 NONAME
	_ZN15CResourceLoader6Load2LEiRK7TDesC16 @ 146 NONAME
	_ZN15CResourceLoader6Load2LEii @ 147 NONAME
	_ZN15CResourceLoader6LoadLCEi @ 148 NONAME
	_ZN15CResourceLoader7Load2LCEi @ 149 NONAME
	_ZN15CResourceLoader7Load2LCEiRK7TDesC16 @ 150 NONAME
	_ZN15CResourceLoader7Load2LCEii @ 151 NONAME
	_ZN15CResourceLoaderD0Ev @ 152 NONAME
	_ZN15CResourceLoaderD1Ev @ 153 NONAME
	_ZN15CResourceLoaderD2Ev @ 154 NONAME
	_ZN17CBaseMrInfoObject10AttendeesLEv @ 155 NONAME
	_ZN17CBaseMrInfoObject10ExtensionLE4TUid @ 156 NONAME
	_ZN17CBaseMrInfoObject11SetSubjectLERK7TDesC16 @ 157 NONAME
	_ZN17CBaseMrInfoObject12AddAttendeeLEP11MMRAttendee @ 158 NONAME
	_ZN17CBaseMrInfoObject12MROrganizerLEv @ 159 NONAME
	_ZN17CBaseMrInfoObject12SetLocationLERK7TDesC16 @ 160 NONAME
	_ZN17CBaseMrInfoObject12SetPriorityLEj @ 161 NONAME
	_ZN17CBaseMrInfoObject14SetAlarmInUtcLE5TTime @ 162 NONAME
	_ZN17CBaseMrInfoObject14SetMRResponseLEN13MMRInfoObject9TResponseE @ 163 NONAME
	_ZN17CBaseMrInfoObject15AddAttachmentsLEP13MMRAttachment @ 164 NONAME
	_ZN17CBaseMrInfoObject15SetDescriptionLERK7TDesC16 @ 165 NONAME
	_ZN17CBaseMrInfoObject16SetEndTimeInUtcLE5TTime @ 166 NONAME
	_ZN17CBaseMrInfoObject18SetMRRecurrenceIdLE5TTime @ 167 NONAME
	_ZN17CBaseMrInfoObject18SetRecurrenceRuleLERK16MRRecurrenceRule @ 168 NONAME
	_ZN17CBaseMrInfoObject18SetStartTimeInUtcLE5TTime @ 169 NONAME
	_ZN17CBaseMrInfoObject19SetMRSequenceNumberEi @ 170 NONAME
	_ZN17CBaseMrInfoObject21SetCreationTimeInUtcLE5TTime @ 171 NONAME
	_ZN17CBaseMrInfoObject23AddRecurrenceExceptionLEP13MMRInfoObject @ 172 NONAME
	_ZN17CBaseMrInfoObject4NewLER13MMRInfoObject @ 173 NONAME
	_ZN17CBaseMrInfoObject4NewLEv @ 174 NONAME
	_ZN17CBaseMrInfoObject7SetUidLEP7HBufC16 @ 175 NONAME
	_ZN17CBaseMrInfoObject7SetUidLERK7TDesC16 @ 176 NONAME
	_ZN17CBaseMrInfoObject9SetMethodEN13MMRInfoObject9TMRMethodE @ 177 NONAME
	_ZN17CBaseMrInfoObjectD0Ev @ 178 NONAME
	_ZN17CBaseMrInfoObjectD1Ev @ 179 NONAME
	_ZN17CBaseMrInfoObjectD2Ev @ 180 NONAME
	_ZN20CBaseMrInfoProcessor22ReplyToMeetingRequestLERK12TFSMailMsgIdS2_R13MMRInfoObjectRN16MMRInfoProcessor19TMRInfoResponseModeERK7TDesC16 @ 181 NONAME
	_ZN20CBaseMrInfoProcessor4NewLER11CBasePlugin @ 182 NONAME
	_ZN20CBaseMrInfoProcessorD0Ev @ 183 NONAME
	_ZN20CBaseMrInfoProcessorD1Ev @ 184 NONAME
	_ZN20CBaseMrInfoProcessorD2Ev @ 185 NONAME
	_ZN21CBaseMrRecurrenceRule18SetRecurrenceTypeLEN16MRRecurrenceRule17TMRRecurrenceTypeE @ 186 NONAME
	_ZN21CBaseMrRecurrenceRule18SetRecurrentCountLEi @ 187 NONAME
	_ZN21CBaseMrRecurrenceRule19SetRecurrenceUntilLE5TTime @ 188 NONAME
	_ZN21CBaseMrRecurrenceRule19SetRecurrentMonthsLER6RArrayIN16MRRecurrenceRule18TMRRecurrenceMonthEE @ 189 NONAME
	_ZN21CBaseMrRecurrenceRule20SetRecurrentIntervalEi @ 190 NONAME
	_ZN21CBaseMrRecurrenceRule21SetRecurrentWeekDaysLER6RArrayIN16MRRecurrenceRule15TMRRecurrentDayEE @ 191 NONAME
	_ZN21CBaseMrRecurrenceRule22SetRecurrentMonthDaysLER6RArrayIiE @ 192 NONAME
	_ZN21CBaseMrRecurrenceRule23SetRecurrenceStartTimeLE5TTime @ 193 NONAME
	_ZN21CBaseMrRecurrenceRule24SetRecurrentDaysofMonthLER6RArrayIN16MRRecurrenceRule21TRecurrentDaysofMonthEE @ 194 NONAME
	_ZN21CBaseMrRecurrenceRule4NewLERK16MRRecurrenceRule @ 195 NONAME
	_ZN21CBaseMrRecurrenceRule4NewLEv @ 196 NONAME
	_ZN21CBaseMrRecurrenceRuleD0Ev @ 197 NONAME
	_ZN21CBaseMrRecurrenceRuleD1Ev @ 198 NONAME
	_ZN21CBaseMrRecurrenceRuleD2Ev @ 199 NONAME
	_ZNK11CBasePlugin16CalendarFileNameEv @ 200 NONAME
	_ZNK15CBaseMrAttendee10CommonNameEv @ 201 NONAME
	_ZNK15CBaseMrAttendee12AttendeeRoleEv @ 202 NONAME
	_ZNK15CBaseMrAttendee14AttendeeStatusEv @ 203 NONAME
	_ZNK15CBaseMrAttendee17ResponseRequestedEv @ 204 NONAME
	_ZNK15CBaseMrAttendee7AddressEv @ 205 NONAME
	_ZNK15CResourceLoader22CreateResourceReaderLCER15TResourceReaderi @ 206 NONAME
	_ZNK17CBaseMrInfoObject10MRResponseEv @ 207 NONAME
	_ZNK17CBaseMrInfoObject11AlarmInUtcLEv @ 208 NONAME
	_ZNK17CBaseMrInfoObject12AttachmentsLEv @ 209 NONAME
	_ZNK17CBaseMrInfoObject12DescriptionLEv @ 210 NONAME
	_ZNK17CBaseMrInfoObject13EndTimeInUtcLEv @ 211 NONAME
	_ZNK17CBaseMrInfoObject14MRRecurrenceIdEv @ 212 NONAME
	_ZNK17CBaseMrInfoObject15RecurrenceRuleLEv @ 213 NONAME
	_ZNK17CBaseMrInfoObject15StartTimeInUtcLEv @ 214 NONAME
	_ZNK17CBaseMrInfoObject15SupportedFieldsER6RArrayIN13MMRInfoObject14TESMRInfoFieldEE @ 215 NONAME
	_ZNK17CBaseMrInfoObject17MRSequenceNumberLEv @ 216 NONAME
	_ZNK17CBaseMrInfoObject18CreationTimeInUtcLEv @ 217 NONAME
	_ZNK17CBaseMrInfoObject21RecurrenceExceptionsLEv @ 218 NONAME
	_ZNK17CBaseMrInfoObject4UidLEv @ 219 NONAME
	_ZNK17CBaseMrInfoObject8SubjectLEv @ 220 NONAME
	_ZNK17CBaseMrInfoObject9LocationLEv @ 221 NONAME
	_ZNK17CBaseMrInfoObject9MRMethodLEv @ 222 NONAME
	_ZNK17CBaseMrInfoObject9PriorityLEv @ 223 NONAME
	_ZNK21CBaseMrRecurrenceRule14RecurrentCountEv @ 224 NONAME
	_ZNK21CBaseMrRecurrenceRule14RecurrentUntilEv @ 225 NONAME
	_ZNK21CBaseMrRecurrenceRule15RecurrentMonthsEv @ 226 NONAME
	_ZNK21CBaseMrRecurrenceRule17RecurrentIntervalEv @ 227 NONAME
	_ZNK21CBaseMrRecurrenceRule17RecurrentWeekDaysEv @ 228 NONAME
	_ZNK21CBaseMrRecurrenceRule18RecurrentMonthDaysEv @ 229 NONAME
	_ZNK21CBaseMrRecurrenceRule19RecurrenceStartTimeEv @ 230 NONAME
	_ZNK21CBaseMrRecurrenceRule20RecurrentDaysofMonthEv @ 231 NONAME
	_ZNK21CBaseMrRecurrenceRule4TypeEv @ 232 NONAME
	_ZTI10CDelayedOp @ 233 NONAME
	_ZTI11CBasePlugin @ 234 NONAME
	_ZTV10CDelayedOp @ 235 NONAME
	_ZTV11CBasePlugin @ 236 NONAME
	_ZThn32_N11CBasePlugin17SystemEventNotifyE20TMsgStoreSystemEvent @ 237 NONAME
	_ZThn32_N11CBasePlugin18AccountEventNotifyE21TMsgStoreAccountEventlRK7TDesC16S3_j @ 238 NONAME
	_ZThn36_N11CBasePlugin18ModificationNotifyEj18TMsgStoreOperation22TMsgStoreContainerTypemjjj @ 239 NONAME
	_ZThn4_N15CBaseMrAttendee11SetAddressLERK7TDesC16 @ 240 NONAME
	_ZThn4_N15CBaseMrAttendee14SetCommonNameLERK7TDesC16 @ 241 NONAME
	_ZThn4_N15CBaseMrAttendee16SetAttendeeRoleLEN11MMRAttendee13TAttendeeRoleE @ 242 NONAME
	_ZThn4_N15CBaseMrAttendee18SetAttendeeStatusLERN11MMRAttendee15TAttendeeStatusE @ 243 NONAME
	_ZThn4_N15CBaseMrAttendee21SetResponseRequestedLEi @ 244 NONAME
	_ZThn4_N15CBaseMrAttendeeD0Ev @ 245 NONAME
	_ZThn4_N15CBaseMrAttendeeD1Ev @ 246 NONAME
	_ZThn4_N17CBaseMrInfoObject10AttendeesLEv @ 247 NONAME
	_ZThn4_N17CBaseMrInfoObject10ExtensionLE4TUid @ 248 NONAME
	_ZThn4_N17CBaseMrInfoObject11SetSubjectLERK7TDesC16 @ 249 NONAME
	_ZThn4_N17CBaseMrInfoObject12AddAttendeeLEP11MMRAttendee @ 250 NONAME
	_ZThn4_N17CBaseMrInfoObject12MROrganizerLEv @ 251 NONAME
	_ZThn4_N17CBaseMrInfoObject12SetLocationLERK7TDesC16 @ 252 NONAME
	_ZThn4_N17CBaseMrInfoObject12SetPriorityLEj @ 253 NONAME
	_ZThn4_N17CBaseMrInfoObject14SetAlarmInUtcLE5TTime @ 254 NONAME
	_ZThn4_N17CBaseMrInfoObject14SetMRResponseLEN13MMRInfoObject9TResponseE @ 255 NONAME
	_ZThn4_N17CBaseMrInfoObject15AddAttachmentsLEP13MMRAttachment @ 256 NONAME
	_ZThn4_N17CBaseMrInfoObject15SetDescriptionLERK7TDesC16 @ 257 NONAME
	_ZThn4_N17CBaseMrInfoObject16SetEndTimeInUtcLE5TTime @ 258 NONAME
	_ZThn4_N17CBaseMrInfoObject18SetMRRecurrenceIdLE5TTime @ 259 NONAME
	_ZThn4_N17CBaseMrInfoObject18SetRecurrenceRuleLERK16MRRecurrenceRule @ 260 NONAME
	_ZThn4_N17CBaseMrInfoObject18SetStartTimeInUtcLE5TTime @ 261 NONAME
	_ZThn4_N17CBaseMrInfoObject21SetCreationTimeInUtcLE5TTime @ 262 NONAME
	_ZThn4_N17CBaseMrInfoObject23AddRecurrenceExceptionLEP13MMRInfoObject @ 263 NONAME
	_ZThn4_N17CBaseMrInfoObjectD0Ev @ 264 NONAME
	_ZThn4_N17CBaseMrInfoObjectD1Ev @ 265 NONAME
	_ZThn4_N20CBaseMrInfoProcessor22ReplyToMeetingRequestLERK12TFSMailMsgIdS2_R13MMRInfoObjectRN16MMRInfoProcessor19TMRInfoResponseModeERK7TDesC16 @ 266 NONAME
	_ZThn4_N20CBaseMrInfoProcessorD0Ev @ 267 NONAME
	_ZThn4_N20CBaseMrInfoProcessorD1Ev @ 268 NONAME
	_ZThn4_N21CBaseMrRecurrenceRule18SetRecurrenceTypeLEN16MRRecurrenceRule17TMRRecurrenceTypeE @ 269 NONAME
	_ZThn4_N21CBaseMrRecurrenceRule18SetRecurrentCountLEi @ 270 NONAME
	_ZThn4_N21CBaseMrRecurrenceRule19SetRecurrenceUntilLE5TTime @ 271 NONAME
	_ZThn4_N21CBaseMrRecurrenceRule19SetRecurrentMonthsLER6RArrayIN16MRRecurrenceRule18TMRRecurrenceMonthEE @ 272 NONAME
	_ZThn4_N21CBaseMrRecurrenceRule20SetRecurrentIntervalEi @ 273 NONAME
	_ZThn4_N21CBaseMrRecurrenceRule21SetRecurrentWeekDaysLER6RArrayIN16MRRecurrenceRule15TMRRecurrentDayEE @ 274 NONAME
	_ZThn4_N21CBaseMrRecurrenceRule22SetRecurrentMonthDaysLER6RArrayIiE @ 275 NONAME
	_ZThn4_N21CBaseMrRecurrenceRule23SetRecurrenceStartTimeLE5TTime @ 276 NONAME
	_ZThn4_N21CBaseMrRecurrenceRule24SetRecurrentDaysofMonthLER6RArrayIN16MRRecurrenceRule21TRecurrentDaysofMonthEE @ 277 NONAME
	_ZThn4_N21CBaseMrRecurrenceRuleD0Ev @ 278 NONAME
	_ZThn4_N21CBaseMrRecurrenceRuleD1Ev @ 279 NONAME
	_ZThn4_NK15CBaseMrAttendee10CommonNameEv @ 280 NONAME
	_ZThn4_NK15CBaseMrAttendee12AttendeeRoleEv @ 281 NONAME
	_ZThn4_NK15CBaseMrAttendee14AttendeeStatusEv @ 282 NONAME
	_ZThn4_NK15CBaseMrAttendee17ResponseRequestedEv @ 283 NONAME
	_ZThn4_NK15CBaseMrAttendee7AddressEv @ 284 NONAME
	_ZThn4_NK17CBaseMrInfoObject10MRResponseEv @ 285 NONAME
	_ZThn4_NK17CBaseMrInfoObject11AlarmInUtcLEv @ 286 NONAME
	_ZThn4_NK17CBaseMrInfoObject12AttachmentsLEv @ 287 NONAME
	_ZThn4_NK17CBaseMrInfoObject12DescriptionLEv @ 288 NONAME
	_ZThn4_NK17CBaseMrInfoObject13EndTimeInUtcLEv @ 289 NONAME
	_ZThn4_NK17CBaseMrInfoObject14MRRecurrenceIdEv @ 290 NONAME
	_ZThn4_NK17CBaseMrInfoObject15RecurrenceRuleLEv @ 291 NONAME
	_ZThn4_NK17CBaseMrInfoObject15StartTimeInUtcLEv @ 292 NONAME
	_ZThn4_NK17CBaseMrInfoObject15SupportedFieldsER6RArrayIN13MMRInfoObject14TESMRInfoFieldEE @ 293 NONAME
	_ZThn4_NK17CBaseMrInfoObject17MRSequenceNumberLEv @ 294 NONAME
	_ZThn4_NK17CBaseMrInfoObject18CreationTimeInUtcLEv @ 295 NONAME
	_ZThn4_NK17CBaseMrInfoObject21RecurrenceExceptionsLEv @ 296 NONAME
	_ZThn4_NK17CBaseMrInfoObject4UidLEv @ 297 NONAME
	_ZThn4_NK17CBaseMrInfoObject8SubjectLEv @ 298 NONAME
	_ZThn4_NK17CBaseMrInfoObject9LocationLEv @ 299 NONAME
	_ZThn4_NK17CBaseMrInfoObject9MRMethodLEv @ 300 NONAME
	_ZThn4_NK17CBaseMrInfoObject9PriorityLEv @ 301 NONAME
	_ZThn4_NK21CBaseMrRecurrenceRule14RecurrentCountEv @ 302 NONAME
	_ZThn4_NK21CBaseMrRecurrenceRule14RecurrentUntilEv @ 303 NONAME
	_ZThn4_NK21CBaseMrRecurrenceRule15RecurrentMonthsEv @ 304 NONAME
	_ZThn4_NK21CBaseMrRecurrenceRule17RecurrentIntervalEv @ 305 NONAME
	_ZThn4_NK21CBaseMrRecurrenceRule17RecurrentWeekDaysEv @ 306 NONAME
	_ZThn4_NK21CBaseMrRecurrenceRule18RecurrentMonthDaysEv @ 307 NONAME
	_ZThn4_NK21CBaseMrRecurrenceRule19RecurrenceStartTimeEv @ 308 NONAME
	_ZThn4_NK21CBaseMrRecurrenceRule20RecurrentDaysofMonthEv @ 309 NONAME
	_ZThn4_NK21CBaseMrRecurrenceRule4TypeEv @ 310 NONAME
        _ZNK11CBasePlugin2IdEv @ 311 NONAME

