EXPORTS
	?removeDialpad@PhoneUIQtViewAdapter@@AAEXXZ @ 1 NONAME ; void PhoneUIQtViewAdapter::removeDialpad(void)
	?defaultToolbarResourceId@PhoneResourceAdapter@@QBEHXZ @ 2 NONAME ; int PhoneResourceAdapter::defaultToolbarResourceId(void) const
	?createEmergencyCallHeader@PhoneUIQtViewAdapter@@AAEXH@Z @ 3 NONAME ; void PhoneUIQtViewAdapter::createEmergencyCallHeader(int)
	?openContacts@PhoneUIQtViewAdapter@@AAEXXZ @ 4 NONAME ; void PhoneUIQtViewAdapter::openContacts(void)
	??1PhoneUIQtViewAdapter@@UAE@XZ @ 5 NONAME ; PhoneUIQtViewAdapter::~PhoneUIQtViewAdapter(void)
	?createConferenceBubble@PhoneUIQtViewAdapter@@AAEXH@Z @ 6 NONAME ; void PhoneUIQtViewAdapter::createConferenceBubble(int)
	??0PhoneResourceAdapter@@IAE@PAVQObject@@@Z @ 7 NONAME ; PhoneResourceAdapter::PhoneResourceAdapter(class QObject *)
	?onFocusLost@PhoneUIQtViewAdapter@@AAEXXZ @ 8 NONAME ; void PhoneUIQtViewAdapter::onFocusLost(void)
	?addToConference@PhoneUIQtViewAdapter@@AAEXXZ @ 9 NONAME ; void PhoneUIQtViewAdapter::addToConference(void)
	?convertDuration@PhoneUIQtViewAdapter@@AAE?AVQString@@H@Z @ 10 NONAME ; class QString PhoneUIQtViewAdapter::convertDuration(int)
	?setBubbleSelectionFlag@PhoneUIQtViewAdapter@@AAEXXZ @ 11 NONAME ; void PhoneUIQtViewAdapter::setBubbleSelectionFlag(void)
	?convertToStringWithParam@PhoneResourceAdapter@@QBE?AVQString@@HABV2@@Z @ 12 NONAME ; class QString PhoneResourceAdapter::convertToStringWithParam(int, class QString const &) const
	?callsExists@PhoneUIQtViewAdapter@@AAE_NHH@Z @ 13 NONAME ; bool PhoneUIQtViewAdapter::callsExists(int, int)
	?ExecuteCommandL@PhoneUIQtViewAdapter@@UAEXHHAAVTDesC16@@@Z @ 14 NONAME ; void PhoneUIQtViewAdapter::ExecuteCommandL(int, int, class TDesC16 &)
	?tr@PhoneResourceAdapter@@SA?AVQString@@PBD0H@Z @ 15 NONAME ; class QString PhoneResourceAdapter::tr(char const *, char const *, int)
	?convert@PhoneResourceAdapter@@QAA?AV?$QMap@W4ActionType@PhoneAction@@PAV2@@@HZZ @ 16 NONAME ; class QMap<enum PhoneAction::ActionType, class PhoneAction *> PhoneResourceAdapter::convert(int, ...)
	?convertToHbActions@PhoneResourceAdapter@@QBE?AV?$QList@PAVHbAction@@@@H@Z @ 17 NONAME ; class QList<class HbAction *> PhoneResourceAdapter::convertToHbActions(int) const
	?handleCipheringInfoChange@PhoneUIQtViewAdapter@@AAEXH@Z @ 18 NONAME ; void PhoneUIQtViewAdapter::handleCipheringInfoChange(int)
	?ExecuteCommandL@PhoneUIQtViewAdapter@@UAEXHH@Z @ 19 NONAME ; void PhoneUIQtViewAdapter::ExecuteCommandL(int, int)
	?noteController@PhoneUIQtViewAdapter@@QBEPAVPhoneNoteController@@XZ @ 20 NONAME ; class PhoneNoteController * PhoneUIQtViewAdapter::noteController(void) const
	??_EPhoneResourceAdapter@@UAE@I@Z @ 21 NONAME ; PhoneResourceAdapter::~PhoneResourceAdapter(unsigned int)
	?tr@PhoneResourceAdapter@@SA?AVQString@@PBD0@Z @ 22 NONAME ; class QString PhoneResourceAdapter::tr(char const *, char const *)
	?trUtf8@PhoneResourceAdapter@@SA?AVQString@@PBD0@Z @ 23 NONAME ; class QString PhoneResourceAdapter::trUtf8(char const *, char const *)
	?getStaticMetaObject@PhoneResourceAdapter@@SAABUQMetaObject@@XZ @ 24 NONAME ; struct QMetaObject const & PhoneResourceAdapter::getStaticMetaObject(void)
	?getDialpadStringLength@PhoneUIQtViewAdapter@@AAEXPAVTPhoneCommandParam@@@Z @ 25 NONAME ; void PhoneUIQtViewAdapter::getDialpadStringLength(class TPhoneCommandParam *)
	?trUtf8@PhoneResourceAdapter@@SA?AVQString@@PBD0H@Z @ 26 NONAME ; class QString PhoneResourceAdapter::trUtf8(char const *, char const *, int)
	?convertCommandToString@PhoneResourceAdapter@@QBE?AVQString@@H@Z @ 27 NONAME ; class QString PhoneResourceAdapter::convertCommandToString(int) const
	?activeCallCount@PhoneUIQtViewAdapter@@AAEXPAVTPhoneCommandParam@@@Z @ 28 NONAME ; void PhoneUIQtViewAdapter::activeCallCount(class TPhoneCommandParam *)
	?setTouchButtons@PhoneUIQtViewAdapter@@AAEXPAVTPhoneCommandParam@@@Z @ 29 NONAME ; void PhoneUIQtViewAdapter::setTouchButtons(class TPhoneCommandParam *)
	?setExpandActions@PhoneUIQtViewAdapter@@AAEXXZ @ 30 NONAME ; void PhoneUIQtViewAdapter::setExpandActions(void)
	?qt_metacast@PhoneUIQtViewAdapter@@UAEPAXPBD@Z @ 31 NONAME ; void * PhoneUIQtViewAdapter::qt_metacast(char const *)
	?Instance@PhoneResourceAdapter@@SAPAV1@PAVQObject@@@Z @ 32 NONAME ; class PhoneResourceAdapter * PhoneResourceAdapter::Instance(class QObject *)
	?getNumberFromDialpad@PhoneUIQtViewAdapter@@AAEXPAVTPhoneCommandParam@@@Z @ 33 NONAME ; void PhoneUIQtViewAdapter::getNumberFromDialpad(class TPhoneCommandParam *)
	?openLogs@PhoneUIQtViewAdapter@@AAEXPAVTPhoneCommandParam@@@Z @ 34 NONAME ; void PhoneUIQtViewAdapter::openLogs(class TPhoneCommandParam *)
	?isConference@PhoneUIQtViewAdapter@@AAEXPAVTPhoneCommandParam@@@Z @ 35 NONAME ; void PhoneUIQtViewAdapter::isConference(class TPhoneCommandParam *)
	?convertToString@PhoneResourceAdapter@@QBE?AVQString@@HABV2@@Z @ 36 NONAME ; class QString PhoneResourceAdapter::convertToString(int, class QString const &) const
	?qt_metacast@PhoneResourceAdapter@@UAEPAXPBD@Z @ 37 NONAME ; void * PhoneResourceAdapter::qt_metacast(char const *)
	??0PhoneUIQtViewAdapter@@QAE@AAVPhoneUIQtViewIF@@PAVQObject@@@Z @ 38 NONAME ; PhoneUIQtViewAdapter::PhoneUIQtViewAdapter(class PhoneUIQtViewIF &, class QObject *)
	?ExecuteCommand@PhoneUIQtViewAdapter@@UAEXHPAVTPhoneCommandParam@@@Z @ 39 NONAME ; void PhoneUIQtViewAdapter::ExecuteCommand(int, class TPhoneCommandParam *)
	?onFocusGained@PhoneUIQtViewAdapter@@AAEXXZ @ 40 NONAME ; void PhoneUIQtViewAdapter::onFocusGained(void)
	?keyReleased@PhoneUIQtViewAdapter@@AAEXPAVQKeyEvent@@@Z @ 41 NONAME ; void PhoneUIQtViewAdapter::keyReleased(class QKeyEvent *)
	?setEngineInfo@PhoneUIQtViewAdapter@@QAEXPAVMPEEngineInfo@@@Z @ 42 NONAME ; void PhoneUIQtViewAdapter::setEngineInfo(class MPEEngineInfo *)
	?setCommonButtonFlags@PhoneUIQtViewAdapter@@AAEXXZ @ 43 NONAME ; void PhoneUIQtViewAdapter::setCommonButtonFlags(void)
	?bringToForeground@PhoneUIQtViewAdapter@@AAEXXZ @ 44 NONAME ; void PhoneUIQtViewAdapter::bringToForeground(void)
	??_EPhoneUIQtViewAdapter@@UAE@I@Z @ 45 NONAME ; PhoneUIQtViewAdapter::~PhoneUIQtViewAdapter(unsigned int)
	?buttonsController@PhoneResourceAdapter@@QAEPAVPhoneUIQtButtonsController@@XZ @ 46 NONAME ; class PhoneUIQtButtonsController * PhoneResourceAdapter::buttonsController(void)
	?convertKey@PhoneUIQtViewAdapter@@AAE_NW4TKeyCode@@AAW4Key@Qt@@@Z @ 47 NONAME ; bool PhoneUIQtViewAdapter::convertKey(enum TKeyCode, enum Qt::Key &)
	?setExpandedConferenceCallHeader@PhoneUIQtViewAdapter@@AAEXXZ @ 48 NONAME ; void PhoneUIQtViewAdapter::setExpandedConferenceCallHeader(void)
	?HandleCommandL@PhoneUIQtViewAdapter@@UAEHHPAVTPhoneCommandParam@@@Z @ 49 NONAME ; int PhoneUIQtViewAdapter::HandleCommandL(int, class TPhoneCommandParam *)
	?setHidden@PhoneUIQtViewAdapter@@AAEX_N@Z @ 50 NONAME ; void PhoneUIQtViewAdapter::setHidden(bool)
	?setDialpadMenu@PhoneUIQtViewAdapter@@AAEXXZ @ 51 NONAME ; void PhoneUIQtViewAdapter::setDialpadMenu(void)
	?createCallHeader@PhoneUIQtViewAdapter@@AAEXH@Z @ 52 NONAME ; void PhoneUIQtViewAdapter::createCallHeader(int)
	?callIdByState@PhoneUIQtViewAdapter@@AAEHPAVTPhoneCommandParam@@@Z @ 53 NONAME ; int PhoneUIQtViewAdapter::callIdByState(class TPhoneCommandParam *)
	?ExecuteCommandL@PhoneUIQtViewAdapter@@UAEXHPAVTPhoneCommandParam@@@Z @ 54 NONAME ; void PhoneUIQtViewAdapter::ExecuteCommandL(int, class TPhoneCommandParam *)
	?setDialpadVisibility@PhoneUIQtViewAdapter@@AAEXPAVTPhoneCommandParam@@@Z @ 55 NONAME ; void PhoneUIQtViewAdapter::setDialpadVisibility(class TPhoneCommandParam *)
	?ExecuteCommandL@PhoneUIQtViewAdapter@@UAEXHHPAVTPhoneCommandParam@@@Z @ 56 NONAME ; void PhoneUIQtViewAdapter::ExecuteCommandL(int, int, class TPhoneCommandParam *)
	?removeConferenceBubble@PhoneUIQtViewAdapter@@AAEXXZ @ 57 NONAME ; void PhoneUIQtViewAdapter::removeConferenceBubble(void)
	?showGlobalNote@PhoneUIQtViewAdapter@@AAEXPAVTPhoneCommandParam@@@Z @ 58 NONAME ; void PhoneUIQtViewAdapter::showGlobalNote(class TPhoneCommandParam *)
	?handleWindowDeactivated@PhoneUIQtViewAdapter@@AAEXXZ @ 59 NONAME ; void PhoneUIQtViewAdapter::handleWindowDeactivated(void)
	?getSelectedConferenceMember@PhoneUIQtViewAdapter@@AAEHPAVTPhoneCommandParam@@@Z @ 60 NONAME ; int PhoneUIQtViewAdapter::getSelectedConferenceMember(class TPhoneCommandParam *)
	?metaObject@PhoneUIQtViewAdapter@@UBEPBUQMetaObject@@XZ @ 61 NONAME ; struct QMetaObject const * PhoneUIQtViewAdapter::metaObject(void) const
	?dialpadClosed@PhoneUIQtViewAdapter@@AAEXXZ @ 62 NONAME ; void PhoneUIQtViewAdapter::dialpadClosed(void)
	?removeAllCallHeaders@PhoneUIQtViewAdapter@@AAEXXZ @ 63 NONAME ; void PhoneUIQtViewAdapter::removeAllCallHeaders(void)
	?SetHiddenL@PhoneUIQtViewAdapter@@AAEX_N@Z @ 64 NONAME ; void PhoneUIQtViewAdapter::SetHiddenL(bool)
	?hideDeviceDialogs@PhoneUIQtViewAdapter@@AAEXPAVTPhoneCommandParam@@@Z @ 65 NONAME ; void PhoneUIQtViewAdapter::hideDeviceDialogs(class TPhoneCommandParam *)
	?setPrivateFromConference@PhoneUIQtViewAdapter@@AAEXH@Z @ 66 NONAME ; void PhoneUIQtViewAdapter::setPrivateFromConference(int)
	?setCallMenu@PhoneUIQtViewAdapter@@AAEXXZ @ 67 NONAME ; void PhoneUIQtViewAdapter::setCallMenu(void)
	?setAudioVolumeSliderValue@PhoneUIQtViewAdapter@@AAEXPAVTPhoneCommandParam@@@Z @ 68 NONAME ; void PhoneUIQtViewAdapter::setAudioVolumeSliderValue(class TPhoneCommandParam *)
	?qt_metacall@PhoneUIQtViewAdapter@@UAEHW4Call@QMetaObject@@HPAPAX@Z @ 69 NONAME ; int PhoneUIQtViewAdapter::qt_metacall(enum QMetaObject::Call, int, void * *)
	??1PhoneResourceAdapter@@UAE@XZ @ 70 NONAME ; PhoneResourceAdapter::~PhoneResourceAdapter(void)
	?removeCallFromConference@PhoneUIQtViewAdapter@@AAEXH@Z @ 71 NONAME ; void PhoneUIQtViewAdapter::removeCallFromConference(int)
	?tr@PhoneUIQtViewAdapter@@SA?AVQString@@PBD0H@Z @ 72 NONAME ; class QString PhoneUIQtViewAdapter::tr(char const *, char const *, int)
	?staticMetaObject@PhoneResourceAdapter@@2UQMetaObject@@B @ 73 NONAME ; struct QMetaObject const PhoneResourceAdapter::staticMetaObject
	?staticMetaObject@PhoneUIQtViewAdapter@@2UQMetaObject@@B @ 74 NONAME ; struct QMetaObject const PhoneUIQtViewAdapter::staticMetaObject
	?ExecuteCommandL@PhoneUIQtViewAdapter@@UAEXH@Z @ 75 NONAME ; void PhoneUIQtViewAdapter::ExecuteCommandL(int)
	?trUtf8@PhoneUIQtViewAdapter@@SA?AVQString@@PBD0H@Z @ 76 NONAME ; class QString PhoneUIQtViewAdapter::trUtf8(char const *, char const *, int)
	?setMuteIndication@PhoneUIQtViewAdapter@@AAEXPAVTPhoneCommandParam@@@Z @ 77 NONAME ; void PhoneUIQtViewAdapter::setMuteIndication(class TPhoneCommandParam *)
	?convertToToolBarCommandList@PhoneResourceAdapter@@QBE?AV?$QList@VToolBarItem@PhoneAction@@@@H@Z @ 78 NONAME ; class QList<class PhoneAction::ToolBarItem> PhoneResourceAdapter::convertToToolBarCommandList(int) const
	?HandleCommandL@PhoneUIQtViewAdapter@@UAEHH@Z @ 79 NONAME ; int PhoneUIQtViewAdapter::HandleCommandL(int)
	?showNote@PhoneUIQtViewAdapter@@AAEXPAVTPhoneCommandParam@@@Z @ 80 NONAME ; void PhoneUIQtViewAdapter::showNote(class TPhoneCommandParam *)
	?FetchContent@PhoneUIQtViewAdapter@@UAEABVTDesC16@@XZ @ 81 NONAME ; class TDesC16 const & PhoneUIQtViewAdapter::FetchContent(void)
	?writeAudioVolumeLevel@PhoneUIQtViewAdapter@@AAEXPAVTPhoneCommandParam@@@Z @ 82 NONAME ; void PhoneUIQtViewAdapter::writeAudioVolumeLevel(class TPhoneCommandParam *)
	?conferenceCallId@PhoneUIQtViewAdapter@@AAEXHPAVTPhoneCommandParam@@@Z @ 83 NONAME ; void PhoneUIQtViewAdapter::conferenceCallId(int, class TPhoneCommandParam *)
	?clearDialpad@PhoneUIQtViewAdapter@@AAEXXZ @ 84 NONAME ; void PhoneUIQtViewAdapter::clearDialpad(void)
	?setMenu@PhoneUIQtViewAdapter@@AAEXXZ @ 85 NONAME ; void PhoneUIQtViewAdapter::setMenu(void)
	?trUtf8@PhoneUIQtViewAdapter@@SA?AVQString@@PBD0@Z @ 86 NONAME ; class QString PhoneUIQtViewAdapter::trUtf8(char const *, char const *)
	?tr@PhoneUIQtViewAdapter@@SA?AVQString@@PBD0@Z @ 87 NONAME ; class QString PhoneUIQtViewAdapter::tr(char const *, char const *)
	?getStaticMetaObject@PhoneUIQtViewAdapter@@SAABUQMetaObject@@XZ @ 88 NONAME ; struct QMetaObject const & PhoneUIQtViewAdapter::getStaticMetaObject(void)
	?updateCallHeader@PhoneUIQtViewAdapter@@AAEXH@Z @ 89 NONAME ; void PhoneUIQtViewAdapter::updateCallHeader(int)
	?qt_metacall@PhoneResourceAdapter@@UAEHW4Call@QMetaObject@@HPAPAX@Z @ 90 NONAME ; int PhoneResourceAdapter::qt_metacall(enum QMetaObject::Call, int, void * *)
	?setToolbarButtons@PhoneUIQtViewAdapter@@AAEXPAVTPhoneCommandParam@@@Z @ 91 NONAME ; void PhoneUIQtViewAdapter::setToolbarButtons(class TPhoneCommandParam *)
	?setAudioPath@PhoneUIQtViewAdapter@@AAEXPAVTPhoneCommandParam@@@Z @ 92 NONAME ; void PhoneUIQtViewAdapter::setAudioPath(class TPhoneCommandParam *)
	?expandedBubbleCallId@PhoneUIQtViewAdapter@@AAEXPAVTPhoneCommandParam@@@Z @ 93 NONAME ; void PhoneUIQtViewAdapter::expandedBubbleCallId(class TPhoneCommandParam *)
	?openDialpad@PhoneUIQtViewAdapter@@AAEXXZ @ 94 NONAME ; void PhoneUIQtViewAdapter::openDialpad(void)
	?handleWindowActivated@PhoneUIQtViewAdapter@@AAEXXZ @ 95 NONAME ; void PhoneUIQtViewAdapter::handleWindowActivated(void)
	?ExecuteCommand@PhoneUIQtViewAdapter@@UAEXH@Z @ 96 NONAME ; void PhoneUIQtViewAdapter::ExecuteCommand(int)
	?metaObject@PhoneResourceAdapter@@UBEPBUQMetaObject@@XZ @ 97 NONAME ; struct QMetaObject const * PhoneResourceAdapter::metaObject(void) const
	?setParticipantListActions@PhoneUIQtViewAdapter@@AAEXXZ @ 98 NONAME ; void PhoneUIQtViewAdapter::setParticipantListActions(void)

