EXPORTS
	??0TMmsGenUtils@@QAE@XZ @ 1 NONAME ; TMmsGenUtils::TMmsGenUtils(void)
	??0TMmsMsvEntry@@QAE@ABVTMsvEntry@@@Z @ 2 NONAME ; TMmsMsvEntry::TMmsMsvEntry(class TMsvEntry const &)
	??0TMmsMsvEntry@@QAE@XZ @ 3 NONAME ; TMmsMsvEntry::TMmsMsvEntry(void)
	??1TMmsGenUtils@@QAE@XZ @ 4 NONAME ; TMmsGenUtils::~TMmsGenUtils(void)
	??8TMmsMsvEntry@@QBEHABV0@@Z @ 5 NONAME ; int TMmsMsvEntry::operator==(class TMmsMsvEntry const &) const
	??8TMmsMsvEntry@@QBEHABVTMsvEntry@@@Z @ 6 NONAME ; int TMmsMsvEntry::operator==(class TMsvEntry const &) const
	?AddAttributeL@TMmsGenUtils@@SAXABVTDesC16@@0AAVCDesC16Array@@@Z @ 7 NONAME ; void TMmsGenUtils::AddAttributeL(class TDesC16 const &, class TDesC16 const &, class CDesC16Array &)
	?AddressTypeAndRealAddress@TMmsGenUtils@@SAHABVTDesC16@@AAW4TMmsAddressType@@AAVTDes16@@H00@Z @ 8 NONAME ; int TMmsGenUtils::AddressTypeAndRealAddress(class TDesC16 const &, enum TMmsAddressType &, class TDes16 &, int, class TDesC16 const &, class TDesC16 const &)
	?Alias@TMmsGenUtils@@SA?AVTPtrC16@@ABVTDesC16@@00@Z @ 9 NONAME ; class TPtrC16 TMmsGenUtils::Alias(class TDesC16 const &, class TDesC16 const &, class TDesC16 const &)
	?AttachmentFile@TMmsMsvEntry@@QBEABVTDesC16@@XZ @ 10 NONAME ; class TDesC16 const & TMmsMsvEntry::AttachmentFile(void) const
	?CloseResourceFile@TMmsGenUtils@@QAEXXZ @ 11 NONAME ABSENT ; void TMmsGenUtils::CloseResourceFile(void)
	?DecodeAndConvertMessageHeaderL@TMmsGenUtils@@SAXABVTDesC8@@AAVTDes16@@@Z @ 12 NONAME ABSENT ; void TMmsGenUtils::DecodeAndConvertMessageHeaderL(class TDesC8 const &, class TDes16 &)
	?DeleteAttribute@TMmsGenUtils@@SAXABVTDesC16@@AAVCDesC16Array@@@Z @ 13 NONAME ; void TMmsGenUtils::DeleteAttribute(class TDesC16 const &, class CDesC16Array &)
	?DiskSpaceBelowCriticalLevelL@TMmsGenUtils@@SAHPAVRFs@@HH@Z @ 14 NONAME ; int TMmsGenUtils::DiskSpaceBelowCriticalLevelL(class RFs *, int, int)
	?FindAttribute@TMmsGenUtils@@SAHABVTDesC16@@ABVCDesC16Array@@@Z @ 15 NONAME ; int TMmsGenUtils::FindAttribute(class TDesC16 const &, class CDesC16Array const &)
	?GenerateAddressL@TMmsGenUtils@@SAPAVHBufC16@@ABVTDesC16@@000@Z @ 16 NONAME ; class HBufC16 * TMmsGenUtils::GenerateAddressL(class TDesC16 const &, class TDesC16 const &, class TDesC16 const &, class TDesC16 const &)
	?GenerateDetails@TMmsGenUtils@@SAHABVTDesC16@@AAVTDes16@@H00@Z @ 17 NONAME ABSENT ; int TMmsGenUtils::GenerateDetails(class TDesC16 const &, class TDes16 &, int, class TDesC16 const &, class TDesC16 const &)
	?GetAlias@TMmsGenUtils@@SAHABVTDesC16@@AAVTDes16@@HAAJ@Z @ 18 NONAME ABSENT ; int TMmsGenUtils::GetAlias(class TDesC16 const &, class TDes16 &, int, long &)
	?GetAliasForAllL@TMmsGenUtils@@SAHABVCDesC16Array@@AAV2@H@Z @ 19 NONAME ABSENT ; int TMmsGenUtils::GetAliasForAllL(class CDesC16Array const &, class CDesC16Array &, int)
	?GetAttributeL@TMmsGenUtils@@SA?AVTPtrC16@@ABVTDesC16@@ABVCDesC16Array@@@Z @ 20 NONAME ; class TPtrC16 TMmsGenUtils::GetAttributeL(class TDesC16 const &, class CDesC16Array const &)
	?GetContactDbId@TMmsGenUtils@@SAHABVTDesC16@@AAJ@Z @ 21 NONAME ABSENT ; int TMmsGenUtils::GetContactDbId(class TDesC16 const &, long &)
	?GetDescriptionL@TMmsGenUtils@@SAXAAVRFs@@ABVTDesC16@@HVTPtrC8@@HAAVTDes16@@@Z @ 22 NONAME ; void TMmsGenUtils::GetDescriptionL(class RFs &, class TDesC16 const &, int, class TPtrC8, int, class TDes16 &)
	?GetValidInternetEmailAddress@TMmsGenUtils@@SA?AVTPtrC16@@ABVTDesC16@@@Z @ 23 NONAME ABSENT ; class TPtrC16 TMmsGenUtils::GetValidInternetEmailAddress(class TDesC16 const &)
	?IsValidAddress@TMmsGenUtils@@SAHABVTDesC16@@H00@Z @ 24 NONAME ; int TMmsGenUtils::IsValidAddress(class TDesC16 const &, int, class TDesC16 const &, class TDesC16 const &)
	?IsValidEmailAddress@TMmsGenUtils@@SAHABVTDesC16@@H00@Z @ 25 NONAME ; int TMmsGenUtils::IsValidEmailAddress(class TDesC16 const &, int, class TDesC16 const &, class TDesC16 const &)
	?IsValidMMSPhoneAddress@TMmsGenUtils@@SAHABVTDesC16@@H00@Z @ 26 NONAME ; int TMmsGenUtils::IsValidMMSPhoneAddress(class TDesC16 const &, int, class TDesC16 const &, class TDesC16 const &)
	?Log@TMmsGenUtils@@SAXV?$TRefByValue@$$CBVTDesC16@@@@ZZ @ 27 NONAME ; void TMmsGenUtils::Log(class TRefByValue<class TDesC16 const >, ...)
	?NetworkOperationsAllowed@TMmsGenUtils@@SAHXZ @ 28 NONAME ; int TMmsGenUtils::NetworkOperationsAllowed(void)
	?OpenResourceFileL@TMmsGenUtils@@QAEXAAVRFs@@ABVTDesC16@@@Z @ 29 NONAME ABSENT ; void TMmsGenUtils::OpenResourceFileL(class RFs &, class TDesC16 const &)
	?PureAddress@TMmsGenUtils@@SA?AVTPtrC16@@ABVTDesC16@@00@Z @ 30 NONAME ; class TPtrC16 TMmsGenUtils::PureAddress(class TDesC16 const &, class TDesC16 const &, class TDesC16 const &)
	?ReadResourceStringL@TMmsGenUtils@@QAEXHAAVTDes16@@@Z @ 31 NONAME ABSENT ; void TMmsGenUtils::ReadResourceStringL(int, class TDes16 &)
	?ReplaceCRLFAndTrim@TMmsGenUtils@@SAXAAVTDes16@@@Z @ 32 NONAME ; void TMmsGenUtils::ReplaceCRLFAndTrim(class TDes16 &)
	?ReplaceCRLFAndTrim@TMmsGenUtils@@SAXAAVTDes8@@@Z @ 33 NONAME ; void TMmsGenUtils::ReplaceCRLFAndTrim(class TDes8 &)
	?SetAttachmentFile@TMmsMsvEntry@@QAEXABVTDesC16@@@Z @ 34 NONAME ; void TMmsMsvEntry::SetAttachmentFile(class TDesC16 const &)
	?SetSubject@TMmsMsvEntry@@QAEXABVTDesC16@@@Z @ 35 NONAME ; void TMmsMsvEntry::SetSubject(class TDesC16 const &)
	?Subject@TMmsMsvEntry@@QBEABVTDesC16@@XZ @ 36 NONAME ; class TDesC16 const & TMmsMsvEntry::Subject(void) const
	?GenerateDetails@TMmsGenUtils@@SAHABVTDesC16@@AAVTDes16@@HAAVRFs@@@Z @ 37 NONAME ; int TMmsGenUtils::GenerateDetails(class TDesC16 const &, class TDes16 &, int, class RFs &)
	?GetAlias@TMmsGenUtils@@SAHABVTDesC16@@AAVTDes16@@HAAVRFs@@@Z @ 38 NONAME ; int TMmsGenUtils::GetAlias(class TDesC16 const &, class TDes16 &, int, class RFs &)
	?GetAliasForAllL@TMmsGenUtils@@SAXABVCDesC16Array@@AAV2@HAAVRFs@@@Z @ 39 NONAME ; void TMmsGenUtils::GetAliasForAllL(class CDesC16Array const &, class CDesC16Array &, int, class RFs &)
	?DecodeAndConvertMessageHeaderL@TMmsGenUtils@@SAXABVTDesC8@@AAVTDes16@@AAVRFs@@@Z @ 40 NONAME ; void TMmsGenUtils::DecodeAndConvertMessageHeaderL(class TDesC8 const &, class TDes16 &, class RFs &)
	?NewL@CMmsAttachmentWaiter@@SAPAV1@XZ @ 41 NONAME ; class CMmsAttachmentWaiter * CMmsAttachmentWaiter::NewL(void)
	?StartWaitingL@CMmsAttachmentWaiter@@QAEXAAVTRequestStatus@@PAVCMsvStore@@PAVMMsvAttachmentManager@@@Z @ 42 NONAME ; void CMmsAttachmentWaiter::StartWaitingL(class TRequestStatus &, class CMsvStore *, class MMsvAttachmentManager *)
	?GetLoggingSettings@TMmsGenUtils@@SAXAAH0@Z @ 43 NONAME ; void TMmsGenUtils::GetLoggingSettings(int &, int &)
	?AttachmentsSizeL@CMmsAttachmentHandler@@SAHAAVCMsvStore@@@Z @ 44 NONAME ; int CMmsAttachmentHandler::AttachmentsSizeL(class CMsvStore &)
	?CreateAttachmentL@CMmsAttachmentHandler@@SAXAAVCMsvStore@@AAVRFile@@AAVRFs@@VTDriveUnit@@AAVTDesC8@@AAVCMsvMimeHeaders@@PAVCMsvAttachment@@AAI@Z @ 45 NONAME ; void CMmsAttachmentHandler::CreateAttachmentL(class CMsvStore &, class RFile &, class RFs &, class TDriveUnit, class TDesC8 &, class CMsvMimeHeaders &, class CMsvAttachment *, unsigned int &)
	?CreateTextAttachmentL@CMmsAttachmentHandler@@SAXAAVCMsvStore@@AAIABVTDesC16@@2AAVRFs@@VTDriveUnit@@H@Z @ 46 NONAME ; void CMmsAttachmentHandler::CreateTextAttachmentL(class CMsvStore &, unsigned int &, class TDesC16 const &, class TDesC16 const &, class RFs &, class TDriveUnit, int)
	?CreateUTF8TextAttachmentFromFileL@CMmsAttachmentHandler@@SAXAAVCMsvStore@@AAIAAVRFile@@AAVRFs@@VTDriveUnit@@@Z @ 47 NONAME ; void CMmsAttachmentHandler::CreateUTF8TextAttachmentFromFileL(class CMsvStore &, unsigned int &, class RFile &, class RFs &, class TDriveUnit)
	?IsValidFilename@CMmsAttachmentHandler@@SAHAAVRFs@@ABVTPtrC16@@@Z @ 48 NONAME ; int CMmsAttachmentHandler::IsValidFilename(class RFs &, class TPtrC16 const &)
	?NewL@CMmsAttachmentHandler@@SAPAV1@XZ @ 49 NONAME ; class CMmsAttachmentHandler * CMmsAttachmentHandler::NewL(void)

