EXPORTS
	_ZTI10CTestReset @ 1 NONAME ; #<TI>#
	_ZTI13CSyncTestStep @ 2 NONAME ; #<TI>#
	_ZTI15CSyncTestServer @ 3 NONAME ; #<TI>#
	_ZTI16CTestGetSyncMode @ 4 NONAME ; #<TI>#
	_ZTI16CTestSetSyncMode @ 5 NONAME ; #<TI>#
	_ZTI16CTestVersionTest @ 6 NONAME ; #<TI>#
	_ZTI19CTestConnectionTest @ 7 NONAME ; #<TI>#
	_ZTI19CTestGetPhoneBookId @ 8 NONAME ; #<TI>#
	_ZTI20CTestValidateContact @ 9 NONAME ; #<TI>#
	_ZTI20CTestWriteToSlotTest @ 10 NONAME ; #<TI>#
	_ZTI21CTestGetContactFormat @ 11 NONAME ; #<TI>#
	_ZTI21CTestGetLastSyncError @ 12 NONAME ; #<TI>#
	_ZTI21CTestSlotHandlingTest @ 13 NONAME ; #<TI>#
	_ZTI22CTestDoSynchronisation @ 14 NONAME ; #<TI>#
	_ZTI23CTestCancelWriteRequest @ 15 NONAME ; #<TI>#
	_ZTI24CTestCancelDeleteRequest @ 16 NONAME ; #<TI>#
	_ZTI24CTestCancelDoSyncRequest @ 17 NONAME ; #<TI>#
	_ZTI25CTestDeleteContactFromICC @ 18 NONAME ; #<TI>#
	_ZTI26CTestWriteContactToICCTest @ 19 NONAME ; #<TI>#
	_ZTI27CTestGetPhoneBookCacheState @ 20 NONAME ; #<TI>#
	_ZTI27CTestNotifyCacheStateChange @ 21 NONAME ; #<TI>#
	_ZTI29CTestUpdateLookUpTableFailure @ 22 NONAME ; #<TI>#
	_ZTI29CTestUpdateLookUpTableSuccess @ 23 NONAME ; #<TI>#
	_ZTI32CTestWriteContactToICCMaxNumTest @ 24 NONAME ; #<TI>#
	_ZTI32CTestWriteContactToICCNoSlotTest @ 25 NONAME ; #<TI>#
	_ZTI33CTestWriteContactToICCMaxNameTest @ 26 NONAME ; #<TI>#
	_ZTI34CTestDeleteContactInvalidIdFromICC @ 27 NONAME ; #<TI>#
	_ZTI34CTestValidateContactInvalidUIDTest @ 28 NONAME ; #<TI>#
	_ZTI34CTestWriteContactToICCBlankNumTest @ 29 NONAME ; #<TI>#
	_ZTI34CTestWriteContactToICCObsecureTest @ 30 NONAME ; #<TI>#
	_ZTI35CTestWriteContactToICCBlankNameTest @ 31 NONAME ; #<TI>#
	_ZTI35CTestWriteContactToICCOverwriteTest @ 32 NONAME ; #<TI>#
	_ZTI36CTestValidateContactAccessLockedTest @ 33 NONAME ; #<TI>#
	_ZTI36CTestWriteContactToICCNumLettersTest @ 34 NONAME ; #<TI>#
	_ZTI37CTestWriteContactToICCInvalidSlotTest @ 35 NONAME ; #<TI>#
	_ZTI38CTestWriteContactToICCExceedMaxNumTest @ 36 NONAME ; #<TI>#
	_ZTI39CTestWriteContactToICCExceedMaxNameTest @ 37 NONAME ; #<TI>#
	_ZTI9CTestOpen @ 38 NONAME ; #<TI>#
	_ZTV10CTestReset @ 39 NONAME ; #<VT>#
	_ZTV13CSyncTestStep @ 40 NONAME ; #<VT>#
	_ZTV15CSyncTestServer @ 41 NONAME ; #<VT>#
	_ZTV16CTestGetSyncMode @ 42 NONAME ; #<VT>#
	_ZTV16CTestSetSyncMode @ 43 NONAME ; #<VT>#
	_ZTV16CTestVersionTest @ 44 NONAME ; #<VT>#
	_ZTV19CTestConnectionTest @ 45 NONAME ; #<VT>#
	_ZTV19CTestGetPhoneBookId @ 46 NONAME ; #<VT>#
	_ZTV20CTestValidateContact @ 47 NONAME ; #<VT>#
	_ZTV20CTestWriteToSlotTest @ 48 NONAME ; #<VT>#
	_ZTV21CTestGetContactFormat @ 49 NONAME ; #<VT>#
	_ZTV21CTestGetLastSyncError @ 50 NONAME ; #<VT>#
	_ZTV21CTestSlotHandlingTest @ 51 NONAME ; #<VT>#
	_ZTV22CTestDoSynchronisation @ 52 NONAME ; #<VT>#
	_ZTV23CTestCancelWriteRequest @ 53 NONAME ; #<VT>#
	_ZTV24CTestCancelDeleteRequest @ 54 NONAME ; #<VT>#
	_ZTV24CTestCancelDoSyncRequest @ 55 NONAME ; #<VT>#
	_ZTV25CTestDeleteContactFromICC @ 56 NONAME ; #<VT>#
	_ZTV26CTestWriteContactToICCTest @ 57 NONAME ; #<VT>#
	_ZTV27CTestGetPhoneBookCacheState @ 58 NONAME ; #<VT>#
	_ZTV27CTestNotifyCacheStateChange @ 59 NONAME ; #<VT>#
	_ZTV29CTestUpdateLookUpTableFailure @ 60 NONAME ; #<VT>#
	_ZTV29CTestUpdateLookUpTableSuccess @ 61 NONAME ; #<VT>#
	_ZTV32CTestWriteContactToICCMaxNumTest @ 62 NONAME ; #<VT>#
	_ZTV32CTestWriteContactToICCNoSlotTest @ 63 NONAME ; #<VT>#
	_ZTV33CTestWriteContactToICCMaxNameTest @ 64 NONAME ; #<VT>#
	_ZTV34CTestDeleteContactInvalidIdFromICC @ 65 NONAME ; #<VT>#
	_ZTV34CTestValidateContactInvalidUIDTest @ 66 NONAME ; #<VT>#
	_ZTV34CTestWriteContactToICCBlankNumTest @ 67 NONAME ; #<VT>#
	_ZTV34CTestWriteContactToICCObsecureTest @ 68 NONAME ; #<VT>#
	_ZTV35CTestWriteContactToICCBlankNameTest @ 69 NONAME ; #<VT>#
	_ZTV35CTestWriteContactToICCOverwriteTest @ 70 NONAME ; #<VT>#
	_ZTV36CTestValidateContactAccessLockedTest @ 71 NONAME ; #<VT>#
	_ZTV36CTestWriteContactToICCNumLettersTest @ 72 NONAME ; #<VT>#
	_ZTV37CTestWriteContactToICCInvalidSlotTest @ 73 NONAME ; #<VT>#
	_ZTV38CTestWriteContactToICCExceedMaxNumTest @ 74 NONAME ; #<VT>#
	_ZTV39CTestWriteContactToICCExceedMaxNameTest @ 75 NONAME ; #<VT>#
	_ZTV9CTestOpen @ 76 NONAME ; #<VT>#
	_Z9NewServerv @ 77 NONAME

