EXPORTS
	_ZN13MGlxMediaList10UnmarkAllLERS_ @ 1 NONAME
	_ZN13MGlxMediaList9InstanceLERK18CMPXCollectionPathRK6TGlxIdI19TGlxIdHierarchyBaseEP9CMPXMedia @ 2 NONAME
	_ZN14CGlxListWindow10ConstructLEv @ 3 NONAME
	_ZN14CGlxListWindow11AddObjectsLEii @ 4 NONAME
	_ZN14CGlxListWindow11AddObjectsLEiiii @ 5 NONAME
	_ZN14CGlxListWindow14RemoveObjectsLEii @ 6 NONAME
	_ZN14CGlxListWindow14RemoveObjectsLEiiii @ 7 NONAME
	_ZN14CGlxListWindow14SetFocusIndexLEi @ 8 NONAME
	_ZN14CGlxListWindow14SetFocusIndexLEii @ 9 NONAME
	_ZN14CGlxListWindow16SetRangeOffsetsLEii @ 10 NONAME
	_ZN14CGlxListWindow16SetRangeOffsetsLEiiii @ 11 NONAME
	_ZN14CGlxListWindow2AtEi @ 12 NONAME
	_ZN14CGlxListWindow8CleanupLEv @ 13 NONAME
	_ZN14CGlxListWindowC1ER23MGlxWindowObjectFactory @ 14 NONAME
	_ZN14CGlxListWindowC2ER23MGlxWindowObjectFactory @ 15 NONAME
	_ZN14CGlxListWindowD0Ev @ 16 NONAME
	_ZN14CGlxListWindowD1Ev @ 17 NONAME
	_ZN14CGlxListWindowD2Ev @ 18 NONAME
	_ZN15GlxErrorManager18HasAttributeErrorLEPK9CGlxMediaRK13TMPXAttribute @ 19 NONAME
	_ZN15GlxErrorManager18HasAttributeErrorLEPK9CGlxMediai @ 20 NONAME
	_ZN18TGlxWindowIteratorC1ERKS_ @ 21 NONAME
	_ZN18TGlxWindowIteratorC2ERKS_ @ 22 NONAME
	_ZN18TGlxWindowIteratorppEi @ 23 NONAME
	_ZN19GlxThumbnailUtility15IsFullThumbnailERK13TMPXAttribute @ 24 NONAME
	_ZN19GlxThumbnailUtility16ClosestThumbnailERK5TSizeRK9CGlxMediai @ 25 NONAME
	_ZN20CGlxAttributeContext13AddAttributeLERK13TMPXAttribute @ 26 NONAME
	_ZN20CGlxAttributeContext14AttributeCountEv @ 27 NONAME
	_ZN20CGlxAttributeContext14SetDefaultSpecEii @ 28 NONAME
	_ZN20CGlxAttributeContext14SetGranularityEj @ 29 NONAME
	_ZN20CGlxAttributeContext15RemoveAttributeERK13TMPXAttribute @ 30 NONAME
	_ZN20CGlxAttributeContextC1EP21MGlxMediaListIterator @ 31 NONAME
	_ZN20CGlxAttributeContextC2EP21MGlxMediaListIterator @ 32 NONAME
	_ZN20CGlxAttributeContextD0Ev @ 33 NONAME
	_ZN20CGlxAttributeContextD1Ev @ 34 NONAME
	_ZN20CGlxAttributeContextD2Ev @ 35 NONAME
	_ZN20CGlxThumbnailContext14SetDefaultSpecEii @ 36 NONAME
	_ZN20CGlxThumbnailContext15AddSpecForItemLEiii @ 37 NONAME
	_ZN20CGlxThumbnailContext18SetHighQualityOnlyEi @ 38 NONAME
	_ZN20CGlxThumbnailContext4NewLEP21MGlxMediaListIterator @ 39 NONAME
	_ZN20CGlxThumbnailContextC1EP21MGlxMediaListIterator @ 40 NONAME
	_ZN20CGlxThumbnailContextC2EP21MGlxMediaListIterator @ 41 NONAME
	_ZN20CGlxThumbnailContextD0Ev @ 42 NONAME
	_ZN20CGlxThumbnailContextD1Ev @ 43 NONAME
	_ZN20CGlxThumbnailContextD2Ev @ 44 NONAME
	_ZN21TGlxExclusionIterator10SetToFirstEPK13MGlxMediaList @ 45 NONAME
	_ZN21TGlxExclusionIteratorC1ER21MGlxMediaListIteratorS1_ @ 46 NONAME
	_ZN21TGlxExclusionIteratorC2ER21MGlxMediaListIteratorS1_ @ 47 NONAME
	_ZN21TGlxExclusionIteratorD1Ev @ 48 NONAME
	_ZN21TGlxExclusionIteratorD2Ev @ 49 NONAME
	_ZN21TGlxSelectionIterator10SetToFirstEPK13MGlxMediaList @ 50 NONAME
	_ZN21TGlxSelectionIterator34SetDisabledIfMoreThanRangeSelectedEi @ 51 NONAME
	_ZN21TGlxSelectionIterator8SetRangeEi @ 52 NONAME
	_ZN21TGlxSelectionIteratorC1Ev @ 53 NONAME
	_ZN21TGlxSelectionIteratorC2Ev @ 54 NONAME
	_ZN21TGlxSelectionIteratorD1Ev @ 55 NONAME
	_ZN21TGlxSelectionIteratorD2Ev @ 56 NONAME
	_ZN21TGlxSelectionIteratorppEi @ 57 NONAME
	_ZN22TGlxSequentialIterator8SetRangeEi @ 58 NONAME
	_ZN22TGlxSequentialIteratorC1Ev @ 59 NONAME
	_ZN22TGlxSequentialIteratorC2Ev @ 60 NONAME
	_ZN22TGlxSpecificIdIteratorC1ERK6TGlxIdI17TGlxIdSpaceIdBaseE11TGlxMediaId @ 61 NONAME
	_ZN22TGlxSpecificIdIteratorC2ERK6TGlxIdI17TGlxIdSpaceIdBaseE11TGlxMediaId @ 62 NONAME
	_ZN23TGlxFetchContextRemover5CloseEv @ 63 NONAME
	_ZN23TGlxFetchContextRemoverC1EP16MGlxFetchContextR13MGlxMediaList @ 64 NONAME
	_ZN23TGlxFetchContextRemoverC2EP16MGlxFetchContextR13MGlxMediaList @ 65 NONAME
	_ZN23TGlxFetchContextRemoverD1Ev @ 66 NONAME
	_ZN23TGlxFetchContextRemoverD2Ev @ 67 NONAME
	_ZN25TGlxFirstThenLastIteratorC1Ev @ 68 NONAME
	_ZN25TGlxFirstThenLastIteratorC2Ev @ 69 NONAME
	_ZN25TGlxFirstThenLastIteratorD1Ev @ 70 NONAME
	_ZN25TGlxFirstThenLastIteratorD2Ev @ 71 NONAME
	_ZN27CGlxDefaultAttributeContext15SetRangeOffsetsEii @ 72 NONAME
	_ZN27CGlxDefaultAttributeContext4NewLEv @ 73 NONAME
	_ZN27CGlxDefaultAttributeContextD0Ev @ 74 NONAME
	_ZN27CGlxDefaultAttributeContextD1Ev @ 75 NONAME
	_ZN27CGlxDefaultAttributeContextD2Ev @ 76 NONAME
	_ZN27CGlxDefaultThumbnailContext15SetRangeOffsetsEii @ 77 NONAME
	_ZN27CGlxDefaultThumbnailContext4NewLEv @ 78 NONAME
	_ZN27CGlxDefaultThumbnailContextD0Ev @ 79 NONAME
	_ZN27CGlxDefaultThumbnailContextD1Ev @ 80 NONAME
	_ZN27CGlxDefaultThumbnailContextD2Ev @ 81 NONAME
	_ZN28TGlxFromFocusOutwardIterator15SetRangeOffsetsEii @ 82 NONAME
	_ZN28TGlxFromFocusOutwardIteratorC1Ev @ 83 NONAME
	_ZN28TGlxFromFocusOutwardIteratorC2Ev @ 84 NONAME
	_ZN28TGlxFromFocusOutwardIteratorD1Ev @ 85 NONAME
	_ZN28TGlxFromFocusOutwardIteratorD2Ev @ 86 NONAME
	_ZN30TGlxScrollingDirectionIterator15SetRangeOffsetsEii @ 87 NONAME
	_ZN30TGlxScrollingDirectionIteratorC1Ev @ 88 NONAME
	_ZN30TGlxScrollingDirectionIteratorC2Ev @ 89 NONAME
	_ZN30TGlxScrollingDirectionIteratorD1Ev @ 90 NONAME
	_ZN30TGlxScrollingDirectionIteratorD2Ev @ 91 NONAME
	_ZN31CGlxDefaultListAttributeContext15SetRangeOffsetsEii @ 92 NONAME
	_ZN31CGlxDefaultListAttributeContext4NewLEv @ 93 NONAME
	_ZN31CGlxDefaultListAttributeContextD0Ev @ 94 NONAME
	_ZN31CGlxDefaultListAttributeContextD1Ev @ 95 NONAME
	_ZN31CGlxDefaultListAttributeContextD2Ev @ 96 NONAME
	_ZN33TGlxFromManualIndexBlockyIterator15SetRangeOffsetsEii @ 97 NONAME
	_ZN33TGlxFromManualIndexBlockyIteratorC1Ev @ 98 NONAME
	_ZN33TGlxFromManualIndexBlockyIteratorC2Ev @ 99 NONAME
	_ZN33TGlxFromManualIndexBlockyIteratorD1Ev @ 100 NONAME
	_ZN33TGlxFromManualIndexBlockyIteratorD2Ev @ 101 NONAME
	_ZN34TGlxFromFocusOutwardBlockyIteratorC1Ev @ 102 NONAME
	_ZN34TGlxFromFocusOutwardBlockyIteratorC2Ev @ 103 NONAME
	_ZN34TGlxFromFocusOutwardBlockyIteratorD1Ev @ 104 NONAME
	_ZN34TGlxFromFocusOutwardBlockyIteratorD2Ev @ 105 NONAME
	_ZN34TGlxFromIndexOutwardBlockyIterator15SetRangeOffsetsEii @ 106 NONAME
	_ZN34TGlxFromIndexOutwardBlockyIteratorC1ERKNS_9MGlxIndexE @ 107 NONAME
	_ZN34TGlxFromIndexOutwardBlockyIteratorC2ERKNS_9MGlxIndexE @ 108 NONAME
	_ZN34TGlxFromIndexOutwardBlockyIteratorD1Ev @ 109 NONAME
	_ZN34TGlxFromIndexOutwardBlockyIteratorD2Ev @ 110 NONAME
	_ZN39TGlxFromVisibleIndexOutwardListIterator15SetRangeOffsetsEii @ 111 NONAME
	_ZN39TGlxFromVisibleIndexOutwardListIteratorC1Ev @ 112 NONAME
	_ZN39TGlxFromVisibleIndexOutwardListIteratorC2Ev @ 113 NONAME
	_ZN39TGlxFromVisibleIndexOutwardListIteratorD1Ev @ 114 NONAME
	_ZN39TGlxFromVisibleIndexOutwardListIteratorD2Ev @ 115 NONAME
	_ZN40TGlxFromManualIndexOutwardBlockyIterator8SetIndexEi @ 116 NONAME
	_ZN40TGlxFromManualIndexOutwardBlockyIteratorC1Ev @ 117 NONAME
	_ZN40TGlxFromManualIndexOutwardBlockyIteratorC2Ev @ 118 NONAME
	_ZN40TGlxFromManualIndexOutwardBlockyIteratorD1Ev @ 119 NONAME
	_ZN40TGlxFromManualIndexOutwardBlockyIteratorD2Ev @ 120 NONAME
	_ZN9CGlxMedia13SetTextValueLERK13TMPXAttributeRK7TDesC16 @ 121 NONAME
	_ZN9CGlxMedia14HandleModifiedERK6RArrayI13TMPXAttributeE @ 122 NONAME
	_ZN9CGlxMedia15DeleteAttributeERK13TMPXAttribute @ 123 NONAME
	_ZN9CGlxMedia16SetCObjectValueLERK13TMPXAttributeP5CBase @ 124 NONAME
	_ZN9CGlxMedia5ResetEv @ 125 NONAME
	_ZN9CGlxMedia9SetValueLERK13TMPXAttributePv17TMPXAttributeType @ 126 NONAME
	_ZN9CGlxMediaC1ERK11TGlxMediaId @ 127 NONAME
	_ZN9CGlxMediaC2ERK11TGlxMediaId @ 128 NONAME
	_ZN9CGlxMediaD0Ev @ 129 NONAME
	_ZN9CGlxMediaD1Ev @ 130 NONAME
	_ZN9CGlxMediaD2Ev @ 131 NONAME
	_ZN9MGlxCache9InstanceLEv @ 132 NONAME
	_ZN9TGlxMedia23DeleteLocationAttributeEv @ 133 NONAME
	_ZN9TGlxMedia9MatchByIdERKS_S1_ @ 134 NONAME
	_ZNK12CGlxItemList18__DbgTestInvariantEv @ 135 NONAME
	_ZNK14CGlxListWindow18__DbgTestInvariantEv @ 136 NONAME
	_ZNK14CGlxListWindow2AtEi @ 137 NONAME
	_ZNK14CGlxListWindow8IteratorEv @ 138 NONAME
	_ZNK17CGlxNavigableList18__DbgTestInvariantEv @ 139 NONAME
	_ZNK18CGlxStaticItemList18__DbgTestInvariantEv @ 140 NONAME
	_ZNK21TGlxSelectionIterator7InRangeEi @ 141 NONAME
	_ZNK9CGlxMedia12GetValueTextER7TPtrC16RK13TMPXAttribute @ 142 NONAME
	_ZNK9CGlxMedia12ValueCObjectERK13TMPXAttribute @ 143 NONAME
	_ZNK9CGlxMedia18__DbgTestInvariantEv @ 144 NONAME
	_ZNK9CGlxMedia9ValueTextERK13TMPXAttribute @ 145 NONAME
	_ZNK9TGlxMedia11GetDurationERf @ 146 NONAME
	_ZNK9TGlxMedia11GetIconInfoER9TIconInfo @ 147 NONAME
	_ZNK9TGlxMedia13GetCoordinateER11TCoordinate @ 148 NONAME
	_ZNK9TGlxMedia13GetDimensionsER5TSize @ 149 NONAME
	_ZNK9TGlxMedia13GetFrameCountERi @ 150 NONAME
	_ZNK9TGlxMedia13GetSystemItemERi @ 151 NONAME
	_ZNK9TGlxMedia14GetDrmValidityER30TGlxMediaGeneralRightsValidity @ 152 NONAME
	_ZNK9TGlxMedia14IsDrmProtectedEv @ 153 NONAME
	_ZNK9TGlxMedia15GetDrmProtectedERi @ 154 NONAME
	_ZNK9TGlxMedia18ThumbnailAttributeER13TMPXAttribute @ 155 NONAME
	_ZNK9TGlxMedia19GetClosestThumbnailER13TMPXAttributeRK5TSizei @ 156 NONAME
	_ZNK9TGlxMedia19GetLastModifiedDateER5TTime @ 157 NONAME
	_ZNK9TGlxMedia20GetStaticItemCommandERi @ 158 NONAME
	_ZNK9TGlxMedia21GetContainedItemCountERi @ 159 NONAME
	_ZNK9TGlxMedia26IsSlideShowPlayableContentEv @ 160 NONAME
	_ZNK9TGlxMedia38GetSlideshowPlayableContainedItemCountERi @ 161 NONAME
	_ZNK9TGlxMedia3UriEv @ 162 NONAME
	_ZNK9TGlxMedia5TitleEv @ 163 NONAME
	_ZNK9TGlxMedia7CommentEv @ 164 NONAME
	_ZNK9TGlxMedia7GetDateER5TTime @ 165 NONAME
	_ZNK9TGlxMedia7GetSizeERj @ 166 NONAME
	_ZNK9TGlxMedia8CategoryEv @ 167 NONAME
	_ZNK9TGlxMedia8IsStaticEv @ 168 NONAME
	_ZNK9TGlxMedia8MimeTypeEv @ 169 NONAME
	_ZNK9TGlxMedia8SubTitleEv @ 170 NONAME
	_ZNK9TGlxMedia9IdSpaceIdEv @ 171 NONAME
	_ZTI13CGlxMediaList @ 172 NONAME
	_ZTI14CGlxListWindow @ 173 NONAME
	_ZTI15CGlxImageReader @ 174 NONAME
	_ZTI16CGlxCacheManager @ 175 NONAME
	_ZTI20CGlxAttributeContext @ 176 NONAME
	_ZTI20CGlxGarbageCollector @ 177 NONAME
	_ZTI20CGlxThumbnailContext @ 178 NONAME
	_ZTI21TGlxExclusionIterator @ 179 NONAME
	_ZTI21TGlxSelectionIterator @ 180 NONAME
	_ZTI22TGlxSequentialIterator @ 181 NONAME
	_ZTI22TGlxSpecificIdIterator @ 182 NONAME
	_ZTI25TGlxFirstThenLastIterator @ 183 NONAME
	_ZTI27CGlxDefaultAttributeContext @ 184 NONAME
	_ZTI27CGlxDefaultThumbnailContext @ 185 NONAME
	_ZTI28TGlxFromFocusOutwardIterator @ 186 NONAME
	_ZTI30TGlxScrollingDirectionIterator @ 187 NONAME
	_ZTI31CGlxDefaultListAttributeContext @ 188 NONAME
	_ZTI33TGlxFromManualIndexBlockyIterator @ 189 NONAME
	_ZTI34TGlxFromFocusOutwardBlockyIterator @ 190 NONAME
	_ZTI34TGlxFromIndexOutwardBlockyIterator @ 191 NONAME
	_ZTI39TGlxFromVisibleIndexOutwardListIterator @ 192 NONAME
	_ZTI40TGlxFromManualIndexOutwardBlockyIterator @ 193 NONAME
	_ZTV13CGlxMediaList @ 194 NONAME
	_ZTV14CGlxListWindow @ 195 NONAME
	_ZTV15CGlxImageReader @ 196 NONAME
	_ZTV16CGlxCacheManager @ 197 NONAME
	_ZTV20CGlxAttributeContext @ 198 NONAME
	_ZTV20CGlxGarbageCollector @ 199 NONAME
	_ZTV20CGlxThumbnailContext @ 200 NONAME
	_ZTV21TGlxExclusionIterator @ 201 NONAME
	_ZTV21TGlxSelectionIterator @ 202 NONAME
	_ZTV22TGlxSequentialIterator @ 203 NONAME
	_ZTV22TGlxSpecificIdIterator @ 204 NONAME
	_ZTV25TGlxFirstThenLastIterator @ 205 NONAME
	_ZTV27CGlxDefaultAttributeContext @ 206 NONAME
	_ZTV27CGlxDefaultThumbnailContext @ 207 NONAME
	_ZTV28TGlxFromFocusOutwardIterator @ 208 NONAME
	_ZTV30TGlxScrollingDirectionIterator @ 209 NONAME
	_ZTV31CGlxDefaultListAttributeContext @ 210 NONAME
	_ZTV33TGlxFromManualIndexBlockyIterator @ 211 NONAME
	_ZTV34TGlxFromFocusOutwardBlockyIterator @ 212 NONAME
	_ZTV34TGlxFromIndexOutwardBlockyIterator @ 213 NONAME
	_ZTV39TGlxFromVisibleIndexOutwardListIterator @ 214 NONAME
	_ZTV40TGlxFromManualIndexOutwardBlockyIterator @ 215 NONAME

