EXPORTS
	_ZN13HsMenuService13executeActionERK7CaEntryRK7QStringP7QObjectPKc @ 1 NONAME
	_ZN13HsMenuService13executeActionEiRK7QStringP7QObjectPKc @ 2 NONAME
	_ZN13HsMenuService16allCollectionsIdEv @ 3 NONAME
	_ZN13HsMenuService16createCollectionERK7QString @ 4 NONAME
	_ZN13HsMenuService16removeCollectionEi @ 5 NONAME
	_ZN13HsMenuService16renameCollectionEiRK7QString @ 6 NONAME
	_ZN13HsMenuService17getInstalledModelEN2Hs15HsSortAttributeE @ 7 NONAME
	_ZN13HsMenuService17mAllCollectionsIdE @ 8 NONAME DATA 4
	_ZN13HsMenuService18collectionIdByTypeERK7QString @ 9 NONAME
	_ZN13HsMenuService18getCollectionModelEiN2Hs15HsSortAttributeERK7QString @ 10 NONAME
	_ZN13HsMenuService18getCollectionNamesEv @ 11 NONAME
	_ZN13HsMenuService18launchTaskSwitcherEv @ 12 NONAME
	_ZN13HsMenuService18organizeCollectionEiR5QListIiE @ 13 NONAME
	_ZN13HsMenuService20launchSoftwareUpdateEv @ 14 NONAME
	_ZN13HsMenuService22getAllCollectionsModelEv @ 15 NONAME
	_ZN13HsMenuService23getAllApplicationsModelEN2Hs15HsSortAttributeE @ 16 NONAME
	_ZN13HsMenuService27addApplicationsToCollectionERK5QListIiEi @ 17 NONAME
	_ZN13HsMenuService31removeApplicationFromCollectionEii @ 18 NONAME
	_ZN13HsMenuService5touchERK5QListIiE @ 19 NONAME
	_ZN13HsMenuService5touchERK7CaEntry @ 20 NONAME
	_ZN13HsMenuService5touchEi @ 21 NONAME
	_ZN13HsMenuService7getNameEi @ 22 NONAME
	_ZN15HsMenuItemModel11qt_metacallEN11QMetaObject4CallEiPPv @ 23 NONAME
	_ZN15HsMenuItemModel11qt_metacastEPKc @ 24 NONAME
	_ZN15HsMenuItemModel12preloadIconsEv @ 25 NONAME
	_ZN15HsMenuItemModel15uninstallChangeEii @ 26 NONAME
	_ZN15HsMenuItemModel16staticMetaObjectE @ 27 NONAME DATA 16
	_ZN15HsMenuItemModel19getStaticMetaObjectEv @ 28 NONAME
	_ZN15HsMenuItemModel7setSortEN2Hs15HsSortAttributeE @ 29 NONAME
	_ZN15HsMenuItemModelC1ERK7CaQueryP7QObject @ 30 NONAME
	_ZN15HsMenuItemModelC2ERK7CaQueryP7QObject @ 31 NONAME
	_ZN15HsMenuItemModelD0Ev @ 32 NONAME
	_ZN15HsMenuItemModelD1Ev @ 33 NONAME
	_ZN15HsMenuItemModelD2Ev @ 34 NONAME
	_ZN18HsMenuServiceUtils6sortByEN2Hs15HsSortAttributeE @ 35 NONAME
	_ZN18HsMenuServiceUtils9sortOrderEN2Hs15HsSortAttributeE @ 36 NONAME
	_ZN25HsMenuEntryRemovedHandler11qt_metacallEN11QMetaObject4CallEiPPv @ 37 NONAME
	_ZN25HsMenuEntryRemovedHandler11qt_metacastEPKc @ 38 NONAME
	_ZN25HsMenuEntryRemovedHandler12entryChangedEi10ChangeType @ 39 NONAME
	_ZN25HsMenuEntryRemovedHandler16staticMetaObjectE @ 40 NONAME DATA 16
	_ZN25HsMenuEntryRemovedHandler19getStaticMetaObjectEv @ 41 NONAME
	_ZN25HsMenuEntryRemovedHandler6notifyEv @ 42 NONAME
	_ZN25HsMenuEntryRemovedHandler9subscribeEi @ 43 NONAME
	_ZN25HsMenuEntryRemovedHandlerC1EiP7QObjectPKc @ 44 NONAME
	_ZN25HsMenuEntryRemovedHandlerC2EiP7QObjectPKc @ 45 NONAME
	_ZN25HsMenuEntryRemovedHandlerD0Ev @ 46 NONAME
	_ZN25HsMenuEntryRemovedHandlerD1Ev @ 47 NONAME
	_ZN25HsMenuEntryRemovedHandlerD2Ev @ 48 NONAME
	_ZN26HsMenuCollectionsItemModelC1ERK7CaQueryP7QObject @ 49 NONAME
	_ZN26HsMenuCollectionsItemModelC2ERK7CaQueryP7QObject @ 50 NONAME
	_ZN26HsMenuCollectionsItemModelD0Ev @ 51 NONAME
	_ZN26HsMenuCollectionsItemModelD1Ev @ 52 NONAME
	_ZN26HsMenuCollectionsItemModelD2Ev @ 53 NONAME
	_ZNK15HsMenuItemModel10metaObjectEv @ 54 NONAME
	_ZNK15HsMenuItemModel13newIconNeededERK11QModelIndex @ 55 NONAME
	_ZNK15HsMenuItemModel4dataERK11QModelIndexi @ 56 NONAME
	_ZNK25HsMenuEntryRemovedHandler10metaObjectEv @ 57 NONAME
	_ZNK26HsMenuCollectionsItemModel13getSecondLineEPK7CaEntry @ 58 NONAME
	_ZNK26HsMenuCollectionsItemModel4dataERK11QModelIndexi @ 59 NONAME
	_ZTI15HsMenuItemModel @ 60 NONAME
	_ZTI25HsMenuEntryRemovedHandler @ 61 NONAME
	_ZTI26HsMenuCollectionsItemModel @ 62 NONAME
	_ZTV15HsMenuItemModel @ 63 NONAME
	_ZTV25HsMenuEntryRemovedHandler @ 64 NONAME
	_ZTV26HsMenuCollectionsItemModel @ 65 NONAME

