EXPORTS
	?cleanSent@MmsTestBed@@QAEXXZ @ 1 NONAME ; void MmsTestBed::cleanSent(void)
	?cancelSendScheduling@MmsTestBed@@QAEXXZ @ 2 NONAME ; void MmsTestBed::cancelSendScheduling(void)
	?replyToAll@MmsTestBed@@QAEXXZ @ 3 NONAME ; void MmsTestBed::replyToAll(void)
	?getLogEntries@MmsTestBed@@AAEHXZ @ 4 NONAME ; int MmsTestBed::getLogEntries(void)
	?restoreFactorySettings@MmsTestBed@@QAEXXZ @ 5 NONAME ; void MmsTestBed::restoreFactorySettings(void)
	?fromOutboxToMmscWithMemoryFailure@MmsTestBed@@QAEHXZ @ 6 NONAME ; int MmsTestBed::fromOutboxToMmscWithMemoryFailure(void)
	?encodeMessageFromDrafts@MmsTestBed@@AAEXXZ @ 7 NONAME ; void MmsTestBed::encodeMessageFromDrafts(void)
	?reply@MmsTestBed@@QAEXXZ @ 8 NONAME ; void MmsTestBed::reply(void)
	?deleteEntry@MmsTestBed@@AAEXJAAVCMsvEntry@@@Z @ 9 NONAME ; void MmsTestBed::deleteEntry(long, class CMsvEntry &)
	?findDefaultL@MmsTestBed@@AAEXXZ @ 10 NONAME ; void MmsTestBed::findDefaultL(void)
	?messageVariation@MmsTestBed@@QAEXXZ @ 11 NONAME ; void MmsTestBed::messageVariation(void)
	?sendReadReport@MmsTestBed@@QAEXXZ @ 12 NONAME ; void MmsTestBed::sendReadReport(void)
	?garbageCollection@MmsTestBed@@QAEXK@Z @ 13 NONAME ; void MmsTestBed::garbageCollection(unsigned long)
	?fetchForced@MmsTestBed@@QAEXH@Z @ 14 NONAME ; void MmsTestBed::fetchForced(int)
	?scheduledSend@MmsTestBed@@QAEXJH@Z @ 15 NONAME ; void MmsTestBed::scheduledSend(long, int)
	?createMmsService@MmsTestBed@@AAEXXZ @ 16 NONAME ; void MmsTestBed::createMmsService(void)
	?trUtf8@MmsTestBed@@SA?AVQString@@PBD0H@Z @ 17 NONAME ; class QString MmsTestBed::trUtf8(char const *, char const *, int)
	?qt_metacast@MmsTestBed@@UAEPAXPBD@Z @ 18 NONAME ; void * MmsTestBed::qt_metacast(char const *)
	?deleteEventType@MmsTestBed@@QAEXXZ @ 19 NONAME ; void MmsTestBed::deleteEventType(void)
	??_EMmsTestBed@@UAE@I@Z @ 20 NONAME ; MmsTestBed::~MmsTestBed(unsigned int)
	?cleanLog@MmsTestBed@@QAEXXZ @ 21 NONAME ; void MmsTestBed::cleanLog(void)
	?createEntry@MmsTestBed@@QAEXAAVTMsvEntry@@AAVCMsvEntry@@@Z @ 22 NONAME ; void MmsTestBed::createEntry(class TMsvEntry &, class CMsvEntry &)
	?scheduledFetch@MmsTestBed@@QAEXH@Z @ 23 NONAME ; void MmsTestBed::scheduledFetch(int)
	?sendFromFile@MmsTestBed@@QAEXXZ @ 24 NONAME ; void MmsTestBed::sendFromFile(void)
	??0MmsTestBed@@QAE@XZ @ 25 NONAME ; MmsTestBed::MmsTestBed(void)
	?cleanInbox@MmsTestBed@@QAEXXZ @ 26 NONAME ; void MmsTestBed::cleanInbox(void)
	?deleteFetchSchedule@MmsTestBed@@QAEXXZ @ 27 NONAME ; void MmsTestBed::deleteFetchSchedule(void)
	?fromMmscToInbox@MmsTestBed@@QAEXXZ @ 28 NONAME ; void MmsTestBed::fromMmscToInbox(void)
	?doAFetchCycle@MmsTestBed@@QAEXXZ @ 29 NONAME ; void MmsTestBed::doAFetchCycle(void)
	?entryMovedToSent@MmsTestBed@@IAEXJ@Z @ 30 NONAME ; void MmsTestBed::entryMovedToSent(long)
	?cleanupAndCreateNewService@MmsTestBed@@QAEXXZ @ 31 NONAME ; void MmsTestBed::cleanupAndCreateNewService(void)
	?cleanup@MmsTestBed@@AAEXXZ @ 32 NONAME ; void MmsTestBed::cleanup(void)
	?qt_metacall@MmsTestBed@@UAEHW4Call@QMetaObject@@HPAPAX@Z @ 33 NONAME ; int MmsTestBed::qt_metacall(enum QMetaObject::Call, int, void * *)
	?getEventType@MmsTestBed@@QAEXXZ @ 34 NONAME ; void MmsTestBed::getEventType(void)
	?sendViaClient@MmsTestBed@@QAEXXZ @ 35 NONAME ; void MmsTestBed::sendViaClient(void)
	?setFetchingState@MmsTestBed@@QAEXW4TMmsReceivingMode@@@Z @ 36 NONAME ; void MmsTestBed::setFetchingState(enum TMmsReceivingMode)
	?sendNotifications@MmsTestBed@@QAEXXZ @ 37 NONAME ; void MmsTestBed::sendNotifications(void)
	?metaObject@MmsTestBed@@UBEPBUQMetaObject@@XZ @ 38 NONAME ; struct QMetaObject const * MmsTestBed::metaObject(void) const
	?setOnline@MmsTestBed@@QAEX_N@Z @ 39 NONAME ; void MmsTestBed::setOnline(bool)
	?cleanOutbox@MmsTestBed@@QAEXXZ @ 40 NONAME ; void MmsTestBed::cleanOutbox(void)
	?checkLogClient@MmsTestBed@@AAE_NXZ @ 41 NONAME ; bool MmsTestBed::checkLogClient(void)
	?cleanDrafts@MmsTestBed@@QAEXXZ @ 42 NONAME ; void MmsTestBed::cleanDrafts(void)
	?tr@MmsTestBed@@SA?AVQString@@PBD0H@Z @ 43 NONAME ; class QString MmsTestBed::tr(char const *, char const *, int)
	?copyDrafts@MmsTestBed@@QAEXXZ @ 44 NONAME ; void MmsTestBed::copyDrafts(void)
	?fromMmscToInboxWithMemoryFailure@MmsTestBed@@QAEHXZ @ 45 NONAME ; int MmsTestBed::fromMmscToInboxWithMemoryFailure(void)
	?fetchForcedImmediate@MmsTestBed@@QAEXXZ @ 46 NONAME ; void MmsTestBed::fetchForcedImmediate(void)
	?deleteSendSchedule@MmsTestBed@@QAEXXZ @ 47 NONAME ; void MmsTestBed::deleteSendSchedule(void)
	?staticMetaObject@MmsTestBed@@2UQMetaObject@@B @ 48 NONAME ; struct QMetaObject const MmsTestBed::staticMetaObject
	?entryCreatedInDraft@MmsTestBed@@IAEXJ@Z @ 49 NONAME ; void MmsTestBed::entryCreatedInDraft(long)
	?generateDeliveryReport@MmsTestBed@@QAEXPAVCMmsHeaders@@@Z @ 50 NONAME ; void MmsTestBed::generateDeliveryReport(class CMmsHeaders *)
	?forward@MmsTestBed@@QAEXXZ @ 51 NONAME ; void MmsTestBed::forward(void)
	?entryCreatedInInbox@MmsTestBed@@IAEXJ@Z @ 52 NONAME ; void MmsTestBed::entryCreatedInInbox(long)
	?fromOutboxToMmsc@MmsTestBed@@QAEXXZ @ 53 NONAME ; void MmsTestBed::fromOutboxToMmsc(void)
	?entryMovedToOutbox@MmsTestBed@@IAEXJ@Z @ 54 NONAME ; void MmsTestBed::entryMovedToOutbox(long)
	?findMMSFolder@MmsTestBed@@AAEJXZ @ 55 NONAME ; long MmsTestBed::findMMSFolder(void)
	??1MmsTestBed@@UAE@XZ @ 56 NONAME ; MmsTestBed::~MmsTestBed(void)
	?cleanAll@MmsTestBed@@QAEXXZ @ 57 NONAME ; void MmsTestBed::cleanAll(void)
	?getStaticMetaObject@MmsTestBed@@SAABUQMetaObject@@XZ @ 58 NONAME ; struct QMetaObject const & MmsTestBed::getStaticMetaObject(void)
	?sendDeliveryReport@MmsTestBed@@QAEXXZ @ 59 NONAME ; void MmsTestBed::sendDeliveryReport(void)
	?setConnectionLocal@MmsTestBed@@QAEX_N@Z @ 60 NONAME ; void MmsTestBed::setConnectionLocal(bool)
	?sendOneByOne@MmsTestBed@@QAEXXZ @ 61 NONAME ; void MmsTestBed::sendOneByOne(void)
	?cancelFetchScheduling@MmsTestBed@@QAEXXZ @ 62 NONAME ; void MmsTestBed::cancelFetchScheduling(void)
	?trUtf8@MmsTestBed@@SA?AVQString@@PBD0@Z @ 63 NONAME ; class QString MmsTestBed::trUtf8(char const *, char const *)
	?deleteNotifications@MmsTestBed@@QAEXXZ @ 64 NONAME ; void MmsTestBed::deleteNotifications(void)
	?testFile@MmsTestBed@@AAEXAAV?$TBuf@$0BAA@@@HJ@Z @ 65 NONAME ; void MmsTestBed::testFile(class TBuf<256> &, int, long)
	?HandleSessionEventL@MmsTestBed@@MAEXW4TMsvSessionEvent@MMsvSessionObserver@@PAX11@Z @ 66 NONAME ; void MmsTestBed::HandleSessionEventL(enum MMsvSessionObserver::TMsvSessionEvent, void *, void *, void *)
	?tr@MmsTestBed@@SA?AVQString@@PBD0@Z @ 67 NONAME ; class QString MmsTestBed::tr(char const *, char const *)
	?addEventType@MmsTestBed@@QAEXXZ @ 68 NONAME ; void MmsTestBed::addEventType(void)
	?addMMBoxDescriptions@MmsTestBed@@AAEXXZ @ 69 NONAME ; void MmsTestBed::addMMBoxDescriptions(void)

