EXPORTS
	_ZN16CMMCScBkupEngine15CancelOperationEv @ 1 NONAME
	_ZN16CMMCScBkupEngine15StartOperationLE23TMMCScBkupOperationTypeR24MMMCScBkupEngineObserverP22CMMCScBkupOpParamsBase @ 2 NONAME
	_ZN16CMMCScBkupEngine22ValidArchiveForRestoreERK7TDesC16 @ 3 NONAME
	_ZN16CMMCScBkupEngine4NewLER3RFs @ 4 NONAME
	_ZN16CMMCScBkupEngineD0Ev @ 5 NONAME
	_ZN16CMMCScBkupEngineD1Ev @ 6 NONAME
	_ZN16CMMCScBkupEngineD2Ev @ 7 NONAME
	_ZN20RMMCScBkupArchiveBuf5CloseEv @ 8 NONAME
	_ZN22CMMCScBkupOpParamsBase16SetArchiveInfosLER13RPointerArrayI21CMMCScBkupArchiveInfoE @ 9 NONAME
	_ZN22CMMCScBkupOpParamsBaseD0Ev @ 10 NONAME
	_ZN22CMMCScBkupOpParamsBaseD1Ev @ 11 NONAME
	_ZN22CMMCScBkupOpParamsBaseD2Ev @ 12 NONAME
	_ZN28CMMCScBkupOpParamsBackupFull4NewLEP13CArrayFixFlatI23TBkupDrivesAndOperationEP13RPointerArrayI13CBkupCategoryE12TDriveNumber10TBitFlagsTImE @ 13 NONAME
	_ZN28CMMCScBkupOpParamsBackupFullD0Ev @ 14 NONAME
	_ZN28CMMCScBkupOpParamsBackupFullD1Ev @ 15 NONAME
	_ZN28CMMCScBkupOpParamsBackupFullD2Ev @ 16 NONAME
	_ZN29CMMCScBkupOpParamsRestoreFull4NewLEP13CArrayFixFlatI23TBkupDrivesAndOperationE10TBitFlagsTImE @ 17 NONAME
	_ZN29CMMCScBkupOpParamsRestoreFullD0Ev @ 18 NONAME
	_ZN29CMMCScBkupOpParamsRestoreFullD1Ev @ 19 NONAME
	_ZN29CMMCScBkupOpParamsRestoreFullD2Ev @ 20 NONAME
	_ZN38CMMCScBkupDriveAndOperationTypeManager4NewLEP13CArrayFixFlatI23TBkupDrivesAndOperationE @ 21 NONAME
	_ZN38CMMCScBkupDriveAndOperationTypeManagerD0Ev @ 22 NONAME
	_ZN38CMMCScBkupDriveAndOperationTypeManagerD1Ev @ 23 NONAME
	_ZN38CMMCScBkupDriveAndOperationTypeManagerD2Ev @ 24 NONAME
	_ZNK16CMMCScBkupEngine13ListArchivesLER13RPointerArrayI21CMMCScBkupArchiveInfoEP22CMMCScBkupOpParamsBasemi @ 25 NONAME
	_ZNK16CMMCScBkupEngine14RebootRequiredEv @ 26 NONAME
	_ZNK16CMMCScBkupEngine19TotalOperationSizeLEv @ 27 NONAME
	_ZNK21CMMCScBkupArchiveInfo5DriveEv @ 28 NONAME
	_ZNK21CMMCScBkupArchiveInfo8CategoryEv @ 29 NONAME
	_ZNK21CMMCScBkupArchiveInfo8DateTimeEv @ 30 NONAME
	_ZNK21CMMCScBkupArchiveInfo8FileNameEv @ 31 NONAME
	_ZNK22CMMCScBkupOpParamsBase18DriveAndOperationsEv @ 32 NONAME
	_ZNK28CMMCScBkupOpParamsBackupFull13IncrementTypeEv @ 33 NONAME
	_ZNK28CMMCScBkupOpParamsBackupFull16AssociatedOpTypeEv @ 34 NONAME
	_ZNK28CMMCScBkupOpParamsBackupFull18ActiveTransferTypeEv @ 35 NONAME
	_ZNK28CMMCScBkupOpParamsBackupFull19PackageTransferTypeEv @ 36 NONAME
	_ZNK28CMMCScBkupOpParamsBackupFull19PassiveTransferTypeEv @ 37 NONAME
	_ZNK28CMMCScBkupOpParamsBackupFull8PartTypeEv @ 38 NONAME
	_ZNK29CMMCScBkupOpParamsRestoreFull13IncrementTypeEv @ 39 NONAME
	_ZNK29CMMCScBkupOpParamsRestoreFull16AssociatedOpTypeEv @ 40 NONAME
	_ZNK29CMMCScBkupOpParamsRestoreFull18ActiveTransferTypeEv @ 41 NONAME
	_ZNK29CMMCScBkupOpParamsRestoreFull19PackageTransferTypeEv @ 42 NONAME
	_ZNK29CMMCScBkupOpParamsRestoreFull19PassiveTransferTypeEv @ 43 NONAME
	_ZNK29CMMCScBkupOpParamsRestoreFull8PartTypeEv @ 44 NONAME
	_ZTI22CMMCScBkupDataStrategy @ 45 NONAME
	_ZTI37CMMCScBkupStateRequestSizeOfDataOwner @ 46 NONAME
	_ZTI44CMMCScBkupStateRequestSpecificPublicFileInfo @ 47 NONAME
	_ZTV22CMMCScBkupDataStrategy @ 48 NONAME
	_ZTV37CMMCScBkupStateRequestSizeOfDataOwner @ 49 NONAME
	_ZTV44CMMCScBkupStateRequestSpecificPublicFileInfo @ 50 NONAME
	_ZNK16CMMCScBkupEngine15DeleteArchivesLER13RPointerArrayI21CMMCScBkupArchiveInfoE @ 51 NONAME

