EXPORTS
	_ZN12CalenDayView12doPopulationEv @ 1 NONAME
	_ZN12CalenDayView9setupViewEP14CalenDocLoader @ 2 NONAME
	_ZN12CalenDayViewC1ER14MCalenServices @ 3 NONAME
	_ZN12CalenDayViewC2ER14MCalenServices @ 4 NONAME
	_ZN12CalenDayViewD0Ev @ 5 NONAME
	_ZN12CalenDayViewD1Ev @ 6 NONAME
	_ZN12CalenDayViewD2Ev @ 7 NONAME
	_ZN14CalenMonthGrid10appendRowsEv @ 8 NONAME
	_ZN14CalenMonthGrid11downGestureEv @ 9 NONAME
	_ZN14CalenMonthGrid11prependRowsEv @ 10 NONAME
	_ZN14CalenMonthGrid11qt_metacallEN11QMetaObject4CallEiPPv @ 11 NONAME
	_ZN14CalenMonthGrid11qt_metacastEPKc @ 12 NONAME
	_ZN14CalenMonthGrid12gestureEventEP13QGestureEvent @ 13 NONAME
	_ZN14CalenMonthGrid13itemActivatedERK11QModelIndex @ 14 NONAME
	_ZN14CalenMonthGrid14setActiveDatesE5QDate @ 15 NONAME
	_ZN14CalenMonthGrid14setCurrentIdexEi @ 16 NONAME
	_ZN14CalenMonthGrid15getCurrentIndexEv @ 17 NONAME
	_ZN14CalenMonthGrid15mousePressEventEP24QGraphicsSceneMouseEvent @ 18 NONAME
	_ZN14CalenMonthGrid16staticMetaObjectE @ 19 NONAME DATA 16
	_ZN14CalenMonthGrid17handleThemeChangeEv @ 20 NONAME
	_ZN14CalenMonthGrid17mouseReleaseEventEP24QGraphicsSceneMouseEvent @ 21 NONAME
	_ZN14CalenMonthGrid17scrollingFinishedEv @ 22 NONAME
	_ZN14CalenMonthGrid18checkIfWeCanScrollE15scrollDirection @ 23 NONAME
	_ZN14CalenMonthGrid19getStaticMetaObjectEv @ 24 NONAME
	_ZN14CalenMonthGrid19handleAppendingRowsER5QListI14CalenMonthDataE @ 25 NONAME
	_ZN14CalenMonthGrid19setFocusToProperDayEv @ 26 NONAME
	_ZN14CalenMonthGrid20handlePrependingRowsER5QListI14CalenMonthDataE @ 27 NONAME
	_ZN14CalenMonthGrid20updateMonthGridModelER5QListI14CalenMonthDataEib @ 28 NONAME
	_ZN14CalenMonthGrid24handlePanGestureFinishedEv @ 29 NONAME
	_ZN14CalenMonthGrid33updateMonthGridWithInActiveMonthsER5QListI14CalenMonthDataE @ 30 NONAME
	_ZN14CalenMonthGrid34updateMonthGridWithEventIndicatorsER5QListI14CalenMonthDataE @ 31 NONAME
	_ZN14CalenMonthGrid5paintEP8QPainterPK24QStyleOptionGraphicsItemP7QWidget @ 32 NONAME
	_ZN14CalenMonthGrid7setViewEP14CalenMonthView @ 33 NONAME
	_ZN14CalenMonthGrid9upGestureEv @ 34 NONAME
	_ZN14CalenMonthGridC1EP13QGraphicsItem @ 35 NONAME
	_ZN14CalenMonthGridC2EP13QGraphicsItem @ 36 NONAME
	_ZN14CalenMonthGridD0Ev @ 37 NONAME
	_ZN14CalenMonthGridD1Ev @ 38 NONAME
	_ZN14CalenMonthGridD2Ev @ 39 NONAME
	_ZN14CalenMonthView10createGridEv @ 40 NONAME
	_ZN14CalenMonthView11qt_metacallEN11QMetaObject4CallEiPPv @ 41 NONAME
	_ZN14CalenMonthView11qt_metacastEPKc @ 42 NONAME
	_ZN14CalenMonthView12createEditorEv @ 43 NONAME
	_ZN14CalenMonthView12doPopulationEv @ 44 NONAME
	_ZN14CalenMonthView12getActiveDayEv @ 45 NONAME
	_ZN14CalenMonthView12setActiveDayE9QDateTime @ 46 NONAME
	_ZN14CalenMonthView13doLazyLoadingEv @ 47 NONAME
	_ZN14CalenMonthView13launchDayViewEv @ 48 NONAME
	_ZN14CalenMonthView13monthDataListEv @ 49 NONAME
	_ZN14CalenMonthView14addWeekNumbersEv @ 50 NONAME
	_ZN14CalenMonthView14firstDayOfGridEv @ 51 NONAME
	_ZN14CalenMonthView14rowsInFutMonthEv @ 52 NONAME
	_ZN14CalenMonthView14setDateToLabelEv @ 53 NONAME
	_ZN14CalenMonthView14updateDayLabelEv @ 54 NONAME
	_ZN14CalenMonthView15dateFromContextERK13MCalenContext @ 55 NONAME
	_ZN14CalenMonthView15getInstanceListER5QListI5QDateE9QDateTimeS4_ @ 56 NONAME
	_ZN14CalenMonthView15onLocaleChangedEi @ 57 NONAME
	_ZN14CalenMonthView15rowsInPrevMonthEv @ 58 NONAME
	_ZN14CalenMonthView16getCurrGridIndexEv @ 59 NONAME
	_ZN14CalenMonthView16onContextChangedEv @ 60 NONAME
	_ZN14CalenMonthView16setCurrGridIndexEi @ 61 NONAME
	_ZN14CalenMonthView16staticMetaObjectE @ 62 NONAME DATA 16
	_ZN14CalenMonthView17changeOrientationEN2Qt11OrientationE @ 63 NONAME
	_ZN14CalenMonthView17handleThemeChangeEv @ 64 NONAME
	_ZN14CalenMonthView17populateNextMonthEv @ 65 NONAME
	_ZN14CalenMonthView17populatePrevMonthEv @ 66 NONAME
	_ZN14CalenMonthView17removeWeekNumbersEv @ 67 NONAME
	_ZN14CalenMonthView18addBackgroundFrameEv @ 68 NONAME
	_ZN14CalenMonthView18completePopulationEv @ 69 NONAME
	_ZN14CalenMonthView19getStaticMetaObjectEv @ 70 NONAME
	_ZN14CalenMonthView19populatePreviewPaneER9QDateTime @ 71 NONAME
	_ZN14CalenMonthView20prepareForPopulationEv @ 72 NONAME
	_ZN14CalenMonthView21refreshViewOnGoToDateEv @ 73 NONAME
	_ZN14CalenMonthView22addRemoveActionsInMenuEv @ 74 NONAME
	_ZN14CalenMonthView22setContextForActiveDayEi @ 75 NONAME
	_ZN14CalenMonthView22updateWeekNumGridModelEv @ 76 NONAME
	_ZN14CalenMonthView23handleChangeOrientationEv @ 77 NONAME
	_ZN14CalenMonthView23handleGridItemActivatedEv @ 78 NONAME
	_ZN14CalenMonthView24handlePreviewPaneGestureEb @ 79 NONAME
	_ZN14CalenMonthView24populateWithInstanceViewEv @ 80 NONAME
	_ZN14CalenMonthView24updateModelWithPrevMonthEv @ 81 NONAME
	_ZN14CalenMonthView25handleLeftEffectCompletedERKN8HbEffect12EffectStatusE @ 82 NONAME
	_ZN14CalenMonthView26disconnectAboutToQuitEventEv @ 83 NONAME
	_ZN14CalenMonthView26fetchEntriesAndUpdateModelEv @ 84 NONAME
	_ZN14CalenMonthView26handleRightEffectCompletedERKN8HbEffect12EffectStatusE @ 85 NONAME
	_ZN14CalenMonthView26updateModelWithFutureMonthEv @ 86 NONAME
	_ZN14CalenMonthView27showHideRegionalInformationEv @ 87 NONAME
	_ZN14CalenMonthView35updateMonthDataArrayWithActiveDatesEv @ 88 NONAME
	_ZN14CalenMonthView7setDateEv @ 89 NONAME
	_ZN14CalenMonthView9goToTodayEv @ 90 NONAME
	_ZN14CalenMonthView9setupViewEP14CalenDocLoader @ 91 NONAME
	_ZN14CalenMonthViewC1ER14MCalenServices @ 92 NONAME
	_ZN14CalenMonthViewC2ER14MCalenServices @ 93 NONAME
	_ZN14CalenMonthViewD0Ev @ 94 NONAME
	_ZN14CalenMonthViewD1Ev @ 95 NONAME
	_ZN14CalenMonthViewD2Ev @ 96 NONAME
	_ZN15CalenAgendaView12doPopulationEv @ 97 NONAME
	_ZN15CalenAgendaView14clearListModelEv @ 98 NONAME
	_ZN15CalenAgendaView26disconnectAboutToQuitEventEv @ 99 NONAME
	_ZN15CalenAgendaView9docLoaderEv @ 100 NONAME
	_ZN15CalenAgendaView9setupViewEP14CalenDocLoader @ 101 NONAME
	_ZN15CalenAgendaViewC1ER14MCalenServices @ 102 NONAME
	_ZN15CalenAgendaViewC2ER14MCalenServices @ 103 NONAME
	_ZN15CalenAgendaViewD0Ev @ 104 NONAME
	_ZN15CalenAgendaViewD1Ev @ 105 NONAME
	_ZN15CalenAgendaViewD2Ev @ 106 NONAME
	_ZN15CalenNativeView17captureScreenshotEb @ 107 NONAME
	_ZN16CalenPluginLabelC1ER14MCalenServicesP13QGraphicsItem @ 108 NONAME
	_ZN16CalenPluginLabelC2ER14MCalenServicesP13QGraphicsItem @ 109 NONAME
	_ZN16CalenPluginLabelD0Ev @ 110 NONAME
	_ZN16CalenPluginLabelD1Ev @ 111 NONAME
	_ZN16CalenPluginLabelD2Ev @ 112 NONAME
	_ZN16CalenPreviewPane11qt_metacallEN11QMetaObject4CallEiPPv @ 113 NONAME
	_ZN16CalenPreviewPane11qt_metacastEPKc @ 114 NONAME
	_ZN16CalenPreviewPane12gestureEventEP13QGestureEvent @ 115 NONAME
	_ZN16CalenPreviewPane12tapTriggeredEv @ 116 NONAME
	_ZN16CalenPreviewPane13effectStartedEv @ 117 NONAME
	_ZN16CalenPreviewPane13populateLabelE9QDateTime @ 118 NONAME
	_ZN16CalenPreviewPane13stopScrollingEv @ 119 NONAME
	_ZN16CalenPreviewPane14effectFinishedEv @ 120 NONAME
	_ZN16CalenPreviewPane15startAutoScrollEv @ 121 NONAME
	_ZN16CalenPreviewPane16GetInstanceListLEv @ 122 NONAME
	_ZN16CalenPreviewPane16staticMetaObjectE @ 123 NONAME DATA 16
	_ZN16CalenPreviewPane17handleThemeChangeEv @ 124 NONAME
	_ZN16CalenPreviewPane17scrollingFinishedEv @ 125 NONAME
	_ZN16CalenPreviewPane17setNoEntriesLabelEP7HbLabel @ 126 NONAME
	_ZN16CalenPreviewPane19getStaticMetaObjectEv @ 127 NONAME
	_ZN16CalenPreviewPane19onTwoSecondsTimeoutEv @ 128 NONAME
	_ZN16CalenPreviewPane21checkStartTimeOfEventER9QDateTime @ 129 NONAME
	_ZN16CalenPreviewPane4DateEv @ 130 NONAME
	_ZN16CalenPreviewPane7setViewEP14CalenMonthView @ 131 NONAME
	_ZN16CalenPreviewPaneC1ER14MCalenServicesP13QGraphicsItem @ 132 NONAME
	_ZN16CalenPreviewPaneC2ER14MCalenServicesP13QGraphicsItem @ 133 NONAME
	_ZN16CalenPreviewPaneD0Ev @ 134 NONAME
	_ZN16CalenPreviewPaneD1Ev @ 135 NONAME
	_ZN16CalenPreviewPaneD2Ev @ 136 NONAME
	_ZN17CalenSettingsView11qt_metacallEN11QMetaObject4CallEiPPv @ 137 NONAME
	_ZN17CalenSettingsView11qt_metacastEPKc @ 138 NONAME
	_ZN17CalenSettingsView11refreshViewEv @ 139 NONAME
	_ZN17CalenSettingsView14initializeFormEv @ 140 NONAME
	_ZN17CalenSettingsView16staticMetaObjectE @ 141 NONAME DATA 16
	_ZN17CalenSettingsView18launchPreviousViewEv @ 142 NONAME
	_ZN17CalenSettingsView19getStaticMetaObjectEv @ 143 NONAME
	_ZN17CalenSettingsViewC1ER14MCalenServicesP13QGraphicsItem @ 144 NONAME
	_ZN17CalenSettingsViewC2ER14MCalenServicesP13QGraphicsItem @ 145 NONAME
	_ZN17CalenSettingsViewD0Ev @ 146 NONAME
	_ZN17CalenSettingsViewD1Ev @ 147 NONAME
	_ZN17CalenSettingsViewD2Ev @ 148 NONAME
	_ZN21CalenAgendaViewWidgetC1ER14MCalenServicesP14CalenDocLoader @ 149 NONAME
	_ZN21CalenAgendaViewWidgetC2ER14MCalenServicesP14CalenDocLoader @ 150 NONAME
	_ZN21CalenAgendaViewWidgetD0Ev @ 151 NONAME
	_ZN21CalenAgendaViewWidgetD1Ev @ 152 NONAME
	_ZN21CalenAgendaViewWidgetD2Ev @ 153 NONAME
	_ZN21CalenThickLinesDrawer11qt_metacallEN11QMetaObject4CallEiPPv @ 154 NONAME
	_ZN21CalenThickLinesDrawer11qt_metacastEPKc @ 155 NONAME
	_ZN21CalenThickLinesDrawer16staticMetaObjectE @ 156 NONAME DATA 16
	_ZN21CalenThickLinesDrawer17handleThemeChangeEv @ 157 NONAME
	_ZN21CalenThickLinesDrawer19getStaticMetaObjectEv @ 158 NONAME
	_ZN21CalenThickLinesDrawer5paintEP8QPainterPK24QStyleOptionGraphicsItemP7QWidget @ 159 NONAME
	_ZN21CalenThickLinesDrawer6polishER17HbStyleParameters @ 160 NONAME
	_ZN21CalenThickLinesDrawerC1EN17CalendarNamespace10WidgetTypeEP13QGraphicsItem @ 161 NONAME
	_ZN21CalenThickLinesDrawerC2EN17CalendarNamespace10WidgetTypeEP13QGraphicsItem @ 162 NONAME
	_ZN21CalenThickLinesDrawerD0Ev @ 163 NONAME
	_ZN21CalenThickLinesDrawerD1Ev @ 164 NONAME
	_ZN21CalenThickLinesDrawerD2Ev @ 165 NONAME
	_ZN22CalenDayHourScrollArea11qt_metacallEN11QMetaObject4CallEiPPv @ 166 NONAME
	_ZN22CalenDayHourScrollArea11qt_metacastEPKc @ 167 NONAME
	_ZN22CalenDayHourScrollArea11setDateTimeERK9QDateTime @ 168 NONAME
	_ZN22CalenDayHourScrollArea12scrollToHourEi @ 169 NONAME
	_ZN22CalenDayHourScrollArea13localeChangedEv @ 170 NONAME
	_ZN22CalenDayHourScrollArea16scrollVerticallyERK7QPointF @ 171 NONAME
	_ZN22CalenDayHourScrollArea16staticMetaObjectE @ 172 NONAME DATA 16
	_ZN22CalenDayHourScrollArea19getStaticMetaObjectEv @ 173 NONAME
	_ZN22CalenDayHourScrollArea19updateTimeIndicatorEv @ 174 NONAME
	_ZN22CalenDayHourScrollAreaC1EP13QGraphicsItem @ 175 NONAME
	_ZN22CalenDayHourScrollAreaC2EP13QGraphicsItem @ 176 NONAME
	_ZN22CalenDayHourScrollAreaD0Ev @ 177 NONAME
	_ZN22CalenDayHourScrollAreaD1Ev @ 178 NONAME
	_ZN22CalenDayHourScrollAreaD2Ev @ 179 NONAME
	_ZN25CalenDayContentScrollArea11eventFilterEP7QObjectP6QEvent @ 180 NONAME
	_ZN25CalenDayContentScrollArea11qt_metacallEN11QMetaObject4CallEiPPv @ 181 NONAME
	_ZN25CalenDayContentScrollArea11qt_metacastEPKc @ 182 NONAME
	_ZN25CalenDayContentScrollArea12gestureEventEP13QGestureEvent @ 183 NONAME
	_ZN25CalenDayContentScrollArea12moveFinishedEv @ 184 NONAME
	_ZN25CalenDayContentScrollArea14scrollByAmountERK7QPointF @ 185 NONAME
	_ZN25CalenDayContentScrollArea16staticMetaObjectE @ 186 NONAME DATA 16
	_ZN25CalenDayContentScrollArea17checkPanDirectionEP11QPanGesture @ 187 NONAME
	_ZN25CalenDayContentScrollArea18orientationChangedEN2Qt11OrientationE @ 188 NONAME
	_ZN25CalenDayContentScrollArea19getStaticMetaObjectEv @ 189 NONAME
	_ZN25CalenDayContentScrollArea20scrollToMiddleWidgetEv @ 190 NONAME
	_ZN25CalenDayContentScrollArea21scrollAreaMoveStartedE20CalenScrollDirection @ 191 NONAME
	_ZN25CalenDayContentScrollArea22scrollAreaMoveFinishedE20CalenScrollDirection @ 192 NONAME
	_ZN25CalenDayContentScrollArea28setDisallowedScrollDirectionE20CalenScrollDirection @ 193 NONAME
	_ZN25CalenDayContentScrollArea5eventEP6QEvent @ 194 NONAME
	_ZN25CalenDayContentScrollArea6moveToERK7QPointFi @ 195 NONAME
	_ZN25CalenDayContentScrollAreaC1EP13QGraphicsItem @ 196 NONAME
	_ZN25CalenDayContentScrollAreaC2EP13QGraphicsItem @ 197 NONAME
	_ZN25CalenDayContentScrollAreaD0Ev @ 198 NONAME
	_ZN25CalenDayContentScrollAreaD1Ev @ 199 NONAME
	_ZN25CalenDayContentScrollAreaD2Ev @ 200 NONAME
	_ZNK14CalenMonthGrid10metaObjectEv @ 201 NONAME
	_ZNK14CalenMonthView10metaObjectEv @ 202 NONAME
	_ZNK16CalenPreviewPane10metaObjectEv @ 203 NONAME
	_ZNK17CalenSettingsView10metaObjectEv @ 204 NONAME
	_ZNK21CalenThickLinesDrawer10metaObjectEv @ 205 NONAME
	_ZNK22CalenDayHourScrollArea10metaObjectEv @ 206 NONAME
	_ZNK22CalenDayHourScrollArea8dateTimeEv @ 207 NONAME
	_ZNK25CalenDayContentScrollArea10metaObjectEv @ 208 NONAME
	_ZNK25CalenDayContentScrollArea17isHorizontalSwipeEf @ 209 NONAME
	_ZNK25CalenDayContentScrollArea25disallowedScrollDirectionEv @ 210 NONAME
	_ZTI14CalenMonthGrid @ 211 NONAME
	_ZTI14CalenMonthView @ 212 NONAME
	_ZTI16CalenPreviewPane @ 213 NONAME
	_ZTI17CalenSettingsView @ 214 NONAME
	_ZTI21CalenThickLinesDrawer @ 215 NONAME
	_ZTI22CalenDayHourScrollArea @ 216 NONAME
	_ZTI25CalenDayContentScrollArea @ 217 NONAME
	_ZTV14CalenMonthGrid @ 218 NONAME
	_ZTV14CalenMonthView @ 219 NONAME
	_ZTV16CalenPreviewPane @ 220 NONAME
	_ZTV17CalenSettingsView @ 221 NONAME
	_ZTV21CalenThickLinesDrawer @ 222 NONAME
	_ZTV22CalenDayHourScrollArea @ 223 NONAME
	_ZTV25CalenDayContentScrollArea @ 224 NONAME
	_ZThn16_N12CalenDayViewD0Ev @ 225 NONAME
	_ZThn16_N12CalenDayViewD1Ev @ 226 NONAME
	_ZThn16_N14CalenMonthGridD0Ev @ 227 NONAME
	_ZThn16_N14CalenMonthGridD1Ev @ 228 NONAME
	_ZThn16_N14CalenMonthViewD0Ev @ 229 NONAME
	_ZThn16_N14CalenMonthViewD1Ev @ 230 NONAME
	_ZThn16_N15CalenAgendaViewD0Ev @ 231 NONAME
	_ZThn16_N15CalenAgendaViewD1Ev @ 232 NONAME
	_ZThn16_N16CalenPluginLabelD0Ev @ 233 NONAME
	_ZThn16_N16CalenPluginLabelD1Ev @ 234 NONAME
	_ZThn16_N16CalenPreviewPaneD0Ev @ 235 NONAME
	_ZThn16_N16CalenPreviewPaneD1Ev @ 236 NONAME
	_ZThn16_N17CalenSettingsViewD0Ev @ 237 NONAME
	_ZThn16_N17CalenSettingsViewD1Ev @ 238 NONAME
	_ZThn16_N21CalenAgendaViewWidgetD0Ev @ 239 NONAME
	_ZThn16_N21CalenAgendaViewWidgetD1Ev @ 240 NONAME
	_ZThn16_N21CalenThickLinesDrawerD0Ev @ 241 NONAME
	_ZThn16_N21CalenThickLinesDrawerD1Ev @ 242 NONAME
	_ZThn16_N22CalenDayHourScrollAreaD0Ev @ 243 NONAME
	_ZThn16_N22CalenDayHourScrollAreaD1Ev @ 244 NONAME
	_ZThn16_N25CalenDayContentScrollAreaD0Ev @ 245 NONAME
	_ZThn16_N25CalenDayContentScrollAreaD1Ev @ 246 NONAME
	_ZThn8_N12CalenDayViewD0Ev @ 247 NONAME
	_ZThn8_N12CalenDayViewD1Ev @ 248 NONAME
	_ZThn8_N14CalenMonthGrid15mousePressEventEP24QGraphicsSceneMouseEvent @ 249 NONAME
	_ZThn8_N14CalenMonthGrid17mouseReleaseEventEP24QGraphicsSceneMouseEvent @ 250 NONAME
	_ZThn8_N14CalenMonthGrid5paintEP8QPainterPK24QStyleOptionGraphicsItemP7QWidget @ 251 NONAME
	_ZThn8_N14CalenMonthGridD0Ev @ 252 NONAME
	_ZThn8_N14CalenMonthGridD1Ev @ 253 NONAME
	_ZThn8_N14CalenMonthViewD0Ev @ 254 NONAME
	_ZThn8_N14CalenMonthViewD1Ev @ 255 NONAME
	_ZThn8_N15CalenAgendaViewD0Ev @ 256 NONAME
	_ZThn8_N15CalenAgendaViewD1Ev @ 257 NONAME
	_ZThn8_N16CalenPluginLabelD0Ev @ 258 NONAME
	_ZThn8_N16CalenPluginLabelD1Ev @ 259 NONAME
	_ZThn8_N16CalenPreviewPaneD0Ev @ 260 NONAME
	_ZThn8_N16CalenPreviewPaneD1Ev @ 261 NONAME
	_ZThn8_N17CalenSettingsViewD0Ev @ 262 NONAME
	_ZThn8_N17CalenSettingsViewD1Ev @ 263 NONAME
	_ZThn8_N21CalenAgendaViewWidgetD0Ev @ 264 NONAME
	_ZThn8_N21CalenAgendaViewWidgetD1Ev @ 265 NONAME
	_ZThn8_N21CalenThickLinesDrawer5paintEP8QPainterPK24QStyleOptionGraphicsItemP7QWidget @ 266 NONAME
	_ZThn8_N21CalenThickLinesDrawerD0Ev @ 267 NONAME
	_ZThn8_N21CalenThickLinesDrawerD1Ev @ 268 NONAME
	_ZThn8_N22CalenDayHourScrollAreaD0Ev @ 269 NONAME
	_ZThn8_N22CalenDayHourScrollAreaD1Ev @ 270 NONAME
	_ZThn8_N25CalenDayContentScrollAreaD0Ev @ 271 NONAME
	_ZThn8_N25CalenDayContentScrollAreaD1Ev @ 272 NONAME

