EXPORTS
	_ZN18CIRReportGenerator10ReportSentEv @ 1 NONAME
	_ZN18CIRReportGenerator11SessionEndLEv @ 2 NONAME
	_ZN18CIRReportGenerator12LogSongRecogEv @ 3 NONAME
	_ZN18CIRReportGenerator13UpdateNmsTypeERK7TDesC16 @ 4 NONAME
	_ZN18CIRReportGenerator14NmsLogStartedLEv @ 5 NONAME
	_ZN18CIRReportGenerator15LogServerResultERK7TDesC169TResponse @ 6 NONAME
	_ZN18CIRReportGenerator15SessionStartedLEv @ 7 NONAME
	_ZN18CIRReportGenerator15UpdateChannelIDEi @ 8 NONAME
	_ZN18CIRReportGenerator16HandleStopEventsEi @ 9 NONAME
	_ZN18CIRReportGenerator16MarkSessionStartEv @ 10 NONAME
	_ZN18CIRReportGenerator17WriteNmsLogtoXmlLEv @ 11 NONAME
	_ZN18CIRReportGenerator18UpdateHomeOperatorEi @ 12 NONAME
	_ZN18CIRReportGenerator18UpdateNmsChannelIDEi @ 13 NONAME
	_ZN18CIRReportGenerator18UpdateTerminatedByE18TTerminationStatus @ 14 NONAME
	_ZN18CIRReportGenerator19SetDbStatusObserserEP22MIRLogDbStatusObserver @ 15 NONAME
	_ZN18CIRReportGenerator19UpdateConnectedFromE14TConnectedFrom @ 16 NONAME
	_ZN18CIRReportGenerator20UpdateConnectionTypeERK7TDesC16 @ 17 NONAME
	_ZN18CIRReportGenerator20UpdateCurrentNetworkEi @ 18 NONAME
	_ZN18CIRReportGenerator21UpdateNmsHomeOperatorEi @ 19 NONAME
	_ZN18CIRReportGenerator23ReponseFromISDSObtainedEv @ 20 NONAME
	_ZN18CIRReportGenerator23UpdateNmsCurrentNetworkEi @ 21 NONAME
	_ZN18CIRReportGenerator26UpdateCurrentBrowseNetworkEi @ 22 NONAME
	_ZN18CIRReportGenerator5OpenLEv @ 23 NONAME
	_ZN18CIRReportGenerator9BrowseUrlERK7TDesC16i @ 24 NONAME
	_ZN18CIRReportGenerator9LogBrowseERK6TDesC8i @ 25 NONAME
