EXPORTS
	_ZN17PrcPresenceReader10cancelReadEv @ 1 NONAME
	_ZN17PrcPresenceReader11qt_metacallEN11QMetaObject4CallEiPPv @ 2 NONAME
	_ZN17PrcPresenceReader11qt_metacastEPKc @ 3 NONAME
	_ZN17PrcPresenceReader12createReaderEv @ 4 NONAME
	_ZN17PrcPresenceReader12presenceInfoERK7QString @ 5 NONAME
	_ZN17PrcPresenceReader13servicesCountEv @ 6 NONAME
	_ZN17PrcPresenceReader16staticMetaObjectE @ 7 NONAME DATA 16
	_ZN17PrcPresenceReader18signalPresenceReadEb5QListIP22PrcPresenceBuddyInfoQtE @ 8 NONAME
	_ZN17PrcPresenceReader19buddyCountInServiceERK7QString @ 9 NONAME
	_ZN17PrcPresenceReader19getStaticMetaObjectEv @ 10 NONAME
	_ZN17PrcPresenceReader23buddyCountInAllServicesEv @ 11 NONAME
	_ZN17PrcPresenceReader26signalPresenceNotificationEbP22PrcPresenceBuddyInfoQt @ 12 NONAME
	_ZN17PrcPresenceReader27allBuddiesPresenceInServiceERK7QString @ 13 NONAME
	_ZN17PrcPresenceReader28subscribePresenceBuddyChangeERK7QString @ 14 NONAME
	_ZN17PrcPresenceReader30unSubscribePresenceBuddyChangeERK7QString @ 15 NONAME
	_ZN17PrcPresenceReaderC1Ev @ 16 NONAME
	_ZN17PrcPresenceReaderC2Ev @ 17 NONAME
	_ZN17PrcPresenceReaderD0Ev @ 18 NONAME
	_ZN17PrcPresenceReaderD1Ev @ 19 NONAME
	_ZN17PrcPresenceReaderD2Ev @ 20 NONAME
	_ZN17PrcPresenceWriter11cancelWriteEv @ 21 NONAME
	_ZN17PrcPresenceWriter11qt_metacallEN11QMetaObject4CallEiPPv @ 22 NONAME
	_ZN17PrcPresenceWriter11qt_metacastEPKc @ 23 NONAME
	_ZN17PrcPresenceWriter12createWriterEv @ 24 NONAME
	_ZN17PrcPresenceWriter13deleteServiceERK7QString @ 25 NONAME
	_ZN17PrcPresenceWriter13writePresenceERK22PrcPresenceBuddyInfoQt @ 26 NONAME
	_ZN17PrcPresenceWriter14deletePresenceERK7QString @ 27 NONAME
	_ZN17PrcPresenceWriter16staticMetaObjectE @ 28 NONAME DATA 16
	_ZN17PrcPresenceWriter19getStaticMetaObjectEv @ 29 NONAME
	_ZN17PrcPresenceWriter19signalPresenceWriteEb @ 30 NONAME
	_ZN17PrcPresenceWriter20newBuddyPresenceInfoEv @ 31 NONAME
	_ZN17PrcPresenceWriter21writeMultiplePresenceERK5QListIP22PrcPresenceBuddyInfoQtE @ 32 NONAME
	_ZN17PrcPresenceWriterC1Ev @ 33 NONAME
	_ZN17PrcPresenceWriterC2Ev @ 34 NONAME
	_ZN17PrcPresenceWriterD0Ev @ 35 NONAME
	_ZN17PrcPresenceWriterD1Ev @ 36 NONAME
	_ZN17PrcPresenceWriterD2Ev @ 37 NONAME
	_ZN22PrcPresenceBuddyInfoQt14createInstanceEv @ 38 NONAME
	_ZNK17PrcPresenceReader10metaObjectEv @ 39 NONAME
	_ZNK17PrcPresenceWriter10metaObjectEv @ 40 NONAME
	_ZTI17PrcPresenceReader @ 41 NONAME
	_ZTI17PrcPresenceWriter @ 42 NONAME
	_ZTV17PrcPresenceReader @ 43 NONAME
	_ZTV17PrcPresenceWriter @ 44 NONAME

