EXPORTS
	_ZN13CalenSettings11createModelEv @ 1 NONAME
	_ZN13CalenSettings11qt_metacallEN11QMetaObject4CallEiPPv @ 2 NONAME
	_ZN13CalenSettings11qt_metacastEPKc @ 3 NONAME
	_ZN13CalenSettings15isPluginEnabledEv @ 4 NONAME
	_ZN13CalenSettings16staticMetaObjectE @ 5 NONAME DATA 16
	_ZN13CalenSettings17addWeekNumberItemEv @ 6 NONAME
	_ZN13CalenSettings17setStartDayOfWeekEi @ 7 NONAME
	_ZN13CalenSettings18updateShowWeekItemEv @ 8 NONAME
	_ZN13CalenSettings19addRegionalInfoItemEv @ 9 NONAME
	_ZN13CalenSettings19getStaticMetaObjectEv @ 10 NONAME
	_ZN13CalenSettings19populateSettingListEv @ 11 NONAME
	_ZN13CalenSettings20populateRegionalInfoEv @ 12 NONAME
	_ZN13CalenSettings22handleWeekNumberChangeEv @ 13 NONAME
	_ZN13CalenSettings22removeRegionalInfoItemEv @ 14 NONAME
	_ZN13CalenSettings24handleRegionalInfoChangeEv @ 15 NONAME
	_ZN13CalenSettings27handleAlarmSnoozeTimeChangeEi @ 16 NONAME
	_ZN13CalenSettingsC1ER14MCalenServicesP10HbDataFormP7QObject @ 17 NONAME
	_ZN13CalenSettingsC2ER14MCalenServicesP10HbDataFormP7QObject @ 18 NONAME
	_ZN13CalenSettingsD0Ev @ 19 NONAME
	_ZN13CalenSettingsD1Ev @ 20 NONAME
	_ZN13CalenSettingsD2Ev @ 21 NONAME
	_ZNK13CalenSettings10metaObjectEv @ 22 NONAME
	_ZTI13CalenSettings @ 23 NONAME
	_ZTV13CalenSettings @ 24 NONAME

