EXPORTS
	?trUtf8@HsSnapLine@@SA?AVQString@@PBD0@Z @ 1 NONAME ; class QString HsSnapLine::trUtf8(char const *, char const *)
	?createOpenAppLibraryEvent@HsMenuEventFactory@@SAPAVQEvent@@W4HsMenuMode@Hs@@VQVariant@@@Z @ 2 NONAME ; class QEvent * HsMenuEventFactory::createOpenAppLibraryEvent(enum Hs::HsMenuMode, class QVariant)
	?trUtf8@HsTitleResolver@@SA?AVQString@@PBD0@Z @ 3 NONAME ; class QString HsTitleResolver::trUtf8(char const *, char const *)
	?tr@HsTitleResolver@@SA?AVQString@@PBD0@Z @ 4 NONAME ; class QString HsTitleResolver::tr(char const *, char const *)
	?setEasingCurve@HsPropertyAnimationWrapper@@QAEXABVQEasingCurve@@@Z @ 5 NONAME ; void HsPropertyAnimationWrapper::setEasingCurve(class QEasingCurve const &)
	?convert@HsAdvancedWidgetPositioningOnOrientationChange@@UAE?AV?$QList@VQRectF@@@@ABVQRectF@@ABV2@0@Z @ 6 NONAME ; class QList<class QRectF> HsAdvancedWidgetPositioningOnOrientationChange::convert(class QRectF const &, class QList<class QRectF> const &, class QRectF const &)
	?show@HsMessageBoxWrapper@@QAEXXZ @ 7 NONAME ; void HsMessageBoxWrapper::show(void)
	?staticMetaObject@HsPageIndicator@@2UQMetaObject@@B @ 8 NONAME ; struct QMetaObject const HsPageIndicator::staticMetaObject
	?qt_metacall@HsImageHandlingClient@@UAEHW4Call@QMetaObject@@HPAPAX@Z @ 9 NONAME ; int HsImageHandlingClient::qt_metacall(enum QMetaObject::Call, int, void * *)
	?createAddAppsFromCollectionViewEvent@HsMenuEventFactory@@SAPAVQEvent@@HH@Z @ 10 NONAME ; class QEvent * HsMenuEventFactory::createAddAppsFromCollectionViewEvent(int, int)
	?metaObject@HsTrashBinWidget@@UBEPBUQMetaObject@@XZ @ 11 NONAME ; struct QMetaObject const * HsTrashBinWidget::metaObject(void) const
	??1HsSnapLine@@UAE@XZ @ 12 NONAME ; HsSnapLine::~HsSnapLine(void)
	?trUtf8@HsSnapLine@@SA?AVQString@@PBD0H@Z @ 13 NONAME ; class QString HsSnapLine::trUtf8(char const *, char const *, int)
	?qt_metacall@HsTitleResolver@@UAEHW4Call@QMetaObject@@HPAPAX@Z @ 14 NONAME ; int HsTitleResolver::qt_metacall(enum QMetaObject::Call, int, void * *)
	?setInstance@HsWidgetPositioningOnWidgetMove@@SAXPAV1@@Z @ 15 NONAME ; void HsWidgetPositioningOnWidgetMove::setInstance(class HsWidgetPositioningOnWidgetMove *)
	?extendVerticalLineToIncludeInactiveRect@HsSnapToLines@@AAEXXZ @ 16 NONAME ; void HsSnapToLines::extendVerticalLineToIncludeInactiveRect(void)
	?handleOk@HsImageHandlingClient@@AAEXABVQVariant@@@Z @ 17 NONAME ; void HsImageHandlingClient::handleOk(class QVariant const &)
	?getFadeOutDuration@HsSnapLine@@AAEHXZ @ 18 NONAME ; int HsSnapLine::getFadeOutDuration(void)
	?eventType@HsMenuEvent@@SA?AW4Type@QEvent@@XZ @ 19 NONAME ; enum QEvent::Type HsMenuEvent::eventType(void)
	?createOpenInstalledViewEvent@HsMenuEventFactory@@SAPAVQEvent@@HVQString@@@Z @ 20 NONAME ; class QEvent * HsMenuEventFactory::createOpenInstalledViewEvent(int, class QString)
	?qt_metacast@HsPageIndicator@@UAEPAXPBD@Z @ 21 NONAME ; void * HsPageIndicator::qt_metacast(char const *)
	??0HsMessageBoxWrapper@@QAE@PAVQObject@@@Z @ 22 NONAME ; HsMessageBoxWrapper::HsMessageBoxWrapper(class QObject *)
	??0HsMenuEvent@@QAE@W4OperationType@0@ABV?$QMap@VQString@@VQVariant@@@@@Z @ 23 NONAME ; HsMenuEvent::HsMenuEvent(enum HsMenuEvent::OperationType, class QMap<class QString, class QVariant> const &)
	?actionOnFadeOutAnimationStop@HsSnapLine@@AAEXXZ @ 24 NONAME ; void HsSnapLine::actionOnFadeOutAnimationStop(void)
	?qt_metacall@HsMessageBoxWrapper@@UAEHW4Call@QMetaObject@@HPAPAX@Z @ 25 NONAME ; int HsMessageBoxWrapper::qt_metacall(enum QMetaObject::Call, int, void * *)
	?trUtf8@HsMessageBoxWrapper@@SA?AVQString@@PBD0@Z @ 26 NONAME ; class QString HsMessageBoxWrapper::trUtf8(char const *, char const *)
	?close@HsMessageBoxWrapper@@QAEXXZ @ 27 NONAME ; void HsMessageBoxWrapper::close(void)
	?qt_metacast@HsSnapLine@@UAEPAXPBD@Z @ 28 NONAME ; void * HsSnapLine::qt_metacast(char const *)
	?extendHorizontalLineToIncludeInactiveRect@HsSnapToLines@@AAEXXZ @ 29 NONAME ; void HsSnapToLines::extendHorizontalLineToIncludeInactiveRect(void)
	??1HsTitleResolver@@UAE@XZ @ 30 NONAME ; HsTitleResolver::~HsTitleResolver(void)
	?fetch@HsImageHandlingClient@@QAEXXZ @ 31 NONAME ; void HsImageHandlingClient::fetch(void)
	?acceptActionIndex@HsMenuDialogFactory@@SAHXZ @ 32 NONAME ; int HsMenuDialogFactory::acceptActionIndex(void)
	?trUtf8@HsSpinnerDialog@@SA?AVQString@@PBD0@Z @ 33 NONAME ; class QString HsSpinnerDialog::trUtf8(char const *, char const *)
	?checkInactiveRectBetterFitForHorizontalSnapping@HsSnapToLines@@AAEXMM@Z @ 34 NONAME ; void HsSnapToLines::checkInactiveRectBetterFitForHorizontalSnapping(float, float)
	?tr@HsPropertyAnimationWrapper@@SA?AVQString@@PBD0H@Z @ 35 NONAME ; class QString HsPropertyAnimationWrapper::tr(char const *, char const *, int)
	?setQueryText@HsMessageBoxWrapper@@QAEXABVQString@@@Z @ 36 NONAME ; void HsMessageBoxWrapper::setQueryText(class QString const &)
	??1HsMenuEventTransition@@UAE@XZ @ 37 NONAME ; HsMenuEventTransition::~HsMenuEventTransition(void)
	?tr@HsSpinnerDialog@@SA?AVQString@@PBD0@Z @ 38 NONAME ; class QString HsSpinnerDialog::tr(char const *, char const *)
	?fadeInAnimationFinished@HsSnapLine@@AAEXXZ @ 39 NONAME ; void HsSnapLine::fadeInAnimationFinished(void)
	?checkInactiveRectLieAboveOrBelowOfMovingRect@HsSnapToLines@@AAEXXZ @ 40 NONAME ; void HsSnapToLines::checkInactiveRectLieAboveOrBelowOfMovingRect(void)
	?setHeader@HsMessageBoxWrapper@@QAEXABVQString@@@Z @ 41 NONAME ; void HsMessageBoxWrapper::setHeader(class QString const &)
	?setSpacing@HsPageIndicator@@QAEXM@Z @ 42 NONAME ; void HsPageIndicator::setSpacing(float)
	?qt_metacast@HsPropertyAnimationWrapper@@UAEPAXPBD@Z @ 43 NONAME ; void * HsPropertyAnimationWrapper::qt_metacast(char const *)
	?createPreviewHSWidgetEvent@HsMenuEventFactory@@SAPAVQEvent@@HABVQString@@00@Z @ 44 NONAME ; class QEvent * HsMenuEventFactory::createPreviewHSWidgetEvent(int, class QString const &, class QString const &, class QString const &)
	??1HsMenuEvent@@UAE@XZ @ 45 NONAME ; HsMenuEvent::~HsMenuEvent(void)
	?tr@HsMessageBoxWrapper@@SA?AVQString@@PBD0@Z @ 46 NONAME ; class QString HsMessageBoxWrapper::tr(char const *, char const *)
	?createCollectionDeletedEvent@HsMenuEventFactory@@SAPAVQEvent@@XZ @ 47 NONAME ; class QEvent * HsMenuEventFactory::createCollectionDeletedEvent(void)
	?tr@HsImageGridWidget@@SA?AVQString@@PBD0@Z @ 48 NONAME ; class QString HsImageGridWidget::tr(char const *, char const *)
	?createUninstallApplicationEvent@HsMenuEventFactory@@SAPAVQEvent@@H@Z @ 49 NONAME ; class QEvent * HsMenuEventFactory::createUninstallApplicationEvent(int)
	?data@HsMenuEvent@@QBE?AV?$QMap@VQString@@VQVariant@@@@XZ @ 50 NONAME ; class QMap<class QString, class QVariant> HsMenuEvent::data(void) const
	??1HsMenuDialogFactory@@UAE@XZ @ 51 NONAME ; HsMenuDialogFactory::~HsMenuDialogFactory(void)
	?operation@HsMenuEvent@@QBE?AW4OperationType@1@XZ @ 52 NONAME ; enum HsMenuEvent::OperationType HsMenuEvent::operation(void) const
	?setBackward@HsPropertyAnimationWrapper@@QAEXXZ @ 53 NONAME ; void HsPropertyAnimationWrapper::setBackward(void)
	?qt_metacast@HsSpinnerDialog@@UAEPAXPBD@Z @ 54 NONAME ; void * HsSpinnerDialog::qt_metacast(char const *)
	?getStaticMetaObject@HsPageIndicator@@SAABUQMetaObject@@XZ @ 55 NONAME ; struct QMetaObject const & HsPageIndicator::getStaticMetaObject(void)
	?compareBottomOfMovingRectForSnapping@HsSnapToLines@@AAEXXZ @ 56 NONAME ; void HsSnapToLines::compareBottomOfMovingRectForSnapping(void)
	?createUnknownEvent@HsMenuEventFactory@@SAPAVQEvent@@XZ @ 57 NONAME ; class QEvent * HsMenuEventFactory::createUnknownEvent(void)
	??1HsPropertyAnimationWrapper@@UAE@XZ @ 58 NONAME ; HsPropertyAnimationWrapper::~HsPropertyAnimationWrapper(void)
	?onNetworkNameChanged@HsTitleResolver@@AAEXABVQString@@@Z @ 59 NONAME ; void HsTitleResolver::onNetworkNameChanged(class QString const &)
	?metaObject@HsMessageBoxWrapper@@UBEPBUQMetaObject@@XZ @ 60 NONAME ; struct QMetaObject const * HsMessageBoxWrapper::metaObject(void) const
	?createAppDetailsViewEvent@HsMenuEventFactory@@SAPAVQEvent@@H@Z @ 61 NONAME ; class QEvent * HsMenuEventFactory::createAppDetailsViewEvent(int)
	?setEndValue@HsPropertyAnimationWrapper@@QAEXABVQVariant@@@Z @ 62 NONAME ; void HsPropertyAnimationWrapper::setEndValue(class QVariant const &)
	??_EHsSnapLine@@UAE@I@Z @ 63 NONAME ; HsSnapLine::~HsSnapLine(unsigned int)
	?setContent@HsImageGridWidget@@QAEXABVQStringList@@@Z @ 64 NONAME ; void HsImageGridWidget::setContent(class QStringList const &)
	?staticMetaObject@XQAIWGetImageClient@@2UQMetaObject@@B @ 65 NONAME ; struct QMetaObject const XQAIWGetImageClient::staticMetaObject
	?qt_metacall@HsPropertyAnimationWrapper@@UAEHW4Call@QMetaObject@@HPAPAX@Z @ 66 NONAME ; int HsPropertyAnimationWrapper::qt_metacall(enum QMetaObject::Call, int, void * *)
	?handleError@HsImageHandlingClient@@AAEXHABVQString@@@Z @ 67 NONAME ; void HsImageHandlingClient::handleError(int, class QString const &)
	?qt_metacast@HsMessageBoxWrapper@@UAEPAXPBD@Z @ 68 NONAME ; void * HsMessageBoxWrapper::qt_metacast(char const *)
	?createArrangeAllCollectionsEvent@HsMenuEventFactory@@SAPAVQEvent@@H@Z @ 69 NONAME ; class QEvent * HsMenuEventFactory::createArrangeAllCollectionsEvent(int)
	?rejectActionIndex@HsMenuDialogFactory@@SAHXZ @ 70 NONAME ; int HsMenuDialogFactory::rejectActionIndex(void)
	?fetch@XQAIWGetImageClient@@QAEXXZ @ 71 NONAME ; void XQAIWGetImageClient::fetch(void)
	?metaObject@HsPropertyAnimationWrapper@@UBEPBUQMetaObject@@XZ @ 72 NONAME ; struct QMetaObject const * HsPropertyAnimationWrapper::metaObject(void) const
	?isAnimationRunning@HsPageIndicator@@QBE_NXZ @ 73 NONAME ; bool HsPageIndicator::isAnimationRunning(void) const
	?createAppSettingsViewEvent@HsMenuEventFactory@@SAPAVQEvent@@H@Z @ 74 NONAME ; class QEvent * HsMenuEventFactory::createAppSettingsViewEvent(int)
	?trUtf8@HsImageGridWidget@@SA?AVQString@@PBD0@Z @ 75 NONAME ; class QString HsImageGridWidget::trUtf8(char const *, char const *)
	??0HsImageHandlingClient@@QAE@PAVQObject@@@Z @ 76 NONAME ; HsImageHandlingClient::HsImageHandlingClient(class QObject *)
	?staticMetaObject@HsImageHandlingClient@@2UQMetaObject@@B @ 77 NONAME ; struct QMetaObject const HsImageHandlingClient::staticMetaObject
	?createDeleteCollectionEvent@HsMenuEventFactory@@SAPAVQEvent@@H@Z @ 78 NONAME ; class QEvent * HsMenuEventFactory::createDeleteCollectionEvent(int)
	?edit@HsImageHandlingClient@@QAEXABVQString@@@Z @ 79 NONAME ; void HsImageHandlingClient::edit(class QString const &)
	?trUtf8@HsSpinnerDialog@@SA?AVQString@@PBD0H@Z @ 80 NONAME ; class QString HsSpinnerDialog::trUtf8(char const *, char const *, int)
	?metaObject@XQAIWGetImageClient@@UBEPBUQMetaObject@@XZ @ 81 NONAME ; struct QMetaObject const * XQAIWGetImageClient::metaObject(void) const
	?fadeOutAnimationFinished@HsSnapLine@@AAEXXZ @ 82 NONAME ; void HsSnapLine::fadeOutAnimationFinished(void)
	?getStaticMetaObject@HsPropertyAnimationWrapper@@SAABUQMetaObject@@XZ @ 83 NONAME ; struct QMetaObject const & HsPropertyAnimationWrapper::getStaticMetaObject(void)
	?trUtf8@HsTitleResolver@@SA?AVQString@@PBD0H@Z @ 84 NONAME ; class QString HsTitleResolver::trUtf8(char const *, char const *, int)
	??0HsSnapToLines@@QAE@XZ @ 85 NONAME ; HsSnapToLines::HsSnapToLines(void)
	?trUtf8@HsTrashBinWidget@@SA?AVQString@@PBD0@Z @ 86 NONAME ; class QString HsTrashBinWidget::trUtf8(char const *, char const *)
	?activate@HsTrashBinWidget@@QAEXXZ @ 87 NONAME ; void HsTrashBinWidget::activate(void)
	??1HsSpinnerDialog@@UAE@XZ @ 88 NONAME ; HsSpinnerDialog::~HsSpinnerDialog(void)
	?checkInactiveRectPositionToHorizontalLine@HsSnapToLines@@AAEXXZ @ 89 NONAME ; void HsSnapToLines::checkInactiveRectPositionToHorizontalLine(void)
	?qt_metacall@HsPageIndicator@@UAEHW4Call@QMetaObject@@HPAPAX@Z @ 90 NONAME ; int HsPageIndicator::qt_metacall(enum QMetaObject::Call, int, void * *)
	?trUtf8@HsImageHandlingClient@@SA?AVQString@@PBD0H@Z @ 91 NONAME ; class QString HsImageHandlingClient::trUtf8(char const *, char const *, int)
	?setInstance@HsWidgetPositioningOnOrientationChange@@SAXPAV1@@Z @ 92 NONAME ; void HsWidgetPositioningOnOrientationChange::setInstance(class HsWidgetPositioningOnOrientationChange *)
	?run@HsSnapToLines@@UAE?AVResult@HsWidgetPositioningOnWidgetMove@@ABVQRectF@@@Z @ 93 NONAME ; class HsWidgetPositioningOnWidgetMove::Result HsSnapToLines::run(class QRectF const &)
	?staticMetaObject@HsPropertyAnimationWrapper@@2UQMetaObject@@B @ 94 NONAME ; struct QMetaObject const HsPropertyAnimationWrapper::staticMetaObject
	?fetchFailed@HsImageHandlingClient@@IAEXHABVQString@@@Z @ 95 NONAME ; void HsImageHandlingClient::fetchFailed(int, class QString const &)
	?createOpenCollectionFromAppLibraryEvent@HsMenuEventFactory@@SAPAVQEvent@@HABVQString@@@Z @ 96 NONAME ; class QEvent * HsMenuEventFactory::createOpenCollectionFromAppLibraryEvent(int, class QString const &)
	?staticMetaObject@HsSnapLine@@2UQMetaObject@@B @ 97 NONAME ; struct QMetaObject const HsSnapLine::staticMetaObject
	?start@HsPropertyAnimationWrapper@@QAEXXZ @ 98 NONAME ; void HsPropertyAnimationWrapper::start(void)
	??_EHsTrashBinWidget@@UAE@I@Z @ 99 NONAME ; HsTrashBinWidget::~HsTrashBinWidget(unsigned int)
	?startFadeInAnimation@HsSnapLine@@AAEXXZ @ 100 NONAME ; void HsSnapLine::startFadeInAnimation(void)
	?tr@HsImageHandlingClient@@SA?AVQString@@PBD0H@Z @ 101 NONAME ; class QString HsImageHandlingClient::tr(char const *, char const *, int)
	?metaObject@HsSnapLine@@UBEPBUQMetaObject@@XZ @ 102 NONAME ; struct QMetaObject const * HsSnapLine::metaObject(void) const
	??1XQAIWGetImageClient@@UAE@XZ @ 103 NONAME ; XQAIWGetImageClient::~XQAIWGetImageClient(void)
	??_EHsPropertyAnimationWrapper@@UAE@I@Z @ 104 NONAME ; HsPropertyAnimationWrapper::~HsPropertyAnimationWrapper(unsigned int)
	?activeItemIndex@HsPageIndicator@@QBEHXZ @ 105 NONAME ; int HsPageIndicator::activeItemIndex(void) const
	?isFadeInAnimationRunning@HsSnapLine@@ABE_NXZ @ 106 NONAME ; bool HsSnapLine::isFadeInAnimationRunning(void) const
	?qt_metacall@HsSnapLine@@UAEHW4Call@QMetaObject@@HPAPAX@Z @ 107 NONAME ; int HsSnapLine::qt_metacall(enum QMetaObject::Call, int, void * *)
	?layoutItems@HsPageIndicator@@AAEXXZ @ 108 NONAME ; void HsPageIndicator::layoutItems(void)
	?trUtf8@HsMessageBoxWrapper@@SA?AVQString@@PBD0H@Z @ 109 NONAME ; class QString HsMessageBoxWrapper::trUtf8(char const *, char const *, int)
	?metaObject@HsSpinnerDialog@@UBEPBUQMetaObject@@XZ @ 110 NONAME ; struct QMetaObject const * HsSpinnerDialog::metaObject(void) const
	?getStaticMetaObject@HsImageGridWidget@@SAABUQMetaObject@@XZ @ 111 NONAME ; struct QMetaObject const & HsImageGridWidget::getStaticMetaObject(void)
	?trUtf8@HsImageHandlingClient@@SA?AVQString@@PBD0@Z @ 112 NONAME ; class QString HsImageHandlingClient::trUtf8(char const *, char const *)
	?setConfiguration@HsSnapToLines@@UAEXABV?$QHash@VQString@@VQVariant@@@@@Z @ 113 NONAME ; void HsSnapToLines::setConfiguration(class QHash<class QString, class QVariant> const &)
	??_EHsImageHandlingClient@@UAE@I@Z @ 114 NONAME ; HsImageHandlingClient::~HsImageHandlingClient(unsigned int)
	?trUtf8@HsPageIndicator@@SA?AVQString@@PBD0@Z @ 115 NONAME ; class QString HsPageIndicator::trUtf8(char const *, char const *)
	?metaObject@HsTitleResolver@@UBEPBUQMetaObject@@XZ @ 116 NONAME ; struct QMetaObject const * HsTitleResolver::metaObject(void) const
	?titleChanged@HsTitleResolver@@IAEXABVQString@@@Z @ 117 NONAME ; void HsTitleResolver::titleChanged(class QString const &)
	?tr@HsPageIndicator@@SA?AVQString@@PBD0@Z @ 118 NONAME ; class QString HsPageIndicator::tr(char const *, char const *)
	?tr@HsPropertyAnimationWrapper@@SA?AVQString@@PBD0@Z @ 119 NONAME ; class QString HsPropertyAnimationWrapper::tr(char const *, char const *)
	?onStatusChanged@HsTitleResolver@@AAEXW4HsDeviceInfoStatus@HsDeviceInfoListener@@@Z @ 120 NONAME ; void HsTitleResolver::onStatusChanged(enum HsDeviceInfoListener::HsDeviceInfoStatus)
	?createUninstallFailedEvent@HsMenuEventFactory@@SAPAVQEvent@@H@Z @ 121 NONAME ; class QEvent * HsMenuEventFactory::createUninstallFailedEvent(int)
	?createVerticalLine@HsSnapToLines@@AAEXXZ @ 122 NONAME ; void HsSnapToLines::createVerticalLine(void)
	?trUtf8@XQAIWGetImageClient@@SA?AVQString@@PBD0H@Z @ 123 NONAME ; class QString XQAIWGetImageClient::trUtf8(char const *, char const *, int)
	?actionOnFadeInAnimationStop@HsSnapLine@@AAEXXZ @ 124 NONAME ; void HsSnapLine::actionOnFadeInAnimationStop(void)
	?qt_metacast@HsTrashBinWidget@@UAEPAXPBD@Z @ 125 NONAME ; void * HsTrashBinWidget::qt_metacast(char const *)
	?createNewCollectionEvent@HsMenuEventFactory@@SAPAVQEvent@@XZ @ 126 NONAME ; class QEvent * HsMenuEventFactory::createNewCollectionEvent(void)
	?createOpenHomeScreenEvent@HsMenuEventFactory@@SAPAVQEvent@@XZ @ 127 NONAME ; class QEvent * HsMenuEventFactory::createOpenHomeScreenEvent(void)
	?checkInactiveRectPositionToVerticalLine@HsSnapToLines@@AAEXXZ @ 128 NONAME ; void HsSnapToLines::checkInactiveRectPositionToVerticalLine(void)
	?metaObject@HsImageHandlingClient@@UBEPBUQMetaObject@@XZ @ 129 NONAME ; struct QMetaObject const * HsImageHandlingClient::metaObject(void) const
	?findImages@XQAIWGetImageClient@@AAEXABVQString@@ABVQStringList@@AAV3@@Z @ 130 NONAME ; void XQAIWGetImageClient::findImages(class QString const &, class QStringList const &, class QStringList &)
	??_EHsMenuDialogFactory@@UAE@I@Z @ 131 NONAME ; HsMenuDialogFactory::~HsMenuDialogFactory(unsigned int)
	?createInstallationLogEvent@HsMenuEventFactory@@SAPAVQEvent@@XZ @ 132 NONAME ; class QEvent * HsMenuEventFactory::createInstallationLogEvent(void)
	?extendVerticalLine@HsSnapToLines@@AAEXXZ @ 133 NONAME ; void HsSnapToLines::extendVerticalLine(void)
	?stop@HsSpinnerDialog@@QAEXXZ @ 134 NONAME ; void HsSpinnerDialog::stop(void)
	?stop@HsPropertyAnimationWrapper@@QAEXXZ @ 135 NONAME ; void HsPropertyAnimationWrapper::stop(void)
	?tr@HsSpinnerDialog@@SA?AVQString@@PBD0H@Z @ 136 NONAME ; class QString HsSpinnerDialog::tr(char const *, char const *, int)
	?getStaticMetaObject@HsSnapLine@@SAABUQMetaObject@@XZ @ 137 NONAME ; struct QMetaObject const & HsSnapLine::getStaticMetaObject(void)
	?tr@HsTitleResolver@@SA?AVQString@@PBD0H@Z @ 138 NONAME ; class QString HsTitleResolver::tr(char const *, char const *, int)
	?setPropertyName@HsPropertyAnimationWrapper@@QAEXABVQByteArray@@@Z @ 139 NONAME ; void HsPropertyAnimationWrapper::setPropertyName(class QByteArray const &)
	?checkInactiveRectBetterFitForVerticalSnapping@HsSnapToLines@@AAEXMM@Z @ 140 NONAME ; void HsSnapToLines::checkInactiveRectBetterFitForVerticalSnapping(float, float)
	?onDialogClosed@HsMessageBoxWrapper@@AAEXH@Z @ 141 NONAME ; void HsMessageBoxWrapper::onDialogClosed(int)
	?createRenameCollectionEvent@HsMenuEventFactory@@SAPAVQEvent@@H@Z @ 142 NONAME ; class QEvent * HsMenuEventFactory::createRenameCollectionEvent(int)
	?tr@HsTrashBinWidget@@SA?AVQString@@PBD0@Z @ 143 NONAME ; class QString HsTrashBinWidget::tr(char const *, char const *)
	?getStaticMetaObject@XQAIWGetImageClient@@SAABUQMetaObject@@XZ @ 144 NONAME ; struct QMetaObject const & XQAIWGetImageClient::getStaticMetaObject(void)
	?getStaticMetaObject@HsTrashBinWidget@@SAABUQMetaObject@@XZ @ 145 NONAME ; struct QMetaObject const & HsTrashBinWidget::getStaticMetaObject(void)
	?removeItem@HsPageIndicator@@QAEXH@Z @ 146 NONAME ; void HsPageIndicator::removeItem(int)
	?mInstance@HsWidgetPositioningOnOrientationChange@@0PAV1@A @ 147 NONAME ; class HsWidgetPositioningOnOrientationChange * HsWidgetPositioningOnOrientationChange::mInstance
	?staticMetaObject@HsSpinnerDialog@@2UQMetaObject@@B @ 148 NONAME ; struct QMetaObject const HsSpinnerDialog::staticMetaObject
	?setDuration@HsPropertyAnimationWrapper@@QAEXH@Z @ 149 NONAME ; void HsPropertyAnimationWrapper::setDuration(int)
	??_EXQAIWGetImageClient@@UAE@I@Z @ 150 NONAME ; XQAIWGetImageClient::~XQAIWGetImageClient(unsigned int)
	??_EHsMessageBoxWrapper@@UAE@I@Z @ 151 NONAME ; HsMessageBoxWrapper::~HsMessageBoxWrapper(unsigned int)
	?tr@HsTrashBinWidget@@SA?AVQString@@PBD0H@Z @ 152 NONAME ; class QString HsTrashBinWidget::tr(char const *, char const *, int)
	?setTargetObject@HsPropertyAnimationWrapper@@QAEXPAVQObject@@@Z @ 153 NONAME ; void HsPropertyAnimationWrapper::setTargetObject(class QObject *)
	??0HsTrashBinWidget@@QAE@PAVQGraphicsItem@@@Z @ 154 NONAME ; HsTrashBinWidget::HsTrashBinWidget(class QGraphicsItem *)
	?compareLeftSideOfMovingRectForSnapping@HsSnapToLines@@AAEXXZ @ 155 NONAME ; void HsSnapToLines::compareLeftSideOfMovingRectForSnapping(void)
	?instance@HsWidgetPositioningOnWidgetMove@@SAPAV1@XZ @ 156 NONAME ; class HsWidgetPositioningOnWidgetMove * HsWidgetPositioningOnWidgetMove::instance(void)
	?staticMetaObject@HsMessageBoxWrapper@@2UQMetaObject@@B @ 157 NONAME ; struct QMetaObject const HsMessageBoxWrapper::staticMetaObject
	?start@HsSpinnerDialog@@QAEXXZ @ 158 NONAME ; void HsSpinnerDialog::start(void)
	?isFadeOutAnimationRunning@HsSnapLine@@ABE_NXZ @ 159 NONAME ; bool HsSnapLine::isFadeOutAnimationRunning(void) const
	?trUtf8@HsPropertyAnimationWrapper@@SA?AVQString@@PBD0@Z @ 160 NONAME ; class QString HsPropertyAnimationWrapper::trUtf8(char const *, char const *)
	?createSnappableRectangles@HsSnapToLines@@AAEXABV?$QList@VQRectF@@@@@Z @ 161 NONAME ; void HsSnapToLines::createSnappableRectangles(class QList<class QRectF> const &)
	?staticMetaObject@HsImageGridWidget@@2UQMetaObject@@B @ 162 NONAME ; struct QMetaObject const HsImageGridWidget::staticMetaObject
	??_EHsTitleResolver@@UAE@I@Z @ 163 NONAME ; HsTitleResolver::~HsTitleResolver(unsigned int)
	?setForward@HsPropertyAnimationWrapper@@QAEXXZ @ 164 NONAME ; void HsPropertyAnimationWrapper::setForward(void)
	??1HsSnapToLines@@UAE@XZ @ 165 NONAME ; HsSnapToLines::~HsSnapToLines(void)
	?staticMetaObject@HsTrashBinWidget@@2UQMetaObject@@B @ 166 NONAME ; struct QMetaObject const HsTrashBinWidget::staticMetaObject
	?title@HsTitleResolver@@QAE?AVQString@@XZ @ 167 NONAME ; class QString HsTitleResolver::title(void)
	?handleEditorError@HsImageHandlingClient@@AAEXHABVQString@@@Z @ 168 NONAME ; void HsImageHandlingClient::handleEditorError(int, class QString const &)
	??_EHsMenuEventTransition@@UAE@I@Z @ 169 NONAME ; HsMenuEventTransition::~HsMenuEventTransition(unsigned int)
	?tr@HsSnapLine@@SA?AVQString@@PBD0@Z @ 170 NONAME ; class QString HsSnapLine::tr(char const *, char const *)
	?setPagePresentation@HsSnapToLines@@UAEXABVQRectF@@ABV?$QList@VQRectF@@@@0@Z @ 171 NONAME ; void HsSnapToLines::setPagePresentation(class QRectF const &, class QList<class QRectF> const &, class QRectF const &)
	?trUtf8@HsTrashBinWidget@@SA?AVQString@@PBD0H@Z @ 172 NONAME ; class QString HsTrashBinWidget::trUtf8(char const *, char const *, int)
	??_EHsMenuEvent@@UAE@I@Z @ 173 NONAME ; HsMenuEvent::~HsMenuEvent(unsigned int)
	??1HsTrashBinWidget@@UAE@XZ @ 174 NONAME ; HsTrashBinWidget::~HsTrashBinWidget(void)
	?compareTopOfMovingRectForSnapping@HsSnapToLines@@AAEXXZ @ 175 NONAME ; void HsSnapToLines::compareTopOfMovingRectForSnapping(void)
	??_EHsSnapToLines@@UAE@I@Z @ 176 NONAME ; HsSnapToLines::~HsSnapToLines(unsigned int)
	??1HsImageHandlingClient@@UAE@XZ @ 177 NONAME ; HsImageHandlingClient::~HsImageHandlingClient(void)
	?itemCount@HsPageIndicator@@QBEHXZ @ 178 NONAME ; int HsPageIndicator::itemCount(void) const
	?checkInactiveRectLieLeftOrRightOfMovingRect@HsSnapToLines@@AAEXXZ @ 179 NONAME ; void HsSnapToLines::checkInactiveRectLieLeftOrRightOfMovingRect(void)
	?createAddAppsFromApplicationsViewEvent@HsMenuEventFactory@@SAPAVQEvent@@W4HsSortAttribute@Hs@@H@Z @ 180 NONAME ; class QEvent * HsMenuEventFactory::createAddAppsFromApplicationsViewEvent(enum Hs::HsSortAttribute, int)
	??1HsWidgetPositioningOnOrientationChange@@UAE@XZ @ 181 NONAME ; HsWidgetPositioningOnOrientationChange::~HsWidgetPositioningOnOrientationChange(void)
	?metaObject@HsImageGridWidget@@UBEPBUQMetaObject@@XZ @ 182 NONAME ; struct QMetaObject const * HsImageGridWidget::metaObject(void) const
	?checkInactiveRectVerticalEdgesInRange@HsSnapToLines@@AAEXM@Z @ 183 NONAME ; void HsSnapToLines::checkInactiveRectVerticalEdgesInRange(float)
	?imageSelectionCancelled@XQAIWGetImageClient@@AAEXXZ @ 184 NONAME ; void XQAIWGetImageClient::imageSelectionCancelled(void)
	?gridItemActivated@HsImageGridWidget@@AAEXABVQModelIndex@@@Z @ 185 NONAME ; void HsImageGridWidget::gridItemActivated(class QModelIndex const &)
	?createRemoveAppFromCollectionEvent@HsMenuEventFactory@@SAPAVQEvent@@HH@Z @ 186 NONAME ; class QEvent * HsMenuEventFactory::createRemoveAppFromCollectionEvent(int, int)
	?fetchCompleted@HsImageHandlingClient@@IAEXABVQString@@@Z @ 187 NONAME ; void HsImageHandlingClient::fetchCompleted(class QString const &)
	??1HsWidgetPositioningOnWidgetMove@@UAE@XZ @ 188 NONAME ; HsWidgetPositioningOnWidgetMove::~HsWidgetPositioningOnWidgetMove(void)
	?handleEditorOk@HsImageHandlingClient@@AAEXABVQVariant@@@Z @ 189 NONAME ; void HsImageHandlingClient::handleEditorOk(class QVariant const &)
	??0HsSpinnerDialog@@QAE@PAVQGraphicsItem@@@Z @ 190 NONAME ; HsSpinnerDialog::HsSpinnerDialog(class QGraphicsItem *)
	?trUtf8@HsPageIndicator@@SA?AVQString@@PBD0H@Z @ 191 NONAME ; class QString HsPageIndicator::trUtf8(char const *, char const *, int)
	?createOpenCollectionEvent@HsMenuEventFactory@@SAPAVQEvent@@HABVQString@@@Z @ 192 NONAME ; class QEvent * HsMenuEventFactory::createOpenCollectionEvent(int, class QString const &)
	?initialize@HsPageIndicator@@QAEXHH@Z @ 193 NONAME ; void HsPageIndicator::initialize(int, int)
	??1HsPageIndicator@@UAE@XZ @ 194 NONAME ; HsPageIndicator::~HsPageIndicator(void)
	?instance@HsWidgetPositioningOnOrientationChange@@SAPAV1@XZ @ 195 NONAME ; class HsWidgetPositioningOnOrientationChange * HsWidgetPositioningOnOrientationChange::instance(void)
	?createAddToHomeScreenEvent@HsMenuEventFactory@@SAPAVQEvent@@HW4HsMenuMode@Hs@@VQVariant@@@Z @ 196 NONAME ; class QEvent * HsMenuEventFactory::createAddToHomeScreenEvent(int, enum Hs::HsMenuMode, class QVariant)
	?createBackFromInstalledViewEvent@HsMenuEventFactory@@SAPAVQEvent@@HVQString@@@Z @ 197 NONAME ; class QEvent * HsMenuEventFactory::createBackFromInstalledViewEvent(int, class QString)
	?getFadeInDuration@HsSnapLine@@AAEHXZ @ 198 NONAME ; int HsSnapLine::getFadeInDuration(void)
	?fetchCompleted@XQAIWGetImageClient@@IAEXABVQString@@@Z @ 199 NONAME ; void XQAIWGetImageClient::fetchCompleted(class QString const &)
	?requestCompleted@XQAIWGetImageClient@@AAEXABVQVariant@@@Z @ 200 NONAME ; void XQAIWGetImageClient::requestCompleted(class QVariant const &)
	?accepted@HsMessageBoxWrapper@@IAEXXZ @ 201 NONAME ; void HsMessageBoxWrapper::accepted(void)
	?getStaticMetaObject@HsMessageBoxWrapper@@SAABUQMetaObject@@XZ @ 202 NONAME ; struct QMetaObject const & HsMessageBoxWrapper::getStaticMetaObject(void)
	?qt_metacast@XQAIWGetImageClient@@UAEPAXPBD@Z @ 203 NONAME ; void * XQAIWGetImageClient::qt_metacast(char const *)
	??_EHsImageGridWidget@@UAE@I@Z @ 204 NONAME ; HsImageGridWidget::~HsImageGridWidget(unsigned int)
	?hideLine@HsSnapLine@@QAEXXZ @ 205 NONAME ; void HsSnapLine::hideLine(void)
	?metaObject@HsPageIndicator@@UBEPBUQMetaObject@@XZ @ 206 NONAME ; struct QMetaObject const * HsPageIndicator::metaObject(void) const
	?imageSelected@XQAIWGetImageClient@@AAEXABVQString@@@Z @ 207 NONAME ; void XQAIWGetImageClient::imageSelected(class QString const &)
	?setActiveItemIndex@HsPageIndicator@@QAEXH@Z @ 208 NONAME ; void HsPageIndicator::setActiveItemIndex(int)
	?trUtf8@HsImageGridWidget@@SA?AVQString@@PBD0H@Z @ 209 NONAME ; class QString HsImageGridWidget::trUtf8(char const *, char const *, int)
	??0HsSnapLine@@QAE@PAVQGraphicsItem@@@Z @ 210 NONAME ; HsSnapLine::HsSnapLine(class QGraphicsItem *)
	?getStaticMetaObject@HsImageHandlingClient@@SAABUQMetaObject@@XZ @ 211 NONAME ; struct QMetaObject const & HsImageHandlingClient::getStaticMetaObject(void)
	?startFadeOutAnimation@HsSnapLine@@AAEXXZ @ 212 NONAME ; void HsSnapLine::startFadeOutAnimation(void)
	?editorFailed@HsImageHandlingClient@@IAEXHABVQString@@@Z @ 213 NONAME ; void HsImageHandlingClient::editorFailed(int, class QString const &)
	?editorCompleted@HsImageHandlingClient@@IAEXXZ @ 214 NONAME ; void HsImageHandlingClient::editorCompleted(void)
	?imageSelected@HsImageGridWidget@@IAEXABVQString@@@Z @ 215 NONAME ; void HsImageGridWidget::imageSelected(class QString const &)
	?getStaticMetaObject@HsTitleResolver@@SAABUQMetaObject@@XZ @ 216 NONAME ; struct QMetaObject const & HsTitleResolver::getStaticMetaObject(void)
	?trUtf8@XQAIWGetImageClient@@SA?AVQString@@PBD0@Z @ 217 NONAME ; class QString XQAIWGetImageClient::trUtf8(char const *, char const *)
	?stopFadeInAnimation@HsSnapLine@@AAEXXZ @ 218 NONAME ; void HsSnapLine::stopFadeInAnimation(void)
	?create@HsMenuDialogFactory@@UBEPAVHbMessageBox@@ABVQString@@W4Options@1@@Z @ 219 NONAME ; class HbMessageBox * HsMenuDialogFactory::create(class QString const &, enum HsMenuDialogFactory::Options) const
	?createArrangeCollectionEvent@HsMenuEventFactory@@SAPAVQEvent@@HH@Z @ 220 NONAME ; class QEvent * HsMenuEventFactory::createArrangeCollectionEvent(int, int)
	?deactivate@HsTrashBinWidget@@QAEXXZ @ 221 NONAME ; void HsTrashBinWidget::deactivate(void)
	?qt_metacast@HsImageGridWidget@@UAEPAXPBD@Z @ 222 NONAME ; void * HsImageGridWidget::qt_metacast(char const *)
	?isForward@HsPropertyAnimationWrapper@@QBE_NXZ @ 223 NONAME ; bool HsPropertyAnimationWrapper::isForward(void) const
	?tr@HsPageIndicator@@SA?AVQString@@PBD0H@Z @ 224 NONAME ; class QString HsPageIndicator::tr(char const *, char const *, int)
	?tr@HsImageHandlingClient@@SA?AVQString@@PBD0@Z @ 225 NONAME ; class QString HsImageHandlingClient::tr(char const *, char const *)
	?eventTest@HsMenuEventTransition@@MAE_NPAVQEvent@@@Z @ 226 NONAME ; bool HsMenuEventTransition::eventTest(class QEvent *)
	?qt_metacall@HsImageGridWidget@@UAEHW4Call@QMetaObject@@HPAPAX@Z @ 227 NONAME ; int HsImageGridWidget::qt_metacall(enum QMetaObject::Call, int, void * *)
	?showLine@HsSnapLine@@QAEXABVQLineF@@@Z @ 228 NONAME ; void HsSnapLine::showLine(class QLineF const &)
	?tr@HsMessageBoxWrapper@@SA?AVQString@@PBD0H@Z @ 229 NONAME ; class QString HsMessageBoxWrapper::tr(char const *, char const *, int)
	?qt_metacall@XQAIWGetImageClient@@UAEHW4Call@QMetaObject@@HPAPAX@Z @ 230 NONAME ; int XQAIWGetImageClient::qt_metacall(enum QMetaObject::Call, int, void * *)
	??0XQAIWGetImageClient@@QAE@XZ @ 231 NONAME ; XQAIWGetImageClient::XQAIWGetImageClient(void)
	??0HsMenuEventTransition@@QAE@W4OperationType@HsMenuEvent@@PAVQState@@1@Z @ 232 NONAME ; HsMenuEventTransition::HsMenuEventTransition(enum HsMenuEvent::OperationType, class QState *, class QState *)
	?fetchFailed@XQAIWGetImageClient@@IAEXHABVQString@@@Z @ 233 NONAME ; void XQAIWGetImageClient::fetchFailed(int, class QString const &)
	??0HsTitleResolver@@QAE@PAVQObject@@@Z @ 234 NONAME ; HsTitleResolver::HsTitleResolver(class QObject *)
	?setConfiguration@HsSnapLine@@QAEXABV?$QHash@VQString@@VQVariant@@@@@Z @ 235 NONAME ; void HsSnapLine::setConfiguration(class QHash<class QString, class QVariant> const &)
	??_EHsPageIndicator@@UAE@I@Z @ 236 NONAME ; HsPageIndicator::~HsPageIndicator(unsigned int)
	?stopFadeOutAnimation@HsSnapLine@@AAEXXZ @ 237 NONAME ; void HsSnapLine::stopFadeOutAnimation(void)
	??_EHsWidgetPositioningOnOrientationChange@@UAE@I@Z @ 238 NONAME ; HsWidgetPositioningOnOrientationChange::~HsWidgetPositioningOnOrientationChange(unsigned int)
	?setUpActions@HsMenuDialogFactory@@ABEXPAVHbMessageBox@@ABVQStringList@@@Z @ 239 NONAME ; void HsMenuDialogFactory::setUpActions(class HbMessageBox *, class QStringList const &) const
	?compareRightSideOfMovingRectForSnapping@HsSnapToLines@@AAEXXZ @ 240 NONAME ; void HsSnapToLines::compareRightSideOfMovingRectForSnapping(void)
	?isRunning@HsPropertyAnimationWrapper@@QAE_NXZ @ 241 NONAME ; bool HsPropertyAnimationWrapper::isRunning(void)
	?mInstance@HsWidgetPositioningOnWidgetMove@@0PAV1@A @ 242 NONAME ; class HsWidgetPositioningOnWidgetMove * HsWidgetPositioningOnWidgetMove::mInstance
	?tr@XQAIWGetImageClient@@SA?AVQString@@PBD0@Z @ 243 NONAME ; class QString XQAIWGetImageClient::tr(char const *, char const *)
	?finished@HsPropertyAnimationWrapper@@IAEXXZ @ 244 NONAME ; void HsPropertyAnimationWrapper::finished(void)
	?addItem@HsPageIndicator@@QAEXH@Z @ 245 NONAME ; void HsPageIndicator::addItem(int)
	??0HsPageIndicator@@QAE@MPAVQGraphicsItem@@@Z @ 246 NONAME ; HsPageIndicator::HsPageIndicator(float, class QGraphicsItem *)
	?rejected@HsMessageBoxWrapper@@IAEXXZ @ 247 NONAME ; void HsMessageBoxWrapper::rejected(void)
	?tr@XQAIWGetImageClient@@SA?AVQString@@PBD0H@Z @ 248 NONAME ; class QString XQAIWGetImageClient::tr(char const *, char const *, int)
	?trUtf8@HsPropertyAnimationWrapper@@SA?AVQString@@PBD0H@Z @ 249 NONAME ; class QString HsPropertyAnimationWrapper::trUtf8(char const *, char const *, int)
	?qt_metacall@HsSpinnerDialog@@UAEHW4Call@QMetaObject@@HPAPAX@Z @ 250 NONAME ; int HsSpinnerDialog::qt_metacall(enum QMetaObject::Call, int, void * *)
	??1HsMessageBoxWrapper@@UAE@XZ @ 251 NONAME ; HsMessageBoxWrapper::~HsMessageBoxWrapper(void)
	?qt_metacast@HsTitleResolver@@UAEPAXPBD@Z @ 252 NONAME ; void * HsTitleResolver::qt_metacast(char const *)
	??_EHsWidgetPositioningOnWidgetMove@@UAE@I@Z @ 253 NONAME ; HsWidgetPositioningOnWidgetMove::~HsWidgetPositioningOnWidgetMove(unsigned int)
	?extendHorizontalLine@HsSnapToLines@@AAEXXZ @ 254 NONAME ; void HsSnapToLines::extendHorizontalLine(void)
	?qt_metacall@HsTrashBinWidget@@UAEHW4Call@QMetaObject@@HPAPAX@Z @ 255 NONAME ; int HsTrashBinWidget::qt_metacall(enum QMetaObject::Call, int, void * *)
	??1HsImageGridWidget@@UAE@XZ @ 256 NONAME ; HsImageGridWidget::~HsImageGridWidget(void)
	?qt_metacast@HsImageHandlingClient@@UAEPAXPBD@Z @ 257 NONAME ; void * HsImageHandlingClient::qt_metacast(char const *)
	?getStaticMetaObject@HsSpinnerDialog@@SAABUQMetaObject@@XZ @ 258 NONAME ; struct QMetaObject const & HsSpinnerDialog::getStaticMetaObject(void)
	?staticMetaObject@HsTitleResolver@@2UQMetaObject@@B @ 259 NONAME ; struct QMetaObject const HsTitleResolver::staticMetaObject
	?checkInactiveRectHorizontalEdgesInRange@HsSnapToLines@@AAEXM@Z @ 260 NONAME ; void HsSnapToLines::checkInactiveRectHorizontalEdgesInRange(float)
	??0HsPropertyAnimationWrapper@@QAE@PAVQObject@@@Z @ 261 NONAME ; HsPropertyAnimationWrapper::HsPropertyAnimationWrapper(class QObject *)
	?createHorizontalLine@HsSnapToLines@@AAEXXZ @ 262 NONAME ; void HsSnapToLines::createHorizontalLine(void)
	?tr@HsSnapLine@@SA?AVQString@@PBD0H@Z @ 263 NONAME ; class QString HsSnapLine::tr(char const *, char const *, int)
	??_EHsSpinnerDialog@@UAE@I@Z @ 264 NONAME ; HsSpinnerDialog::~HsSpinnerDialog(unsigned int)
	??0HsImageGridWidget@@QAE@ABVQStringList@@PAVQGraphicsItem@@@Z @ 265 NONAME ; HsImageGridWidget::HsImageGridWidget(class QStringList const &, class QGraphicsItem *)
	?tr@HsImageGridWidget@@SA?AVQString@@PBD0H@Z @ 266 NONAME ; class QString HsImageGridWidget::tr(char const *, char const *, int)

