EXPORTS
	_ZN11CPhoneState10ShowQueryLEi @ 1 NONAME
	_ZN11CPhoneState11EndUiUpdateEv @ 2 NONAME
	_ZN11CPhoneState11IsVideoCallEi @ 3 NONAME
	_ZN11CPhoneState11SetEikonEnvEP9CEikonEnv @ 4 NONAME
	_ZN11CPhoneState12HandleErrorLERK12TPEErrorInfo @ 5 NONAME
	_ZN11CPhoneState14BaseConstructLEv @ 6 NONAME
	_ZN11CPhoneState14DialVoiceCallLEv @ 7 NONAME
	_ZN11CPhoneState14HandleCommandLEi @ 8 NONAME
	_ZN11CPhoneState14ShowTextQueryLEiiiP6TDes16i @ 9 NONAME
	_ZN11CPhoneState15BeginUiUpdateLCEv @ 10 NONAME
	_ZN11CPhoneState15DisconnectCallLEv @ 11 NONAME
	_ZN11CPhoneState15HandleKeyEventLERK9TKeyEvent10TEventCode @ 12 NONAME
	_ZN11CPhoneState15ProcessCommandLEi @ 13 NONAME
	_ZN11CPhoneState16SetDefaultFlagsLEv @ 14 NONAME
	_ZN11CPhoneState16UpdateCallHeaderEi @ 15 NONAME
	_ZN11CPhoneState16UpdateUiCommandsEv @ 16 NONAME
	_ZN11CPhoneState17HandleKeyMessageLEN15MPhoneKeyEvents22TPhoneKeyEventMessagesE8TKeyCode @ 17 NONAME
	_ZN11CPhoneState17SetHandsfreeModeLEi @ 18 NONAME
	_ZN11CPhoneState18DisplayCallHeaderLEiNS_19TNumberEntrySetRuleE @ 19 NONAME
	_ZN11CPhoneState18HandleDtmfKeyToneLERK9TKeyEvent10TEventCode @ 20 NONAME
	_ZN11CPhoneState19DialMultimediaCallLEv @ 21 NONAME
	_ZN11CPhoneState19HandlePhoneStartupLEv @ 22 NONAME
	_ZN11CPhoneState19SendGlobalInfoNoteLEii @ 23 NONAME
	_ZN11CPhoneState19SetBTHandsfreeModeLEi @ 24 NONAME
	_ZN11CPhoneState19SetBackButtonActiveEi @ 25 NONAME
	_ZN11CPhoneState19ShowNumberBusyNoteLEv @ 26 NONAME
	_ZN11CPhoneState20DecreaseAudioVolumeLEv @ 27 NONAME
	_ZN11CPhoneState20HandleDisconnectingLEi @ 28 NONAME
	_ZN11CPhoneState20HandleRemConCommandLE25TRemConCoreApiOperationId26TRemConCoreApiButtonAction @ 29 NONAME
	_ZN11CPhoneState20IncreaseAudioVolumeLEv @ 30 NONAME
	_ZN11CPhoneState20SendGlobalErrorNoteLEii @ 31 NONAME
	_ZN11CPhoneState22DeleteTouchPaneButtonsEv @ 32 NONAME
	_ZN11CPhoneState22HandlePropertyChangedLERK4TUidji @ 33 NONAME
	_ZN11CPhoneState22SendGlobalWarningNoteLEii @ 34 NONAME
	_ZN11CPhoneState22StartShowSecurityNoteLEv @ 35 NONAME
	_ZN11CPhoneState23HandleAudioMuteChangedLEv @ 36 NONAME
	_ZN11CPhoneState23SetRingingTonePlaybackLEi @ 37 NONAME
	_ZN11CPhoneState23UpdateSingleActiveCallLEi @ 38 NONAME
	_ZN11CPhoneState25HandleAudioOutputChangedLEv @ 39 NONAME
	_ZN11CPhoneState25HandleNumberEntryClearedLEv @ 40 NONAME
	_ZN11CPhoneState25HandlePhoneEngineMessageLEii @ 41 NONAME
	_ZN11CPhoneState27DisplayCallTerminationNoteLEv @ 42 NONAME
	_ZN11CPhoneState28OpenSoftRejectMessageEditorLEv @ 43 NONAME
	_ZN11CPhoneState30CheckIfShowCallTerminationNoteEv @ 44 NONAME
	_ZN11CPhoneState30UpdateCallHeaderAndUiCommandsLEi @ 45 NONAME
	_ZN11CPhoneState34SetToolbarButtonLoudspeakerEnabledEv @ 46 NONAME
	_ZN11CPhoneState38RemoveDialogsAndSendPhoneToBackgroundLEv @ 47 NONAME
	_ZN11CPhoneState43IsSimStateNotPresentWithSecurityModeEnabledEv @ 48 NONAME
	_ZN11CPhoneState7IsSimOkEv @ 49 NONAME
	_ZN11CPhoneState9ShowNoteLEi @ 50 NONAME
	_ZN11CPhoneStateC1EP18MPhoneStateMachineP23MPhoneViewCommandHandleP19MPhoneCustomization @ 51 NONAME
	_ZN11CPhoneStateC2EP18MPhoneStateMachineP23MPhoneViewCommandHandleP19MPhoneCustomization @ 52 NONAME
	_ZN11CPhoneStateD0Ev @ 53 NONAME
	_ZN11CPhoneStateD1Ev @ 54 NONAME
	_ZN11CPhoneStateD2Ev @ 55 NONAME
	_ZN15CPhoneStateIdle10ConstructLEv @ 56 NONAME
	_ZN15CPhoneStateIdle14DialVoiceCallLEv @ 57 NONAME
	_ZN15CPhoneStateIdle14HandleCommandLEi @ 58 NONAME
	_ZN15CPhoneStateIdle14HandleDialingLEi @ 59 NONAME
	_ZN15CPhoneStateIdle15HandleKeyEventLERK9TKeyEvent10TEventCode @ 60 NONAME
	_ZN15CPhoneStateIdle15ProcessCommandLEi @ 61 NONAME
	_ZN15CPhoneStateIdle17HandleKeyMessageLEN15MPhoneKeyEvents22TPhoneKeyEventMessagesE8TKeyCode @ 62 NONAME
	_ZN15CPhoneStateIdle18HandleSendCommandLEv @ 63 NONAME
	_ZN15CPhoneStateIdle19DialMultimediaCallLEv @ 64 NONAME
	_ZN15CPhoneStateIdle20DisplayIncomingCallLEi @ 65 NONAME
	_ZN15CPhoneStateIdle20HandleRemConCommandLE25TRemConCoreApiOperationId26TRemConCoreApiButtonAction @ 66 NONAME
	_ZN15CPhoneStateIdle25HandleNumberEntryClearedLEv @ 67 NONAME
	_ZN15CPhoneStateIdle25HandlePhoneEngineMessageLEii @ 68 NONAME
	_ZN15CPhoneStateIdle26HandlePhoneFocusLostEventLEv @ 69 NONAME
	_ZN15CPhoneStateIdle5DialLERK7TDesC16NS_16TPhoneNumberTypeENS_21TDialInitiationMethodE @ 70 NONAME
	_ZN15CPhoneStateIdleC1EP18MPhoneStateMachineP23MPhoneViewCommandHandleP19MPhoneCustomization @ 71 NONAME
	_ZN15CPhoneStateIdleC2EP18MPhoneStateMachineP23MPhoneViewCommandHandleP19MPhoneCustomization @ 72 NONAME
	_ZN15CPhoneStateIdleD0Ev @ 73 NONAME
	_ZN15CPhoneStateIdleD1Ev @ 74 NONAME
	_ZN15CPhoneStateIdleD2Ev @ 75 NONAME
	_ZN17CPhoneStateHandle12StateMachineEv @ 76 NONAME
	_ZN17CPhoneStateHandle17ViewCommandHandleEv @ 77 NONAME
	_ZN17CPhoneStateHandle8InstanceEv @ 78 NONAME
	_ZN17CPhoneStateInCall10ConstructLEv @ 79 NONAME
	_ZN17CPhoneStateInCall11HandleIdleLEi @ 80 NONAME
	_ZN17CPhoneStateInCall14HandleCommandLEi @ 81 NONAME
	_ZN17CPhoneStateInCall15GetRingingCallLEv @ 82 NONAME
	_ZN17CPhoneStateInCall17HandleKeyMessageLEN15MPhoneKeyEvents22TPhoneKeyEventMessagesE8TKeyCode @ 83 NONAME
	_ZN17CPhoneStateInCall18CallFetchedNumberLERK7TDesC16 @ 84 NONAME
	_ZN17CPhoneStateInCall18IsVideoCallActiveLEv @ 85 NONAME
	_ZN17CPhoneStateInCall19IsVideoCallRingingLEv @ 86 NONAME
	_ZN17CPhoneStateInCall23DisconnectOutgoingCallLEv @ 87 NONAME
	_ZN17CPhoneStateInCall25HandleNumberEntryClearedLEv @ 88 NONAME
	_ZN17CPhoneStateInCall25HandlePhoneEngineMessageLEii @ 89 NONAME
	_ZN17CPhoneStateInCallC1EP18MPhoneStateMachineP23MPhoneViewCommandHandleP19MPhoneCustomization @ 90 NONAME
	_ZN17CPhoneStateInCallC2EP18MPhoneStateMachineP23MPhoneViewCommandHandleP19MPhoneCustomization @ 91 NONAME
	_ZN17CPhoneStateInCallD0Ev @ 92 NONAME
	_ZN17CPhoneStateInCallD1Ev @ 93 NONAME
	_ZN17CPhoneStateInCallD2Ev @ 94 NONAME
	_ZN18CPhoneStateMachine11ChangeStateEi @ 95 NONAME
	_ZN18CPhoneStateMachine11PhoneEngineEv @ 96 NONAME
	_ZN18CPhoneStateMachine12PhoneStorageEv @ 97 NONAME
	_ZN18CPhoneStateMachine14SetPhoneEngineEP13MPEPhoneModel @ 98 NONAME
	_ZN18CPhoneStateMachine15PhoneEngineInfoEv @ 99 NONAME
	_ZN18CPhoneStateMachine18CreatePhoneEngineLER14MEngineMonitor @ 100 NONAME
	_ZN18CPhoneStateMachine22SendPhoneEngineMessageEi @ 101 NONAME
	_ZN18CPhoneStateMachine5StateEv @ 102 NONAME
	_ZN18CPhoneStateMachine9SetCallIdEi @ 103 NONAME
	_ZN18CPhoneStateMachineC1EP23MPhoneViewCommandHandle @ 104 NONAME
	_ZN18CPhoneStateMachineC2EP23MPhoneViewCommandHandle @ 105 NONAME
	_ZN18CPhoneStateMachineD0Ev @ 106 NONAME
	_ZN18CPhoneStateMachineD1Ev @ 107 NONAME
	_ZN18CPhoneStateMachineD2Ev @ 108 NONAME
	_ZN18CPhoneStateStartup10ConstructLEv @ 109 NONAME
	_ZN18CPhoneStateStartup15HandleKeyEventLERK9TKeyEvent10TEventCode @ 110 NONAME
	_ZN18CPhoneStateStartup17HandleKeyMessageLEN15MPhoneKeyEvents22TPhoneKeyEventMessagesE8TKeyCode @ 111 NONAME
	_ZN18CPhoneStateStartup18HandleDtmfKeyToneLERK9TKeyEvent10TEventCode @ 112 NONAME
	_ZN18CPhoneStateStartup19HandlePhoneStartupLEv @ 113 NONAME
	_ZN18CPhoneStateStartup25HandlePhoneEngineMessageLEii @ 114 NONAME
	_ZN18CPhoneStateStartup4NewLEP18MPhoneStateMachineP23MPhoneViewCommandHandleP19MPhoneCustomization @ 115 NONAME
	_ZN18CPhoneStateStartupC1EP18MPhoneStateMachineP23MPhoneViewCommandHandleP19MPhoneCustomization @ 116 NONAME
	_ZN18CPhoneStateStartupC2EP18MPhoneStateMachineP23MPhoneViewCommandHandleP19MPhoneCustomization @ 117 NONAME
	_ZN18CPhoneStateStartupD0Ev @ 118 NONAME
	_ZN18CPhoneStateStartupD1Ev @ 119 NONAME
	_ZN18CPhoneStateStartupD2Ev @ 120 NONAME
	_ZN18CPhoneUIController10EngineInfoEv @ 121 NONAME
	_ZN18CPhoneUIController11HandleErrorERK12TPEErrorInfo @ 122 NONAME
	_ZN18CPhoneUIController13HandleMessageEii @ 123 NONAME
	_ZN18CPhoneUIController14HandleCommandLEi @ 124 NONAME
	_ZN18CPhoneUIController15HandleKeyEventLERK9TKeyEvent10TEventCode @ 125 NONAME
	_ZN18CPhoneUIController15ProcessCommandLEi @ 126 NONAME
	_ZN18CPhoneUIController19HandlePhoneStartupLEv @ 127 NONAME
	_ZN18CPhoneUIController4NewLEP23MPhoneViewCommandHandle @ 128 NONAME
	_ZN18CPhoneUIControllerD0Ev @ 129 NONAME
	_ZN18CPhoneUIControllerD1Ev @ 130 NONAME
	_ZN18CPhoneUIControllerD2Ev @ 131 NONAME
	_ZN19CPhoneStateIncoming10ConstructLEv @ 132 NONAME
	_ZN19CPhoneStateIncoming14HandleCommandLEi @ 133 NONAME
	_ZN19CPhoneStateIncoming15HandleKeyEventLERK9TKeyEvent10TEventCode @ 134 NONAME
	_ZN19CPhoneStateIncoming17HandleKeyMessageLEN15MPhoneKeyEvents22TPhoneKeyEventMessagesE8TKeyCode @ 135 NONAME
	_ZN19CPhoneStateIncoming23HandleAudioPlayStoppedLEv @ 136 NONAME
	_ZN19CPhoneStateIncoming25HandleNumberEntryClearedLEv @ 137 NONAME
	_ZN19CPhoneStateIncoming25HandlePhoneEngineMessageLEii @ 138 NONAME
	_ZN19CPhoneStateIncomingC1EP18MPhoneStateMachineP23MPhoneViewCommandHandleP19MPhoneCustomization @ 139 NONAME
	_ZN19CPhoneStateIncomingC2EP18MPhoneStateMachineP23MPhoneViewCommandHandleP19MPhoneCustomization @ 140 NONAME
	_ZN19CPhoneStateIncomingD0Ev @ 141 NONAME
	_ZN19CPhoneStateIncomingD1Ev @ 142 NONAME
	_ZN19CPhoneStateIncomingD2Ev @ 143 NONAME
	_ZN20CPhoneStateCallSetup10ConstructLEv @ 144 NONAME
	_ZN20CPhoneStateCallSetup14HandleCommandLEi @ 145 NONAME
	_ZN20CPhoneStateCallSetup15HandleKeyEventLERK9TKeyEvent10TEventCode @ 146 NONAME
	_ZN20CPhoneStateCallSetup17HandleKeyMessageLEN15MPhoneKeyEvents22TPhoneKeyEventMessagesE8TKeyCode @ 147 NONAME
	_ZN20CPhoneStateCallSetup25HandleNumberEntryClearedLEv @ 148 NONAME
	_ZN20CPhoneStateCallSetup25HandlePhoneEngineMessageLEii @ 149 NONAME
	_ZN20CPhoneStateCallSetupC1EP18MPhoneStateMachineP23MPhoneViewCommandHandleP19MPhoneCustomization @ 150 NONAME
	_ZN20CPhoneStateCallSetupC2EP18MPhoneStateMachineP23MPhoneViewCommandHandleP19MPhoneCustomization @ 151 NONAME
	_ZN20CPhoneStateCallSetupD0Ev @ 152 NONAME
	_ZN20CPhoneStateCallSetupD1Ev @ 153 NONAME
	_ZN20CPhoneStateCallSetupD2Ev @ 154 NONAME
	_ZN24CPhoneNumberEntryManager20CallFromNumberEntryLEv @ 155 NONAME
	_ZN24CPhoneNumberEntryManager24StoreNumberEntryContentLEv @ 156 NONAME
	_ZN24CPhoneNumberEntryManager25SetNumberEntryVisibilityLEi @ 157 NONAME
	_ZN24CPhoneNumberEntryManager26IsNumberEntryContentStoredEv @ 158 NONAME
	_ZN24CPhoneNumberEntryManager28ClearNumberEntryContentCacheEv @ 159 NONAME
	_ZN24CPhoneNumberEntryManager31SetVisibilityIfNumberEntryUsedLEi @ 160 NONAME
	_ZN24CPhoneNumberEntryManager37RemoveNumberEntryIfVisibilityIsFalseLEv @ 161 NONAME
	_ZN24CPhoneNumberEntryManager43ClearNumberEntryContentCacheIfContentStoredEv @ 162 NONAME
	_ZNK11CPhoneState12IsAutoLockOnEv @ 163 NONAME
	_ZNK11CPhoneState26IsCustomizedDialerVisibleLEv @ 164 NONAME
	_ZNK11CPhoneState8EikonEnvEv @ 165 NONAME
	_ZNK11CPhoneState8SimStateEv @ 166 NONAME
	_ZNK18CPhoneStateMachine8EikonEnvEv @ 167 NONAME
	_ZNK24CPhoneNumberEntryManager17NumberEntryClearLEv @ 168 NONAME
	_ZNK24CPhoneNumberEntryManager18IsNumberEntryUsedLEv @ 169 NONAME
	_ZNK24CPhoneNumberEntryManager21IsNumberEntryVisibleLEv @ 170 NONAME
	_ZNK24CPhoneNumberEntryManager22PhoneNumberFromEntryLCEv @ 171 NONAME
	_ZNK24CPhoneNumberEntryManager26IsCustomizedDialerVisibleLEv @ 172 NONAME
	_ZTI11CPhoneState @ 173 NONAME
	_ZTI15CPhoneStateIdle @ 174 NONAME
	_ZTI17CPhoneStateHandle @ 175 NONAME
	_ZTI17CPhoneStateInCall @ 176 NONAME
	_ZTI18CPhoneStateMachine @ 177 NONAME
	_ZTI18CPhoneStateStartup @ 178 NONAME
	_ZTI18CPhoneUIController @ 179 NONAME
	_ZTI19CPhoneStateIncoming @ 180 NONAME
	_ZTI20CPhoneStateCallSetup @ 181 NONAME
	_ZTI23CPhoneDtmfWaitCharTimer @ 182 NONAME
	_ZTI24CPhoneSystemEventHandler @ 183 NONAME
	_ZTI26CPhoneRemoteControlHandler @ 184 NONAME
	_ZTI27CPhoneBtaaDisconnectHandler @ 185 NONAME
	_ZTV11CPhoneState @ 186 NONAME
	_ZTV15CPhoneStateIdle @ 187 NONAME
	_ZTV17CPhoneStateHandle @ 188 NONAME
	_ZTV17CPhoneStateInCall @ 189 NONAME
	_ZTV18CPhoneStateMachine @ 190 NONAME
	_ZTV18CPhoneStateStartup @ 191 NONAME
	_ZTV18CPhoneUIController @ 192 NONAME
	_ZTV19CPhoneStateIncoming @ 193 NONAME
	_ZTV20CPhoneStateCallSetup @ 194 NONAME
	_ZTV23CPhoneDtmfWaitCharTimer @ 195 NONAME
	_ZTV24CPhoneSystemEventHandler @ 196 NONAME
	_ZTV26CPhoneRemoteControlHandler @ 197 NONAME
	_ZTV27CPhoneBtaaDisconnectHandler @ 198 NONAME
	_ZThn12_N11CPhoneState19HandlePhoneStartupLEv @ 199 NONAME
	_ZThn12_N11CPhoneState22HandlePropertyChangedLERK4TUidji @ 200 NONAME
	_ZThn12_N11CPhoneStateD0Ev @ 201 NONAME
	_ZThn12_N11CPhoneStateD1Ev @ 202 NONAME
	_ZThn12_N15CPhoneStateIdleD0Ev @ 203 NONAME
	_ZThn12_N15CPhoneStateIdleD1Ev @ 204 NONAME
	_ZThn12_N17CPhoneStateInCallD0Ev @ 205 NONAME
	_ZThn12_N17CPhoneStateInCallD1Ev @ 206 NONAME
	_ZThn12_N18CPhoneStateStartup19HandlePhoneStartupLEv @ 207 NONAME
	_ZThn12_N18CPhoneStateStartupD0Ev @ 208 NONAME
	_ZThn12_N18CPhoneStateStartupD1Ev @ 209 NONAME
	_ZThn12_N18CPhoneUIController19HandlePhoneStartupLEv @ 210 NONAME
	_ZThn12_N18CPhoneUIControllerD0Ev @ 211 NONAME
	_ZThn12_N18CPhoneUIControllerD1Ev @ 212 NONAME
	_ZThn12_N19CPhoneStateIncomingD0Ev @ 213 NONAME
	_ZThn12_N19CPhoneStateIncomingD1Ev @ 214 NONAME
	_ZThn12_N20CPhoneStateCallSetupD0Ev @ 215 NONAME
	_ZThn12_N20CPhoneStateCallSetupD1Ev @ 216 NONAME
	_ZThn16_N11CPhoneState14HandleCommandLEi @ 217 NONAME
	_ZThn16_N11CPhoneState15ProcessCommandLEi @ 218 NONAME
	_ZThn16_N11CPhoneStateD0Ev @ 219 NONAME
	_ZThn16_N11CPhoneStateD1Ev @ 220 NONAME
	_ZThn16_N15CPhoneStateIdle14HandleCommandLEi @ 221 NONAME
	_ZThn16_N15CPhoneStateIdle15ProcessCommandLEi @ 222 NONAME
	_ZThn16_N15CPhoneStateIdleD0Ev @ 223 NONAME
	_ZThn16_N15CPhoneStateIdleD1Ev @ 224 NONAME
	_ZThn16_N17CPhoneStateInCall14HandleCommandLEi @ 225 NONAME
	_ZThn16_N17CPhoneStateInCallD0Ev @ 226 NONAME
	_ZThn16_N17CPhoneStateInCallD1Ev @ 227 NONAME
	_ZThn16_N18CPhoneStateStartupD0Ev @ 228 NONAME
	_ZThn16_N18CPhoneStateStartupD1Ev @ 229 NONAME
	_ZThn16_N18CPhoneUIController14HandleCommandLEi @ 230 NONAME
	_ZThn16_N18CPhoneUIController15ProcessCommandLEi @ 231 NONAME
	_ZThn16_N18CPhoneUIControllerD0Ev @ 232 NONAME
	_ZThn16_N18CPhoneUIControllerD1Ev @ 233 NONAME
	_ZThn16_N19CPhoneStateIncoming14HandleCommandLEi @ 234 NONAME
	_ZThn16_N19CPhoneStateIncomingD0Ev @ 235 NONAME
	_ZThn16_N19CPhoneStateIncomingD1Ev @ 236 NONAME
	_ZThn16_N20CPhoneStateCallSetup14HandleCommandLEi @ 237 NONAME
	_ZThn16_N20CPhoneStateCallSetupD0Ev @ 238 NONAME
	_ZThn16_N20CPhoneStateCallSetupD1Ev @ 239 NONAME
	_ZThn20_N11CPhoneState20HandleRemConCommandLE25TRemConCoreApiOperationId26TRemConCoreApiButtonAction @ 240 NONAME
	_ZThn20_N11CPhoneStateD0Ev @ 241 NONAME
	_ZThn20_N11CPhoneStateD1Ev @ 242 NONAME
	_ZThn20_N15CPhoneStateIdle20HandleRemConCommandLE25TRemConCoreApiOperationId26TRemConCoreApiButtonAction @ 243 NONAME
	_ZThn20_N15CPhoneStateIdleD0Ev @ 244 NONAME
	_ZThn20_N15CPhoneStateIdleD1Ev @ 245 NONAME
	_ZThn20_N17CPhoneStateInCallD0Ev @ 246 NONAME
	_ZThn20_N17CPhoneStateInCallD1Ev @ 247 NONAME
	_ZThn20_N18CPhoneStateStartupD0Ev @ 248 NONAME
	_ZThn20_N18CPhoneStateStartupD1Ev @ 249 NONAME
	_ZThn20_N19CPhoneStateIncomingD0Ev @ 250 NONAME
	_ZThn20_N19CPhoneStateIncomingD1Ev @ 251 NONAME
	_ZThn20_N20CPhoneStateCallSetupD0Ev @ 252 NONAME
	_ZThn20_N20CPhoneStateCallSetupD1Ev @ 253 NONAME
	_ZThn24_N11CPhoneState25HandleNumberEntryClearedLEv @ 254 NONAME
	_ZThn24_N15CPhoneStateIdle25HandleNumberEntryClearedLEv @ 255 NONAME
	_ZThn24_N17CPhoneStateInCall25HandleNumberEntryClearedLEv @ 256 NONAME
	_ZThn24_N19CPhoneStateIncoming25HandleNumberEntryClearedLEv @ 257 NONAME
	_ZThn24_N20CPhoneStateCallSetup25HandleNumberEntryClearedLEv @ 258 NONAME
	_ZThn28_NK11CPhoneState12IsAutoLockOnEv @ 259 NONAME
	_ZThn32_N11CPhoneState11SetEikonEnvEP9CEikonEnv @ 260 NONAME
	_ZThn4_N11CPhoneState12HandleErrorLERK12TPEErrorInfo @ 261 NONAME
	_ZThn4_N11CPhoneState25HandlePhoneEngineMessageLEii @ 262 NONAME
	_ZThn4_N11CPhoneStateD0Ev @ 263 NONAME
	_ZThn4_N11CPhoneStateD1Ev @ 264 NONAME
	_ZThn4_N15CPhoneStateIdle25HandlePhoneEngineMessageLEii @ 265 NONAME
	_ZThn4_N15CPhoneStateIdleD0Ev @ 266 NONAME
	_ZThn4_N15CPhoneStateIdleD1Ev @ 267 NONAME
	_ZThn4_N17CPhoneStateInCall25HandlePhoneEngineMessageLEii @ 268 NONAME
	_ZThn4_N17CPhoneStateInCallD0Ev @ 269 NONAME
	_ZThn4_N17CPhoneStateInCallD1Ev @ 270 NONAME
	_ZThn4_N18CPhoneStateMachine11ChangeStateEi @ 271 NONAME
	_ZThn4_N18CPhoneStateMachine11PhoneEngineEv @ 272 NONAME
	_ZThn4_N18CPhoneStateMachine12PhoneStorageEv @ 273 NONAME
	_ZThn4_N18CPhoneStateMachine14SetPhoneEngineEP13MPEPhoneModel @ 274 NONAME
	_ZThn4_N18CPhoneStateMachine15PhoneEngineInfoEv @ 275 NONAME
	_ZThn4_N18CPhoneStateMachine18CreatePhoneEngineLER14MEngineMonitor @ 276 NONAME
	_ZThn4_N18CPhoneStateMachine22SendPhoneEngineMessageEi @ 277 NONAME
	_ZThn4_N18CPhoneStateMachine5StateEv @ 278 NONAME
	_ZThn4_N18CPhoneStateMachine9SetCallIdEi @ 279 NONAME
	_ZThn4_N18CPhoneStateMachineD0Ev @ 280 NONAME
	_ZThn4_N18CPhoneStateMachineD1Ev @ 281 NONAME
	_ZThn4_N18CPhoneStateStartup25HandlePhoneEngineMessageLEii @ 282 NONAME
	_ZThn4_N18CPhoneStateStartupD0Ev @ 283 NONAME
	_ZThn4_N18CPhoneStateStartupD1Ev @ 284 NONAME
	_ZThn4_N18CPhoneUIController11HandleErrorERK12TPEErrorInfo @ 285 NONAME
	_ZThn4_N18CPhoneUIController13HandleMessageEii @ 286 NONAME
	_ZThn4_N19CPhoneStateIncoming25HandlePhoneEngineMessageLEii @ 287 NONAME
	_ZThn4_N19CPhoneStateIncomingD0Ev @ 288 NONAME
	_ZThn4_N19CPhoneStateIncomingD1Ev @ 289 NONAME
	_ZThn4_N20CPhoneStateCallSetup25HandlePhoneEngineMessageLEii @ 290 NONAME
	_ZThn4_N20CPhoneStateCallSetupD0Ev @ 291 NONAME
	_ZThn4_N20CPhoneStateCallSetupD1Ev @ 292 NONAME
	_ZThn8_N11CPhoneState15HandleKeyEventLERK9TKeyEvent10TEventCode @ 293 NONAME
	_ZThn8_N11CPhoneState17HandleKeyMessageLEN15MPhoneKeyEvents22TPhoneKeyEventMessagesE8TKeyCode @ 294 NONAME
	_ZThn8_N11CPhoneState18HandleDtmfKeyToneLERK9TKeyEvent10TEventCode @ 295 NONAME
	_ZThn8_N11CPhoneStateD0Ev @ 296 NONAME
	_ZThn8_N11CPhoneStateD1Ev @ 297 NONAME
	_ZThn8_N15CPhoneStateIdle15HandleKeyEventLERK9TKeyEvent10TEventCode @ 298 NONAME
	_ZThn8_N15CPhoneStateIdle17HandleKeyMessageLEN15MPhoneKeyEvents22TPhoneKeyEventMessagesE8TKeyCode @ 299 NONAME
	_ZThn8_N15CPhoneStateIdleD0Ev @ 300 NONAME
	_ZThn8_N15CPhoneStateIdleD1Ev @ 301 NONAME
	_ZThn8_N17CPhoneStateInCall17HandleKeyMessageLEN15MPhoneKeyEvents22TPhoneKeyEventMessagesE8TKeyCode @ 302 NONAME
	_ZThn8_N17CPhoneStateInCallD0Ev @ 303 NONAME
	_ZThn8_N17CPhoneStateInCallD1Ev @ 304 NONAME
	_ZThn8_N18CPhoneStateStartup15HandleKeyEventLERK9TKeyEvent10TEventCode @ 305 NONAME
	_ZThn8_N18CPhoneStateStartup17HandleKeyMessageLEN15MPhoneKeyEvents22TPhoneKeyEventMessagesE8TKeyCode @ 306 NONAME
	_ZThn8_N18CPhoneStateStartup18HandleDtmfKeyToneLERK9TKeyEvent10TEventCode @ 307 NONAME
	_ZThn8_N18CPhoneStateStartupD0Ev @ 308 NONAME
	_ZThn8_N18CPhoneStateStartupD1Ev @ 309 NONAME
	_ZThn8_N18CPhoneUIController15HandleKeyEventLERK9TKeyEvent10TEventCode @ 310 NONAME
	_ZThn8_N18CPhoneUIControllerD0Ev @ 311 NONAME
	_ZThn8_N18CPhoneUIControllerD1Ev @ 312 NONAME
	_ZThn8_N19CPhoneStateIncoming15HandleKeyEventLERK9TKeyEvent10TEventCode @ 313 NONAME
	_ZThn8_N19CPhoneStateIncoming17HandleKeyMessageLEN15MPhoneKeyEvents22TPhoneKeyEventMessagesE8TKeyCode @ 314 NONAME
	_ZThn8_N19CPhoneStateIncomingD0Ev @ 315 NONAME
	_ZThn8_N19CPhoneStateIncomingD1Ev @ 316 NONAME
	_ZThn8_N20CPhoneStateCallSetup15HandleKeyEventLERK9TKeyEvent10TEventCode @ 317 NONAME
	_ZThn8_N20CPhoneStateCallSetup17HandleKeyMessageLEN15MPhoneKeyEvents22TPhoneKeyEventMessagesE8TKeyCode @ 318 NONAME
	_ZThn8_N20CPhoneStateCallSetupD0Ev @ 319 NONAME
	_ZThn8_N20CPhoneStateCallSetupD1Ev @ 320 NONAME

