EXPORTS
	??_EFmFileDialog@@UAE@I@Z @ 1 NONAME ; FmFileDialog::~FmFileDialog(unsigned int)
	?qt_metacall@FmFileDialog@@UAEHW4Call@QMetaObject@@HPAPAX@Z @ 2 NONAME ; int FmFileDialog::qt_metacall(enum QMetaObject::Call, int, void * *)
	??1FmFileDialog@@EAE@XZ @ 3 NONAME ; FmFileDialog::~FmFileDialog(void)
	?tr@FmFileDialog@@SA?AVQString@@PBD0H@Z @ 4 NONAME ; class QString FmFileDialog::tr(char const *, char const *, int)
	?getOpenFileName@FmFileDialog@@SA?AVQString@@PAVHbWidget@@ABV2@1ABVQStringList@@V?$QFlags@W4Option@FmFileDialog@@@@@Z @ 5 NONAME ; class QString FmFileDialog::getOpenFileName(class HbWidget *, class QString const &, class QString const &, class QStringList const &, class QFlags<enum FmFileDialog::Option>)
	??0FmFileDialog@@AAE@PAVQGraphicsItem@@@Z @ 6 NONAME ; FmFileDialog::FmFileDialog(class QGraphicsItem *)
	?tr@FmFileDialog@@SA?AVQString@@PBD0@Z @ 7 NONAME ; class QString FmFileDialog::tr(char const *, char const *)
	?getStaticMetaObject@FmFileDialog@@SAABUQMetaObject@@XZ @ 8 NONAME ; struct QMetaObject const & FmFileDialog::getStaticMetaObject(void)
	?d_func@FmFileDialog@@ABEPBVFmFileDialogPrivate@@XZ @ 9 NONAME ; class FmFileDialogPrivate const * FmFileDialog::d_func(void) const
	?exec@FmFileDialog@@AAE_NXZ @ 10 NONAME ; bool FmFileDialog::exec(void)
	?trUtf8@FmFileDialog@@SA?AVQString@@PBD0@Z @ 11 NONAME ; class QString FmFileDialog::trUtf8(char const *, char const *)
	?trUtf8@FmFileDialog@@SA?AVQString@@PBD0H@Z @ 12 NONAME ; class QString FmFileDialog::trUtf8(char const *, char const *, int)
	?metaObject@FmFileDialog@@UBEPBUQMetaObject@@XZ @ 13 NONAME ; struct QMetaObject const * FmFileDialog::metaObject(void) const
	?staticMetaObject@FmFileDialog@@2UQMetaObject@@B @ 14 NONAME ; struct QMetaObject const FmFileDialog::staticMetaObject
	?getSaveFileName@FmFileDialog@@SA?AVQString@@PAVHbWidget@@ABV2@1ABVQStringList@@V?$QFlags@W4Option@FmFileDialog@@@@@Z @ 15 NONAME ; class QString FmFileDialog::getSaveFileName(class HbWidget *, class QString const &, class QString const &, class QStringList const &, class QFlags<enum FmFileDialog::Option>)
	?d_func@FmFileDialog@@AAEPAVFmFileDialogPrivate@@XZ @ 16 NONAME ; class FmFileDialogPrivate * FmFileDialog::d_func(void)
	?getExistingDirectory@FmFileDialog@@SA?AVQString@@PAVHbWidget@@ABV2@1ABVQStringList@@V?$QFlags@W4Option@FmFileDialog@@@@@Z @ 17 NONAME ; class QString FmFileDialog::getExistingDirectory(class HbWidget *, class QString const &, class QString const &, class QStringList const &, class QFlags<enum FmFileDialog::Option>)
	?qt_metacast@FmFileDialog@@UAEPAXPBD@Z @ 18 NONAME ; void * FmFileDialog::qt_metacast(char const *)
	?dialogClosed@FmFileDialog@@AAEXPAVHbAction@@@Z @ 19 NONAME ; void FmFileDialog::dialogClosed(class HbAction *)
	?setSecondaryAction@FmFileDialog@@AAEXPAVHbAction@@@Z @ 20 NONAME ; void FmFileDialog::setSecondaryAction(class HbAction *)
	?secondaryAction@FmFileDialog@@ABEPAVHbAction@@XZ @ 21 NONAME ; class HbAction * FmFileDialog::secondaryAction(void) const
	?setPrimaryAction@FmFileDialog@@AAEXPAVHbAction@@@Z @ 22 NONAME ; void FmFileDialog::setPrimaryAction(class HbAction *)
	?primaryAction@FmFileDialog@@ABEPAVHbAction@@XZ @ 23 NONAME ; class HbAction * FmFileDialog::primaryAction(void) const

