EXPORTS
	?totalSize@NmApiMessageBody@EmailClientApi@@QBE_KXZ @ 1 NONAME ; unsigned long long EmailClientApi::NmApiMessageBody::totalSize(void) const
	?isRunning@NmApiEmailService@EmailClientApi@@QBE_NXZ @ 2 NONAME ; bool EmailClientApi::NmApiEmailService::isRunning(void) const
	?metaObject@NmApiMessageManager@EmailClientApi@@UBEPBUQMetaObject@@XZ @ 3 NONAME ; struct QMetaObject const * EmailClientApi::NmApiMessageManager::metaObject(void) const
	??4NmApiMessageBody@EmailClientApi@@QAEAAV01@ABV01@@Z @ 4 NONAME ; class EmailClientApi::NmApiMessageBody & EmailClientApi::NmApiMessageBody::operator=(class EmailClientApi::NmApiMessageBody const &)
	?tr@NmApiMessageManager@EmailClientApi@@SA?AVQString@@PBD0H@Z @ 5 NONAME ; class QString EmailClientApi::NmApiMessageManager::tr(char const *, char const *, int)
	?qt_metacall@NmApiEventNotifier@EmailClientApi@@UAEHW4Call@QMetaObject@@HPAPAX@Z @ 6 NONAME ; int EmailClientApi::NmApiEventNotifier::qt_metacall(enum QMetaObject::Call, int, void * *)
	?setPlainText@NmApiMessageEnvelope@EmailClientApi@@QAEXABVQString@@@Z @ 7 NONAME ; void EmailClientApi::NmApiMessageEnvelope::setPlainText(class QString const &)
	??1NmApiSettingsManager@EmailClientApi@@UAE@XZ @ 8 NONAME ; EmailClientApi::NmApiSettingsManager::~NmApiSettingsManager(void)
	?id@NmApiMailbox@EmailClientApi@@QBE_KXZ @ 9 NONAME ; unsigned long long EmailClientApi::NmApiMailbox::id(void) const
	?createReplyMessage@NmApiMessageManager@EmailClientApi@@QAE_NPBVQVariant@@_N@Z @ 10 NONAME ABSENT ; bool EmailClientApi::NmApiMessageManager::createReplyMessage(class QVariant const *, bool)
	?saveMessage@NmApiMessageManager@EmailClientApi@@QAE_NABUNmApiMessage@@@Z @ 11 NONAME ABSENT ; bool EmailClientApi::NmApiMessageManager::saveMessage(struct NmApiMessage const &)
	?messagesCopied@NmApiMessageManager@EmailClientApi@@IAEXH@Z @ 12 NONAME ABSENT ; void EmailClientApi::NmApiMessageManager::messagesCopied(int)
	?id@NmApiFolder@EmailClientApi@@QBE_KXZ @ 13 NONAME ; unsigned long long EmailClientApi::NmApiFolder::id(void) const
	?foldersListed@NmApiFolderListing@EmailClientApi@@IAEXH@Z @ 14 NONAME ; void EmailClientApi::NmApiFolderListing::foldersListed(int)
	??8NmApiFolder@EmailClientApi@@QAE_NABV01@@Z @ 15 NONAME ; bool EmailClientApi::NmApiFolder::operator==(class EmailClientApi::NmApiFolder const &)
	??_ENmApiMessageManager@EmailClientApi@@UAE@I@Z @ 16 NONAME ; EmailClientApi::NmApiMessageManager::~NmApiMessageManager(unsigned int)
	??0NmApiFolder@EmailClientApi@@QAE@ABV01@@Z @ 17 NONAME ; EmailClientApi::NmApiFolder::NmApiFolder(class EmailClientApi::NmApiFolder const &)
	??0NmApiMailboxListing@EmailClientApi@@QAE@PAVQObject@@@Z @ 18 NONAME ; EmailClientApi::NmApiMailboxListing::NmApiMailboxListing(class QObject *)
	?subject@NmApiMessageEnvelope@EmailClientApi@@QBE?AVQString@@XZ @ 19 NONAME ; class QString EmailClientApi::NmApiMessageEnvelope::subject(void) const
	?tr@NmApiMailboxSettings@EmailClientApi@@SA?AVQString@@PBD0H@Z @ 20 NONAME ; class QString EmailClientApi::NmApiMailboxSettings::tr(char const *, char const *, int)
	?setIsRead@NmApiMessageEnvelope@EmailClientApi@@QAEX_N@Z @ 21 NONAME ; void EmailClientApi::NmApiMessageEnvelope::setIsRead(bool)
	?qt_metacall@NmApiEnvelopeListing@EmailClientApi@@UAEHW4Call@QMetaObject@@HPAPAX@Z @ 22 NONAME ; int EmailClientApi::NmApiEnvelopeListing::qt_metacall(enum QMetaObject::Call, int, void * *)
	?metaObject@NmApiFolderListing@EmailClientApi@@UBEPBUQMetaObject@@XZ @ 23 NONAME ; struct QMetaObject const * EmailClientApi::NmApiFolderListing::metaObject(void) const
	?loadSettings@NmApiMailboxSettings@EmailClientApi@@QAE_N_KAAVNmApiMailboxSettingsData@2@@Z @ 24 NONAME ; bool EmailClientApi::NmApiMailboxSettings::loadSettings(unsigned long long, class EmailClientApi::NmApiMailboxSettingsData &)
	?fetchedSize@NmApiMessageBody@EmailClientApi@@QBE_KXZ @ 25 NONAME ; unsigned long long EmailClientApi::NmApiMessageBody::fetchedSize(void) const
	?setChildFolderIds@NmApiFolder@EmailClientApi@@QAEXAAV?$QList@_K@@@Z @ 26 NONAME ; void EmailClientApi::NmApiFolder::setChildFolderIds(class QList<unsigned long long> &)
	??0NmApiMessageEnvelope@EmailClientApi@@QAE@XZ @ 27 NONAME ; EmailClientApi::NmApiMessageEnvelope::NmApiMessageEnvelope(void)
	?removeAttachment@NmApiMessageManager@EmailClientApi@@QAE_NAAVNmApiEmailMessage@@_K@Z @ 28 NONAME ABSENT ; bool EmailClientApi::NmApiMessageManager::removeAttachment(class NmApiEmailMessage &, unsigned long long)
	??1NmApiMessageEnvelope@EmailClientApi@@UAE@XZ @ 29 NONAME ; EmailClientApi::NmApiMessageEnvelope::~NmApiMessageEnvelope(void)
	?copyMessages@NmApiMessageManager@EmailClientApi@@QAE_NV?$QList@_K@@_K1@Z @ 30 NONAME ABSENT ; bool EmailClientApi::NmApiMessageManager::copyMessages(class QList<unsigned long long>, unsigned long long, unsigned long long)
	??4NmApiMailbox@EmailClientApi@@QAEAAV01@ABV01@@Z @ 31 NONAME ; class EmailClientApi::NmApiMailbox & EmailClientApi::NmApiMailbox::operator=(class EmailClientApi::NmApiMailbox const &)
	??1NmApiMessageManager@EmailClientApi@@UAE@XZ @ 32 NONAME ; EmailClientApi::NmApiMessageManager::~NmApiMessageManager(void)
	?setSentTime@NmApiMessageEnvelope@EmailClientApi@@QAEXVQDateTime@@@Z @ 33 NONAME ; void EmailClientApi::NmApiMessageEnvelope::setSentTime(class QDateTime)
	?setFetchedSize@NmApiMessageBody@EmailClientApi@@QAEX_K@Z @ 34 NONAME ; void EmailClientApi::NmApiMessageBody::setFetchedSize(unsigned long long)
	?name@NmApiFolder@EmailClientApi@@QBE?AVQString@@XZ @ 35 NONAME ; class QString EmailClientApi::NmApiFolder::name(void) const
	?load@NmApiSettingsManager@EmailClientApi@@QAE_N_KAAVNmApiMailboxSettingsData@2@@Z @ 36 NONAME ; bool EmailClientApi::NmApiSettingsManager::load(unsigned long long, class EmailClientApi::NmApiMailboxSettingsData &)
	??1NmApiEmailAddress@EmailClientApi@@UAE@XZ @ 37 NONAME ; EmailClientApi::NmApiEmailAddress::~NmApiEmailAddress(void)
	?setIsForwarded@NmApiMessageEnvelope@EmailClientApi@@QAEX_N@Z @ 38 NONAME ; void EmailClientApi::NmApiMessageEnvelope::setIsForwarded(bool)
	?qt_metacast@NmApiMessageTask@@UAEPAXPBD@Z @ 39 NONAME ; void * NmApiMessageTask::qt_metacast(char const *)
	?staticMetaObject@NmApiMailboxListing@EmailClientApi@@2UQMetaObject@@B @ 40 NONAME ; struct QMetaObject const EmailClientApi::NmApiMailboxListing::staticMetaObject
	?address@NmApiMailbox@EmailClientApi@@QBE?AVQString@@XZ @ 41 NONAME ; class QString EmailClientApi::NmApiMailbox::address(void) const
	??0NmApiMessageBody@EmailClientApi@@QAE@XZ @ 42 NONAME ; EmailClientApi::NmApiMessageBody::NmApiMessageBody(void)
	?metaObject@NmApiEventNotifier@EmailClientApi@@UBEPBUQMetaObject@@XZ @ 43 NONAME ; struct QMetaObject const * EmailClientApi::NmApiEventNotifier::metaObject(void) const
	?tr@NmApiFolderListing@EmailClientApi@@SA?AVQString@@PBD0@Z @ 44 NONAME ; class QString EmailClientApi::NmApiFolderListing::tr(char const *, char const *)
	?tr@NmApiMessageManager@EmailClientApi@@SA?AVQString@@PBD0@Z @ 45 NONAME ; class QString EmailClientApi::NmApiMessageManager::tr(char const *, char const *)
	?metaObject@NmApiEmailService@EmailClientApi@@UBEPBUQMetaObject@@XZ @ 46 NONAME ; struct QMetaObject const * EmailClientApi::NmApiEmailService::metaObject(void) const
	?listSettings@NmApiMailboxSettingsData@EmailClientApi@@QBE?AV?$QList@H@@XZ @ 47 NONAME ; class QList<int> EmailClientApi::NmApiMailboxSettingsData::listSettings(void) const
	?parentFolder@NmApiMessageEnvelope@EmailClientApi@@QBE_KXZ @ 48 NONAME ; unsigned long long EmailClientApi::NmApiMessageEnvelope::parentFolder(void) const
	?trUtf8@NmApiMessageManager@EmailClientApi@@SA?AVQString@@PBD0@Z @ 49 NONAME ; class QString EmailClientApi::NmApiMessageManager::trUtf8(char const *, char const *)
	?mailboxDeleted@NmApiMailboxSettings@EmailClientApi@@IAEXH@Z @ 50 NONAME ; void EmailClientApi::NmApiMailboxSettings::mailboxDeleted(int)
	??_ENmApiMessageBody@EmailClientApi@@UAE@I@Z @ 51 NONAME ; EmailClientApi::NmApiMessageBody::~NmApiMessageBody(unsigned int)
	?staticMetaObject@NmApiMailboxSettings@EmailClientApi@@2UQMetaObject@@B @ 52 NONAME ; struct QMetaObject const EmailClientApi::NmApiMailboxSettings::staticMetaObject
	?messagesDeleted@NmApiMessageManager@EmailClientApi@@IAEXH@Z @ 53 NONAME ABSENT ; void EmailClientApi::NmApiMessageManager::messagesDeleted(int)
	?qt_metacall@NmApiMailboxListing@EmailClientApi@@UAEHW4Call@QMetaObject@@HPAPAX@Z @ 54 NONAME ; int EmailClientApi::NmApiMailboxListing::qt_metacall(enum QMetaObject::Call, int, void * *)
	??_ENmApiMailbox@EmailClientApi@@UAE@I@Z @ 55 NONAME ; EmailClientApi::NmApiMailbox::~NmApiMailbox(unsigned int)
	?setId@NmApiMessageEnvelope@EmailClientApi@@QAEX_K@Z @ 56 NONAME ; void EmailClientApi::NmApiMessageEnvelope::setId(unsigned long long)
	?trUtf8@NmApiEmailService@EmailClientApi@@SA?AVQString@@PBD0H@Z @ 57 NONAME ; class QString EmailClientApi::NmApiEmailService::trUtf8(char const *, char const *, int)
	?getStaticMetaObject@NmApiMailboxListing@EmailClientApi@@SAABUQMetaObject@@XZ @ 58 NONAME ; struct QMetaObject const & EmailClientApi::NmApiMailboxListing::getStaticMetaObject(void)
	?setName@NmApiFolder@EmailClientApi@@QAEXABVQString@@@Z @ 59 NONAME ; void EmailClientApi::NmApiFolder::setName(class QString const &)
	?isRunning@NmApiMailboxListing@EmailClientApi@@QBE_NXZ @ 60 NONAME ; bool EmailClientApi::NmApiMailboxListing::isRunning(void) const
	??0NmApiMailboxSettingsData@EmailClientApi@@QAE@XZ @ 61 NONAME ; EmailClientApi::NmApiMailboxSettingsData::NmApiMailboxSettingsData(void)
	?setName@NmApiMailbox@EmailClientApi@@QAEXABVQString@@@Z @ 62 NONAME ; void EmailClientApi::NmApiMailbox::setName(class QString const &)
	?tr@NmApiEnvelopeListing@EmailClientApi@@SA?AVQString@@PBD0H@Z @ 63 NONAME ; class QString EmailClientApi::NmApiEnvelopeListing::tr(char const *, char const *, int)
	?trUtf8@NmApiMessageManager@EmailClientApi@@SA?AVQString@@PBD0H@Z @ 64 NONAME ; class QString EmailClientApi::NmApiMessageManager::trUtf8(char const *, char const *, int)
	?isRunning@NmApiFolderListing@EmailClientApi@@QBE_NXZ @ 65 NONAME ; bool EmailClientApi::NmApiFolderListing::isRunning(void) const
	?metaObject@NmApiMailboxSettings@EmailClientApi@@UBEPBUQMetaObject@@XZ @ 66 NONAME ; struct QMetaObject const * EmailClientApi::NmApiMailboxSettings::metaObject(void) const
	?messagesMoved@NmApiMessageManager@EmailClientApi@@IAEXH@Z @ 67 NONAME ABSENT ; void EmailClientApi::NmApiMessageManager::messagesMoved(int)
	?staticMetaObject@NmApiEventNotifier@EmailClientApi@@2UQMetaObject@@B @ 68 NONAME ; struct QMetaObject const EmailClientApi::NmApiEventNotifier::staticMetaObject
	?tr@NmApiFolderListing@EmailClientApi@@SA?AVQString@@PBD0H@Z @ 69 NONAME ; class QString EmailClientApi::NmApiFolderListing::tr(char const *, char const *, int)
	?trUtf8@NmApiFolderListing@EmailClientApi@@SA?AVQString@@PBD0H@Z @ 70 NONAME ; class QString EmailClientApi::NmApiFolderListing::trUtf8(char const *, char const *, int)
	?envelopesListed@NmApiEnvelopeListing@EmailClientApi@@IAEXH@Z @ 71 NONAME ; void EmailClientApi::NmApiEnvelopeListing::envelopesListed(int)
	?fetchedSize@NmApiMessageEnvelope@EmailClientApi@@QBE_KXZ @ 72 NONAME ; unsigned long long EmailClientApi::NmApiMessageEnvelope::fetchedSize(void) const
	?tr@NmApiEventNotifier@EmailClientApi@@SA?AVQString@@PBD0@Z @ 73 NONAME ; class QString EmailClientApi::NmApiEventNotifier::tr(char const *, char const *)
	?sentTime@NmApiMessageEnvelope@EmailClientApi@@QBE?AVQDateTime@@XZ @ 74 NONAME ; class QDateTime EmailClientApi::NmApiMessageEnvelope::sentTime(void) const
	?saveSettings@NmApiMailboxSettings@EmailClientApi@@QAE_NABVNmApiMailboxSettingsData@2@@Z @ 75 NONAME ; bool EmailClientApi::NmApiMailboxSettings::saveSettings(class EmailClientApi::NmApiMailboxSettingsData const &)
	?fetch@NmApiMessageManager@EmailClientApi@@QAE_NABUNmApiMessage@@@Z @ 76 NONAME ABSENT ; bool EmailClientApi::NmApiMessageManager::fetch(struct NmApiMessage const &)
	?setSubject@NmApiMessageEnvelope@EmailClientApi@@QAEXABVQString@@@Z @ 77 NONAME ; void EmailClientApi::NmApiMessageEnvelope::setSubject(class QString const &)
	?folderType@NmApiFolder@EmailClientApi@@QBE?AW4NmApiEmailFolderType@2@XZ @ 78 NONAME ; enum EmailClientApi::NmApiEmailFolderType EmailClientApi::NmApiFolder::folderType(void) const
	?setToRecipients@NmApiMessageEnvelope@EmailClientApi@@QAEXABV?$QList@VNmApiEmailAddress@EmailClientApi@@@@@Z @ 79 NONAME ; void EmailClientApi::NmApiMessageEnvelope::setToRecipients(class QList<class EmailClientApi::NmApiEmailAddress> const &)
	?createMailbox@NmApiMailboxSettings@EmailClientApi@@QAE_NABVQString@@AAVNmApiMailboxSettingsData@2@@Z @ 80 NONAME ; bool EmailClientApi::NmApiMailboxSettings::createMailbox(class QString const &, class EmailClientApi::NmApiMailboxSettingsData &)
	?qt_metacast@NmApiMessageManager@EmailClientApi@@UAEPAXPBD@Z @ 81 NONAME ; void * EmailClientApi::NmApiMessageManager::qt_metacast(char const *)
	??1NmApiEventNotifier@EmailClientApi@@UAE@XZ @ 82 NONAME ; EmailClientApi::NmApiEventNotifier::~NmApiEventNotifier(void)
	?isRead@NmApiMessageEnvelope@EmailClientApi@@QBE_NXZ @ 83 NONAME ; bool EmailClientApi::NmApiMessageEnvelope::isRead(void) const
	?failed@NmApiMessageTask@@IAEXH@Z @ 84 NONAME ; void NmApiMessageTask::failed(int)
	?qt_metacast@NmApiFolderListing@EmailClientApi@@UAEPAXPBD@Z @ 85 NONAME ; void * EmailClientApi::NmApiFolderListing::qt_metacast(char const *)
	?messageEvent@NmApiEventNotifier@EmailClientApi@@IAEXW4NmApiMessageEvent@2@_K1V?$QList@_K@@@Z @ 86 NONAME ; void EmailClientApi::NmApiEventNotifier::messageEvent(enum EmailClientApi::NmApiMessageEvent, unsigned long long, unsigned long long, class QList<unsigned long long>)
	?setTotalSize@NmApiMessageEnvelope@EmailClientApi@@QAEX_K@Z @ 87 NONAME ; void EmailClientApi::NmApiMessageEnvelope::setTotalSize(unsigned long long)
	??0NmApiMessageManager@EmailClientApi@@QAE@_KPAVQObject@@@Z @ 88 NONAME ABSENT ; EmailClientApi::NmApiMessageManager::NmApiMessageManager(unsigned long long, class QObject *)
	?qt_metacall@NmApiMessageTask@@UAEHW4Call@QMetaObject@@HPAPAX@Z @ 89 NONAME ; int NmApiMessageTask::qt_metacall(enum QMetaObject::Call, int, void * *)
	??1NmApiMailbox@EmailClientApi@@UAE@XZ @ 90 NONAME ; EmailClientApi::NmApiMailbox::~NmApiMailbox(void)
	?getValue@NmApiMailboxSettingsData@EmailClientApi@@QBE_NHAAVQVariant@@@Z @ 91 NONAME ; bool EmailClientApi::NmApiMailboxSettingsData::getValue(int, class QVariant &) const
	?tr@NmApiEventNotifier@EmailClientApi@@SA?AVQString@@PBD0H@Z @ 92 NONAME ; class QString EmailClientApi::NmApiEventNotifier::tr(char const *, char const *, int)
	??8NmApiMessageBody@EmailClientApi@@QAE_NABV01@@Z @ 93 NONAME ; bool EmailClientApi::NmApiMessageBody::operator==(class EmailClientApi::NmApiMessageBody const &)
	?start@NmApiMailboxListing@EmailClientApi@@UAE_NXZ @ 94 NONAME ; bool EmailClientApi::NmApiMailboxListing::start(void)
	??_ENmApiEnvelopeListing@EmailClientApi@@UAE@I@Z @ 95 NONAME ; EmailClientApi::NmApiEnvelopeListing::~NmApiEnvelopeListing(unsigned int)
	?uninitialise@NmApiEmailService@EmailClientApi@@QAEXXZ @ 96 NONAME ; void EmailClientApi::NmApiEmailService::uninitialise(void)
	?trUtf8@NmApiEventNotifier@EmailClientApi@@SA?AVQString@@PBD0H@Z @ 97 NONAME ; class QString EmailClientApi::NmApiEventNotifier::trUtf8(char const *, char const *, int)
	??0NmApiMessageBody@EmailClientApi@@QAE@ABV01@@Z @ 98 NONAME ; EmailClientApi::NmApiMessageBody::NmApiMessageBody(class EmailClientApi::NmApiMessageBody const &)
	?tr@NmApiMailboxSettings@EmailClientApi@@SA?AVQString@@PBD0@Z @ 99 NONAME ; class QString EmailClientApi::NmApiMailboxSettings::tr(char const *, char const *)
	??1NmApiMessageBody@EmailClientApi@@UAE@XZ @ 100 NONAME ; EmailClientApi::NmApiMessageBody::~NmApiMessageBody(void)
	?hasAttachments@NmApiMessageEnvelope@EmailClientApi@@QBE_NXZ @ 101 NONAME ; bool EmailClientApi::NmApiMessageEnvelope::hasAttachments(void) const
	?setSender@NmApiMessageEnvelope@EmailClientApi@@QAEXABVQString@@@Z @ 102 NONAME ; void EmailClientApi::NmApiMessageEnvelope::setSender(class QString const &)
	??_ENmApiMailboxListing@EmailClientApi@@UAE@I@Z @ 103 NONAME ; EmailClientApi::NmApiMailboxListing::~NmApiMailboxListing(unsigned int)
	?moveMessages@NmApiMessageManager@EmailClientApi@@QAE_NV?$QList@_K@@_K1@Z @ 104 NONAME ABSENT ; bool EmailClientApi::NmApiMessageManager::moveMessages(class QList<unsigned long long>, unsigned long long, unsigned long long)
	?trUtf8@NmApiMessageTask@@SA?AVQString@@PBD0@Z @ 105 NONAME ; class QString NmApiMessageTask::trUtf8(char const *, char const *)
	?staticMetaObject@NmApiMessageTask@@2UQMetaObject@@B @ 106 NONAME ; struct QMetaObject const NmApiMessageTask::staticMetaObject
	??1NmApiMailboxSettingsData@EmailClientApi@@QAE@XZ @ 107 NONAME ; EmailClientApi::NmApiMailboxSettingsData::~NmApiMailboxSettingsData(void)
	?validateData@NmApiMailboxSettingsData@EmailClientApi@@QBE_NXZ @ 108 NONAME ; bool EmailClientApi::NmApiMailboxSettingsData::validateData(void) const
	?getChildFolderIds@NmApiFolder@EmailClientApi@@QAEXAAV?$QList@_K@@@Z @ 109 NONAME ; void EmailClientApi::NmApiFolder::getChildFolderIds(class QList<unsigned long long> &)
	?parentFolderId@NmApiFolder@EmailClientApi@@QBE_KXZ @ 110 NONAME ; unsigned long long EmailClientApi::NmApiFolder::parentFolderId(void) const
	??_ENmApiEmailAddress@EmailClientApi@@UAE@I@Z @ 111 NONAME ; EmailClientApi::NmApiEmailAddress::~NmApiEmailAddress(unsigned int)
	??0NmApiFolder@EmailClientApi@@QAE@XZ @ 112 NONAME ; EmailClientApi::NmApiFolder::NmApiFolder(void)
	?tr@NmApiMailboxListing@EmailClientApi@@SA?AVQString@@PBD0@Z @ 113 NONAME ; class QString EmailClientApi::NmApiMailboxListing::tr(char const *, char const *)
	?tr@NmApiEmailService@EmailClientApi@@SA?AVQString@@PBD0@Z @ 114 NONAME ; class QString EmailClientApi::NmApiEmailService::tr(char const *, char const *)
	?plainText@NmApiMessageEnvelope@EmailClientApi@@QBE?AVQString@@XZ @ 115 NONAME ; class QString EmailClientApi::NmApiMessageEnvelope::plainText(void) const
	?getFolders@NmApiFolderListing@EmailClientApi@@QAE_NAAV?$QList@VNmApiFolder@EmailClientApi@@@@@Z @ 116 NONAME ; bool EmailClientApi::NmApiFolderListing::getFolders(class QList<class EmailClientApi::NmApiFolder> &)
	?getStaticMetaObject@NmApiEmailService@EmailClientApi@@SAABUQMetaObject@@XZ @ 117 NONAME ; struct QMetaObject const & EmailClientApi::NmApiEmailService::getStaticMetaObject(void)
	?metaObject@NmApiEnvelopeListing@EmailClientApi@@UBEPBUQMetaObject@@XZ @ 118 NONAME ; struct QMetaObject const * EmailClientApi::NmApiEnvelopeListing::metaObject(void) const
	?trUtf8@NmApiMailboxListing@EmailClientApi@@SA?AVQString@@PBD0@Z @ 119 NONAME ; class QString EmailClientApi::NmApiMailboxListing::trUtf8(char const *, char const *)
	?tr@NmApiEnvelopeListing@EmailClientApi@@SA?AVQString@@PBD0@Z @ 120 NONAME ; class QString EmailClientApi::NmApiEnvelopeListing::tr(char const *, char const *)
	?canceled@NmApiMessageTask@@IAEXXZ @ 121 NONAME ; void NmApiMessageTask::canceled(void)
	?trUtf8@NmApiMailboxSettings@EmailClientApi@@SA?AVQString@@PBD0H@Z @ 122 NONAME ; class QString EmailClientApi::NmApiMailboxSettings::trUtf8(char const *, char const *, int)
	?setHasAttachments@NmApiMessageEnvelope@EmailClientApi@@QAEX_N@Z @ 123 NONAME ; void EmailClientApi::NmApiMessageEnvelope::setHasAttachments(bool)
	??_ENmApiMessageEnvelope@EmailClientApi@@UAE@I@Z @ 124 NONAME ; EmailClientApi::NmApiMessageEnvelope::~NmApiMessageEnvelope(unsigned int)
	?createForwardMessage@NmApiMessageManager@EmailClientApi@@QAE_NPBVQVariant@@@Z @ 125 NONAME ABSENT ; bool EmailClientApi::NmApiMessageManager::createForwardMessage(class QVariant const *)
	?displayName@NmApiEmailAddress@EmailClientApi@@QBE?AVQString@@XZ @ 126 NONAME ; class QString EmailClientApi::NmApiEmailAddress::displayName(void) const
	?listMailboxIds@NmApiMailboxSettings@EmailClientApi@@QAE_NAAV?$QList@_K@@@Z @ 127 NONAME ; bool EmailClientApi::NmApiMailboxSettings::listMailboxIds(class QList<unsigned long long> &)
	??_ENmApiMailboxSettings@EmailClientApi@@UAE@I@Z @ 128 NONAME ; EmailClientApi::NmApiMailboxSettings::~NmApiMailboxSettings(unsigned int)
	?getStaticMetaObject@NmApiMailboxSettings@EmailClientApi@@SAABUQMetaObject@@XZ @ 129 NONAME ; struct QMetaObject const & EmailClientApi::NmApiMailboxSettings::getStaticMetaObject(void)
	??0NmApiFolderListing@EmailClientApi@@QAE@PAVQObject@@AB_K@Z @ 130 NONAME ; EmailClientApi::NmApiFolderListing::NmApiFolderListing(class QObject *, unsigned long long const &)
	??_ENmApiFolder@EmailClientApi@@UAE@I@Z @ 131 NONAME ; EmailClientApi::NmApiFolder::~NmApiFolder(unsigned int)
	?name@NmApiMailbox@EmailClientApi@@QBE?AVQString@@XZ @ 132 NONAME ; class QString EmailClientApi::NmApiMailbox::name(void) const
	?getStaticMetaObject@NmApiFolderListing@EmailClientApi@@SAABUQMetaObject@@XZ @ 133 NONAME ; struct QMetaObject const & EmailClientApi::NmApiFolderListing::getStaticMetaObject(void)
	?deleteMessages@NmApiMessageManager@EmailClientApi@@QAE_NV?$QList@_K@@@Z @ 134 NONAME ABSENT ; bool EmailClientApi::NmApiMessageManager::deleteMessages(class QList<unsigned long long>)
	?trUtf8@NmApiEmailService@EmailClientApi@@SA?AVQString@@PBD0@Z @ 135 NONAME ; class QString EmailClientApi::NmApiEmailService::trUtf8(char const *, char const *)
	?createDraftMessage@NmApiMessageManager@EmailClientApi@@QAE_NPBVQVariant@@@Z @ 136 NONAME ABSENT ; bool EmailClientApi::NmApiMessageManager::createDraftMessage(class QVariant const *)
	??1NmApiMailboxListing@EmailClientApi@@UAE@XZ @ 137 NONAME ; EmailClientApi::NmApiMailboxListing::~NmApiMailboxListing(void)
	??0NmApiMailboxSettings@EmailClientApi@@QAE@PAVQObject@@@Z @ 138 NONAME ; EmailClientApi::NmApiMailboxSettings::NmApiMailboxSettings(class QObject *)
	??1NmApiFolder@EmailClientApi@@UAE@XZ @ 139 NONAME ; EmailClientApi::NmApiFolder::~NmApiFolder(void)
	??0NmApiMailbox@EmailClientApi@@QAE@ABV01@@Z @ 140 NONAME ; EmailClientApi::NmApiMailbox::NmApiMailbox(class EmailClientApi::NmApiMailbox const &)
	?setCcRecipients@NmApiMessageEnvelope@EmailClientApi@@QAEXABV?$QList@VNmApiEmailAddress@EmailClientApi@@@@@Z @ 141 NONAME ; void EmailClientApi::NmApiMessageEnvelope::setCcRecipients(class QList<class EmailClientApi::NmApiEmailAddress> const &)
	??_ENmApiEventNotifier@EmailClientApi@@UAE@I@Z @ 142 NONAME ; EmailClientApi::NmApiEventNotifier::~NmApiEventNotifier(unsigned int)
	?staticMetaObject@NmApiEmailService@EmailClientApi@@2UQMetaObject@@B @ 143 NONAME ; struct QMetaObject const EmailClientApi::NmApiEmailService::staticMetaObject
	?qt_metacast@NmApiMailboxSettings@EmailClientApi@@UAEPAXPBD@Z @ 144 NONAME ; void * EmailClientApi::NmApiMailboxSettings::qt_metacast(char const *)
	??1NmApiFolderListing@EmailClientApi@@UAE@XZ @ 145 NONAME ; EmailClientApi::NmApiFolderListing::~NmApiFolderListing(void)
	?getPlainTextBody@NmApiMessageEnvelope@EmailClientApi@@QAEXAAVNmApiMessageBody@2@@Z @ 146 NONAME ; void EmailClientApi::NmApiMessageEnvelope::getPlainTextBody(class EmailClientApi::NmApiMessageBody &)
	?setFetchedSize@NmApiMessageEnvelope@EmailClientApi@@QAEX_K@Z @ 147 NONAME ; void EmailClientApi::NmApiMessageEnvelope::setFetchedSize(unsigned long long)
	?id@NmApiMessageEnvelope@EmailClientApi@@QBE_KXZ @ 148 NONAME ; unsigned long long EmailClientApi::NmApiMessageEnvelope::id(void) const
	??0NmApiEnvelopeListing@EmailClientApi@@QAE@PAVQObject@@_K1@Z @ 149 NONAME ; EmailClientApi::NmApiEnvelopeListing::NmApiEnvelopeListing(class QObject *, unsigned long long, unsigned long long)
	??0NmApiEmailAddress@EmailClientApi@@QAE@ABV01@@Z @ 150 NONAME ; EmailClientApi::NmApiEmailAddress::NmApiEmailAddress(class EmailClientApi::NmApiEmailAddress const &)
	?getToRecipients@NmApiMessageEnvelope@EmailClientApi@@QAEXAAV?$QList@VNmApiEmailAddress@EmailClientApi@@@@@Z @ 151 NONAME ; void EmailClientApi::NmApiMessageEnvelope::getToRecipients(class QList<class EmailClientApi::NmApiEmailAddress> &)
	?setParentFolder@NmApiMessageEnvelope@EmailClientApi@@QAEX_K@Z @ 152 NONAME ; void EmailClientApi::NmApiMessageEnvelope::setParentFolder(unsigned long long)
	?qt_metacast@NmApiEnvelopeListing@EmailClientApi@@UAEPAXPBD@Z @ 153 NONAME ; void * EmailClientApi::NmApiEnvelopeListing::qt_metacast(char const *)
	??4NmApiFolder@EmailClientApi@@QAEAAV01@ABV01@@Z @ 154 NONAME ; class EmailClientApi::NmApiFolder & EmailClientApi::NmApiFolder::operator=(class EmailClientApi::NmApiFolder const &)
	?tr@NmApiEmailService@EmailClientApi@@SA?AVQString@@PBD0H@Z @ 155 NONAME ; class QString EmailClientApi::NmApiEmailService::tr(char const *, char const *, int)
	??4NmApiEmailAddress@EmailClientApi@@QAEAAV01@ABV01@@Z @ 156 NONAME ; class EmailClientApi::NmApiEmailAddress & EmailClientApi::NmApiEmailAddress::operator=(class EmailClientApi::NmApiEmailAddress const &)
	?getStaticMetaObject@NmApiEnvelopeListing@EmailClientApi@@SAABUQMetaObject@@XZ @ 157 NONAME ; struct QMetaObject const & EmailClientApi::NmApiEnvelopeListing::getStaticMetaObject(void)
	?staticMetaObject@NmApiEnvelopeListing@EmailClientApi@@2UQMetaObject@@B @ 158 NONAME ; struct QMetaObject const EmailClientApi::NmApiEnvelopeListing::staticMetaObject
	?setFolderType@NmApiFolder@EmailClientApi@@QAEXW4NmApiEmailFolderType@2@@Z @ 159 NONAME ; void EmailClientApi::NmApiFolder::setFolderType(enum EmailClientApi::NmApiEmailFolderType)
	?sender@NmApiMessageEnvelope@EmailClientApi@@QBE?AVQString@@XZ @ 160 NONAME ; class QString EmailClientApi::NmApiMessageEnvelope::sender(void) const
	?getEnvelope@NmApiEmailService@EmailClientApi@@QAE_N_K00AAVNmApiMessageEnvelope@2@@Z @ 161 NONAME ; bool EmailClientApi::NmApiEmailService::getEnvelope(unsigned long long, unsigned long long, unsigned long long, class EmailClientApi::NmApiMessageEnvelope &)
	?start@NmApiEventNotifier@EmailClientApi@@UAE_NXZ @ 162 NONAME ; bool EmailClientApi::NmApiEventNotifier::start(void)
	?start@NmApiEnvelopeListing@EmailClientApi@@UAE_NXZ @ 163 NONAME ; bool EmailClientApi::NmApiEnvelopeListing::start(void)
	?qt_metacall@NmApiMessageManager@EmailClientApi@@UAEHW4Call@QMetaObject@@HPAPAX@Z @ 164 NONAME ; int EmailClientApi::NmApiMessageManager::qt_metacall(enum QMetaObject::Call, int, void * *)
	?getEnvelopes@NmApiEnvelopeListing@EmailClientApi@@QAE_NAAV?$QList@VNmApiMessageEnvelope@EmailClientApi@@@@@Z @ 165 NONAME ; bool EmailClientApi::NmApiEnvelopeListing::getEnvelopes(class QList<class EmailClientApi::NmApiMessageEnvelope> &)
	??1NmApiEnvelopeListing@EmailClientApi@@UAE@XZ @ 166 NONAME ; EmailClientApi::NmApiEnvelopeListing::~NmApiEnvelopeListing(void)
	?setDisplayName@NmApiEmailAddress@EmailClientApi@@QAEXABVQString@@@Z @ 167 NONAME ; void EmailClientApi::NmApiEmailAddress::setDisplayName(class QString const &)
	??1NmApiMailboxSettings@EmailClientApi@@UAE@XZ @ 168 NONAME ; EmailClientApi::NmApiMailboxSettings::~NmApiMailboxSettings(void)
	?deleteMailbox@NmApiMailboxSettings@EmailClientApi@@QAE_N_K@Z @ 169 NONAME ; bool EmailClientApi::NmApiMailboxSettings::deleteMailbox(unsigned long long)
	?tr@NmApiMessageTask@@SA?AVQString@@PBD0H@Z @ 170 NONAME ; class QString NmApiMessageTask::tr(char const *, char const *, int)
	?metaObject@NmApiMailboxListing@EmailClientApi@@UBEPBUQMetaObject@@XZ @ 171 NONAME ; struct QMetaObject const * EmailClientApi::NmApiMailboxListing::metaObject(void) const
	??4NmApiMessageEnvelope@EmailClientApi@@QAEAAV01@ABV01@@Z @ 172 NONAME ; class EmailClientApi::NmApiMessageEnvelope & EmailClientApi::NmApiMessageEnvelope::operator=(class EmailClientApi::NmApiMessageEnvelope const &)
	?initialise@NmApiEmailService@EmailClientApi@@QAEXXZ @ 173 NONAME ; void EmailClientApi::NmApiEmailService::initialise(void)
	?tr@NmApiMailboxListing@EmailClientApi@@SA?AVQString@@PBD0H@Z @ 174 NONAME ; class QString EmailClientApi::NmApiMailboxListing::tr(char const *, char const *, int)
	?send@NmApiMessageManager@EmailClientApi@@QAE_NABUNmApiMessage@@@Z @ 175 NONAME ABSENT ; bool EmailClientApi::NmApiMessageManager::send(struct NmApiMessage const &)
	?trUtf8@NmApiMailboxSettings@EmailClientApi@@SA?AVQString@@PBD0@Z @ 176 NONAME ; class QString EmailClientApi::NmApiMailboxSettings::trUtf8(char const *, char const *)
	?setContent@NmApiMessageBody@EmailClientApi@@QAEXABVQString@@@Z @ 177 NONAME ; void EmailClientApi::NmApiMessageBody::setContent(class QString const &)
	?createAttachment@NmApiMessageManager@EmailClientApi@@QAE_NAAVNmApiEmailMessage@@ABVQVariant@@@Z @ 178 NONAME ABSENT ; bool EmailClientApi::NmApiMessageManager::createAttachment(class NmApiEmailMessage &, class QVariant const &)
	?isReplied@NmApiMessageEnvelope@EmailClientApi@@QBE_NXZ @ 179 NONAME ; bool EmailClientApi::NmApiMessageEnvelope::isReplied(void) const
	?cancel@NmApiEnvelopeListing@EmailClientApi@@UAEXXZ @ 180 NONAME ; void EmailClientApi::NmApiEnvelopeListing::cancel(void)
	?getStaticMetaObject@NmApiEventNotifier@EmailClientApi@@SAABUQMetaObject@@XZ @ 181 NONAME ; struct QMetaObject const & EmailClientApi::NmApiEventNotifier::getStaticMetaObject(void)
	??0NmApiMessageEnvelope@EmailClientApi@@QAE@ABV01@@Z @ 182 NONAME ; EmailClientApi::NmApiMessageEnvelope::NmApiMessageEnvelope(class EmailClientApi::NmApiMessageEnvelope const &)
	?trUtf8@NmApiEnvelopeListing@EmailClientApi@@SA?AVQString@@PBD0H@Z @ 183 NONAME ; class QString EmailClientApi::NmApiEnvelopeListing::trUtf8(char const *, char const *, int)
	?messagesCreated@NmApiMessageManager@EmailClientApi@@IAEXH@Z @ 184 NONAME ABSENT ; void EmailClientApi::NmApiMessageManager::messagesCreated(int)
	?setContentType@NmApiMessageEnvelope@EmailClientApi@@QAEXABVQString@@@Z @ 185 NONAME ; void EmailClientApi::NmApiMessageEnvelope::setContentType(class QString const &)
	?initialized@NmApiEmailService@EmailClientApi@@IAEX_N@Z @ 186 NONAME ; void EmailClientApi::NmApiEmailService::initialized(bool)
	?qt_metacast@NmApiEventNotifier@EmailClientApi@@UAEPAXPBD@Z @ 187 NONAME ; void * EmailClientApi::NmApiEventNotifier::qt_metacast(char const *)
	?qt_metacall@NmApiEmailService@EmailClientApi@@UAEHW4Call@QMetaObject@@HPAPAX@Z @ 188 NONAME ; int EmailClientApi::NmApiEmailService::qt_metacall(enum QMetaObject::Call, int, void * *)
	?cancel@NmApiEventNotifier@EmailClientApi@@UAEXXZ @ 189 NONAME ; void EmailClientApi::NmApiEventNotifier::cancel(void)
	?totalSize@NmApiMessageEnvelope@EmailClientApi@@QBE_KXZ @ 190 NONAME ; unsigned long long EmailClientApi::NmApiMessageEnvelope::totalSize(void) const
	?metaObject@NmApiMessageTask@@UBEPBUQMetaObject@@XZ @ 191 NONAME ; struct QMetaObject const * NmApiMessageTask::metaObject(void) const
	?setMailboxId@NmApiMailboxSettingsData@EmailClientApi@@QAEX_K@Z @ 192 NONAME ; void EmailClientApi::NmApiMailboxSettingsData::setMailboxId(unsigned long long)
	?qt_metacast@NmApiEmailService@EmailClientApi@@UAEPAXPBD@Z @ 193 NONAME ; void * EmailClientApi::NmApiEmailService::qt_metacast(char const *)
	?content@NmApiMessageBody@EmailClientApi@@QBE?AVQString@@XZ @ 194 NONAME ; class QString EmailClientApi::NmApiMessageBody::content(void) const
	?trUtf8@NmApiFolderListing@EmailClientApi@@SA?AVQString@@PBD0@Z @ 195 NONAME ; class QString EmailClientApi::NmApiFolderListing::trUtf8(char const *, char const *)
	?qt_metacall@NmApiFolderListing@EmailClientApi@@UAEHW4Call@QMetaObject@@HPAPAX@Z @ 196 NONAME ; int EmailClientApi::NmApiFolderListing::qt_metacall(enum QMetaObject::Call, int, void * *)
	??0NmApiMessageTask@@IAE@PAVQObject@@@Z @ 197 NONAME ; NmApiMessageTask::NmApiMessageTask(class QObject *)
	?setAddress@NmApiMailbox@EmailClientApi@@QAEXABVQString@@@Z @ 198 NONAME ; void EmailClientApi::NmApiMailbox::setAddress(class QString const &)
	?trUtf8@NmApiEnvelopeListing@EmailClientApi@@SA?AVQString@@PBD0@Z @ 199 NONAME ; class QString EmailClientApi::NmApiEnvelopeListing::trUtf8(char const *, char const *)
	?tr@NmApiMessageTask@@SA?AVQString@@PBD0@Z @ 200 NONAME ; class QString NmApiMessageTask::tr(char const *, char const *)
	?getStaticMetaObject@NmApiMessageTask@@SAABUQMetaObject@@XZ @ 201 NONAME ; struct QMetaObject const & NmApiMessageTask::getStaticMetaObject(void)
	?setAddress@NmApiEmailAddress@EmailClientApi@@QAEXABVQString@@@Z @ 202 NONAME ; void EmailClientApi::NmApiEmailAddress::setAddress(class QString const &)
	?address@NmApiEmailAddress@EmailClientApi@@QBE?AVQString@@XZ @ 203 NONAME ; class QString EmailClientApi::NmApiEmailAddress::address(void) const
	?isForwarded@NmApiMessageEnvelope@EmailClientApi@@QBE_NXZ @ 204 NONAME ; bool EmailClientApi::NmApiMessageEnvelope::isForwarded(void) const
	?qt_metacast@NmApiMailboxListing@EmailClientApi@@UAEPAXPBD@Z @ 205 NONAME ; void * EmailClientApi::NmApiMailboxListing::qt_metacast(char const *)
	??8NmApiMailbox@EmailClientApi@@QAE_NABV01@@Z @ 206 NONAME ; bool EmailClientApi::NmApiMailbox::operator==(class EmailClientApi::NmApiMailbox const &)
	?mailboxesListed@NmApiMailboxListing@EmailClientApi@@IAEXH@Z @ 207 NONAME ; void EmailClientApi::NmApiMailboxListing::mailboxesListed(int)
	?setId@NmApiFolder@EmailClientApi@@QAEX_K@Z @ 208 NONAME ; void EmailClientApi::NmApiFolder::setId(unsigned long long)
	??0NmApiEmailService@EmailClientApi@@QAE@PAVQObject@@@Z @ 209 NONAME ; EmailClientApi::NmApiEmailService::NmApiEmailService(class QObject *)
	??0NmApiSettingsManager@EmailClientApi@@QAE@_K@Z @ 210 NONAME ; EmailClientApi::NmApiSettingsManager::NmApiSettingsManager(unsigned long long)
	?staticMetaObject@NmApiFolderListing@EmailClientApi@@2UQMetaObject@@B @ 211 NONAME ; struct QMetaObject const EmailClientApi::NmApiFolderListing::staticMetaObject
	?populateDefaultSettings@NmApiMailboxSettings@EmailClientApi@@QAE_NABVQString@@AAVNmApiMailboxSettingsData@2@@Z @ 212 NONAME ; bool EmailClientApi::NmApiMailboxSettings::populateDefaultSettings(class QString const &, class EmailClientApi::NmApiMailboxSettingsData &)
	??1NmApiEmailService@EmailClientApi@@UAE@XZ @ 213 NONAME ; EmailClientApi::NmApiEmailService::~NmApiEmailService(void)
	?trUtf8@NmApiMessageTask@@SA?AVQString@@PBD0H@Z @ 214 NONAME ; class QString NmApiMessageTask::trUtf8(char const *, char const *, int)
	?clearSettings@NmApiMailboxSettingsData@EmailClientApi@@QAEXXZ @ 215 NONAME ; void EmailClientApi::NmApiMailboxSettingsData::clearSettings(void)
	??_ENmApiEmailService@EmailClientApi@@UAE@I@Z @ 216 NONAME ; EmailClientApi::NmApiEmailService::~NmApiEmailService(unsigned int)
	?getMailbox@NmApiEmailService@EmailClientApi@@QAE_N_KAAVNmApiMailbox@2@@Z @ 217 NONAME ; bool EmailClientApi::NmApiEmailService::getMailbox(unsigned long long, class EmailClientApi::NmApiMailbox &)
	?setValue@NmApiMailboxSettingsData@EmailClientApi@@QAEXHABVQVariant@@@Z @ 218 NONAME ; void EmailClientApi::NmApiMailboxSettingsData::setValue(int, class QVariant const &)
	?setTotalSize@NmApiMessageBody@EmailClientApi@@QAEX_K@Z @ 219 NONAME ; void EmailClientApi::NmApiMessageBody::setTotalSize(unsigned long long)
	??8NmApiEmailAddress@EmailClientApi@@QAE_NABV01@@Z @ 220 NONAME ; bool EmailClientApi::NmApiEmailAddress::operator==(class EmailClientApi::NmApiEmailAddress const &)
	??0NmApiEmailAddress@EmailClientApi@@QAE@XZ @ 221 NONAME ; EmailClientApi::NmApiEmailAddress::NmApiEmailAddress(void)
	??1NmApiMessageTask@@UAE@XZ @ 222 NONAME ; NmApiMessageTask::~NmApiMessageTask(void)
	?mailboxId@NmApiMailboxSettingsData@EmailClientApi@@QBE_KXZ @ 223 NONAME ; unsigned long long EmailClientApi::NmApiMailboxSettingsData::mailboxId(void) const
	?getCcRecipients@NmApiMessageEnvelope@EmailClientApi@@QAEXAAV?$QList@VNmApiEmailAddress@EmailClientApi@@@@@Z @ 224 NONAME ; void EmailClientApi::NmApiMessageEnvelope::getCcRecipients(class QList<class EmailClientApi::NmApiEmailAddress> &)
	??8NmApiMessageEnvelope@EmailClientApi@@QAE_NABV01@@Z @ 225 NONAME ; bool EmailClientApi::NmApiMessageEnvelope::operator==(class EmailClientApi::NmApiMessageEnvelope const &)
	?mailboxEvent@NmApiEventNotifier@EmailClientApi@@IAEXW4NmApiMailboxEvent@2@V?$QList@_K@@@Z @ 226 NONAME ; void EmailClientApi::NmApiEventNotifier::mailboxEvent(enum EmailClientApi::NmApiMailboxEvent, class QList<unsigned long long>)
	??0NmApiMailbox@EmailClientApi@@QAE@XZ @ 227 NONAME ; EmailClientApi::NmApiMailbox::NmApiMailbox(void)
	??0NmApiEventNotifier@EmailClientApi@@QAE@PAVQObject@@@Z @ 228 NONAME ; EmailClientApi::NmApiEventNotifier::NmApiEventNotifier(class QObject *)
	?setId@NmApiMailbox@EmailClientApi@@QAEX_K@Z @ 229 NONAME ; void EmailClientApi::NmApiMailbox::setId(unsigned long long)
	?save@NmApiSettingsManager@EmailClientApi@@QAE_NABVNmApiMailboxSettingsData@2@@Z @ 230 NONAME ; bool EmailClientApi::NmApiSettingsManager::save(class EmailClientApi::NmApiMailboxSettingsData const &)
	?cancel@NmApiMailboxListing@EmailClientApi@@UAEXXZ @ 231 NONAME ; void EmailClientApi::NmApiMailboxListing::cancel(void)
	?getMailboxes@NmApiMailboxListing@EmailClientApi@@QAE_NAAV?$QList@VNmApiMailbox@EmailClientApi@@@@@Z @ 232 NONAME ; bool EmailClientApi::NmApiMailboxListing::getMailboxes(class QList<class EmailClientApi::NmApiMailbox> &)
	?trUtf8@NmApiEventNotifier@EmailClientApi@@SA?AVQString@@PBD0@Z @ 233 NONAME ; class QString EmailClientApi::NmApiEventNotifier::trUtf8(char const *, char const *)
	??_ENmApiFolderListing@EmailClientApi@@UAE@I@Z @ 234 NONAME ; EmailClientApi::NmApiFolderListing::~NmApiFolderListing(unsigned int)
	??_ENmApiMessageTask@@UAE@I@Z @ 235 NONAME ; NmApiMessageTask::~NmApiMessageTask(unsigned int)
	?getStaticMetaObject@NmApiMessageManager@EmailClientApi@@SAABUQMetaObject@@XZ @ 236 NONAME ; struct QMetaObject const & EmailClientApi::NmApiMessageManager::getStaticMetaObject(void)
	?isRunning@NmApiEnvelopeListing@EmailClientApi@@QBE_NXZ @ 237 NONAME ; bool EmailClientApi::NmApiEnvelopeListing::isRunning(void) const
	?staticMetaObject@NmApiMessageManager@EmailClientApi@@2UQMetaObject@@B @ 238 NONAME ; struct QMetaObject const EmailClientApi::NmApiMessageManager::staticMetaObject
	?isRunning@NmApiEventNotifier@EmailClientApi@@QBE_NXZ @ 239 NONAME ; bool EmailClientApi::NmApiEventNotifier::isRunning(void) const
	?setIsReplied@NmApiMessageEnvelope@EmailClientApi@@QAEX_N@Z @ 240 NONAME ; void EmailClientApi::NmApiMessageEnvelope::setIsReplied(bool)
	?sendEventsFromBuffer@NmApiEventNotifier@EmailClientApi@@QAEXXZ @ 241 NONAME ; void EmailClientApi::NmApiEventNotifier::sendEventsFromBuffer(void)
	?contentType@NmApiMessageEnvelope@EmailClientApi@@QBE?AVQString@@XZ @ 242 NONAME ; class QString EmailClientApi::NmApiMessageEnvelope::contentType(void) const
	?trUtf8@NmApiMailboxListing@EmailClientApi@@SA?AVQString@@PBD0H@Z @ 243 NONAME ; class QString EmailClientApi::NmApiMailboxListing::trUtf8(char const *, char const *, int)
	?setParentFolderId@NmApiFolder@EmailClientApi@@QAEX_K@Z @ 244 NONAME ; void EmailClientApi::NmApiFolder::setParentFolderId(unsigned long long)
	?qt_metacall@NmApiMailboxSettings@EmailClientApi@@UAEHW4Call@QMetaObject@@HPAPAX@Z @ 245 NONAME ; int EmailClientApi::NmApiMailboxSettings::qt_metacall(enum QMetaObject::Call, int, void * *)
	?start@NmApiFolderListing@EmailClientApi@@UAE_NXZ @ 246 NONAME ; bool EmailClientApi::NmApiFolderListing::start(void)
	?cancel@NmApiFolderListing@EmailClientApi@@UAEXXZ @ 247 NONAME ; void EmailClientApi::NmApiFolderListing::cancel(void)
	??_ENmApiSettingsManager@EmailClientApi@@UAE@I@Z @ 248 NONAME ; EmailClientApi::NmApiSettingsManager::~NmApiSettingsManager(unsigned int)
	??1NmApiMessageContent@EmailClientApi@@UAE@XZ @ 249 NONAME ; EmailClientApi::NmApiMessageContent::~NmApiMessageContent(void)
	?isComplete@NmApiMessage@EmailClientApi@@QAE_NXZ @ 250 NONAME ; bool EmailClientApi::NmApiMessage::isComplete(void)
	?fetchMessage@NmApiMessageManager@EmailClientApi@@QAE_N_K@Z @ 251 NONAME ABSENT ; bool EmailClientApi::NmApiMessageManager::fetchMessage(unsigned long long)
	??1NmApiAttachment@EmailClientApi@@UAE@XZ @ 252 NONAME ; EmailClientApi::NmApiAttachment::~NmApiAttachment(void)
	??_ENmApiMessage@EmailClientApi@@UAE@I@Z @ 253 NONAME ; EmailClientApi::NmApiMessage::~NmApiMessage(unsigned int)
	?file@NmApiAttachment@EmailClientApi@@QAE?AVXQSharableFile@@XZ @ 254 NONAME ; class XQSharableFile EmailClientApi::NmApiAttachment::file(void)
	?setAttachments@NmApiMessage@EmailClientApi@@QAEXAAV?$QList@VNmApiAttachment@EmailClientApi@@@@@Z @ 255 NONAME ; void EmailClientApi::NmApiMessage::setAttachments(class QList<class EmailClientApi::NmApiAttachment> &)
	?getBccRecipients@NmApiMessageEnvelope@EmailClientApi@@QAEXAAV?$QList@VNmApiEmailAddress@EmailClientApi@@@@@Z @ 256 NONAME ; void EmailClientApi::NmApiMessageEnvelope::getBccRecipients(class QList<class EmailClientApi::NmApiEmailAddress> &)
	?setMailboxId@NmApiMessageEnvelope@EmailClientApi@@QAEX_K@Z @ 257 NONAME ; void EmailClientApi::NmApiMessageEnvelope::setMailboxId(unsigned long long)
	?setContentType@NmApiMessageContent@EmailClientApi@@QAEXABVQString@@@Z @ 258 NONAME ; void EmailClientApi::NmApiMessageContent::setContentType(class QString const &)
	??0NmApiTextContent@EmailClientApi@@QAE@ABV01@@Z @ 259 NONAME ABSENT ; EmailClientApi::NmApiTextContent::NmApiTextContent(class EmailClientApi::NmApiTextContent const &)
	?createForwardMessage@NmApiMessageManager@EmailClientApi@@QAE_NPAVNmApiMessage@2@PBVQVariant@@@Z @ 260 NONAME ABSENT ; bool EmailClientApi::NmApiMessageManager::createForwardMessage(class EmailClientApi::NmApiMessage *, class QVariant const *)
	?createReplyMessage@NmApiMessageManager@EmailClientApi@@QAE_NPBVNmApiMessage@2@PBVQVariant@@_N@Z @ 261 NONAME ABSENT ; bool EmailClientApi::NmApiMessageManager::createReplyMessage(class EmailClientApi::NmApiMessage const *, class QVariant const *, bool)
	??0NmApiMessageContent@EmailClientApi@@QAE@ABV01@@Z @ 262 NONAME ABSENT ; EmailClientApi::NmApiMessageContent::NmApiMessageContent(class EmailClientApi::NmApiMessageContent const &)
	?setId@NmApiMessageContent@EmailClientApi@@QAEX_K@Z @ 263 NONAME ; void EmailClientApi::NmApiMessageContent::setId(unsigned long long)
	?setEnvelope@NmApiMessage@EmailClientApi@@QAEXAAVNmApiMessageEnvelope@2@@Z @ 264 NONAME ; void EmailClientApi::NmApiMessage::setEnvelope(class EmailClientApi::NmApiMessageEnvelope &)
	??0NmApiMessageManager@EmailClientApi@@QAE@PAVQObject@@_K@Z @ 265 NONAME ; EmailClientApi::NmApiMessageManager::NmApiMessageManager(class QObject *, unsigned long long)
	?isComplete@NmApiMessageContent@EmailClientApi@@QAE_NXZ @ 266 NONAME ; bool EmailClientApi::NmApiMessageContent::isComplete(void)
	?mailboxId@NmApiMessageEnvelope@EmailClientApi@@QBE_KXZ @ 267 NONAME ; unsigned long long EmailClientApi::NmApiMessageEnvelope::mailboxId(void) const
	?id@NmApiMessageContent@EmailClientApi@@QBE_KXZ @ 268 NONAME ; unsigned long long EmailClientApi::NmApiMessageContent::id(void) const
	?setHtmlContent@NmApiMessage@EmailClientApi@@QAEXAAVNmApiTextContent@2@@Z @ 269 NONAME ; void EmailClientApi::NmApiMessage::setHtmlContent(class EmailClientApi::NmApiTextContent &)
	??0NmApiMessage@EmailClientApi@@QAE@XZ @ 270 NONAME ; EmailClientApi::NmApiMessage::NmApiMessage(void)
	?sendMessage@NmApiMessageManager@EmailClientApi@@QAE_NABVNmApiMessage@2@@Z @ 271 NONAME ABSENT ; bool EmailClientApi::NmApiMessageManager::sendMessage(class EmailClientApi::NmApiMessage const &)
	?setComplete@NmApiMessageContent@EmailClientApi@@QAEX_N@Z @ 272 NONAME ; void EmailClientApi::NmApiMessageContent::setComplete(bool)
	?size@NmApiMessageContent@EmailClientApi@@QBEIXZ @ 273 NONAME ; unsigned int EmailClientApi::NmApiMessageContent::size(void) const
	?plainTextContent@NmApiMessage@EmailClientApi@@QAE?AVNmApiTextContent@2@XZ @ 274 NONAME ; class EmailClientApi::NmApiTextContent EmailClientApi::NmApiMessage::plainTextContent(void)
	??_ENmApiAttachment@EmailClientApi@@UAE@I@Z @ 275 NONAME ; EmailClientApi::NmApiAttachment::~NmApiAttachment(unsigned int)
	??_ENmApiMessageContent@EmailClientApi@@UAE@I@Z @ 276 NONAME ; EmailClientApi::NmApiMessageContent::~NmApiMessageContent(unsigned int)
	?envelope@NmApiMessage@EmailClientApi@@QAEAAVNmApiMessageEnvelope@2@XZ @ 277 NONAME ; class EmailClientApi::NmApiMessageEnvelope & EmailClientApi::NmApiMessage::envelope(void)
	?fetchAttachment@NmApiMessageManager@EmailClientApi@@QAE_NABVNmApiMessage@2@_K@Z @ 278 NONAME ABSENT ; bool EmailClientApi::NmApiMessageManager::fetchAttachment(class EmailClientApi::NmApiMessage const &, unsigned long long)
	?htmlContent@NmApiMessage@EmailClientApi@@QAE?AVNmApiTextContent@2@XZ @ 279 NONAME ; class EmailClientApi::NmApiTextContent EmailClientApi::NmApiMessage::htmlContent(void)
	??1NmApiTextContent@EmailClientApi@@UAE@XZ @ 280 NONAME ; EmailClientApi::NmApiTextContent::~NmApiTextContent(void)
	?setSize@NmApiMessageContent@EmailClientApi@@QAEXI@Z @ 281 NONAME ; void EmailClientApi::NmApiMessageContent::setSize(unsigned int)
	?saveMessage@NmApiMessageManager@EmailClientApi@@QAE_NABVNmApiMessage@2@@Z @ 282 NONAME ABSENT ; bool EmailClientApi::NmApiMessageManager::saveMessage(class EmailClientApi::NmApiMessage const &)
	?content@NmApiTextContent@EmailClientApi@@QBE?AVQString@@XZ @ 283 NONAME ; class QString EmailClientApi::NmApiTextContent::content(void) const
	??0NmApiAttachment@EmailClientApi@@QAE@ABV01@@Z @ 284 NONAME ; EmailClientApi::NmApiAttachment::NmApiAttachment(class EmailClientApi::NmApiAttachment const &)
	??_ENmApiTextContent@EmailClientApi@@UAE@I@Z @ 285 NONAME ; EmailClientApi::NmApiTextContent::~NmApiTextContent(unsigned int)
	?removeAttachment@NmApiMessageManager@EmailClientApi@@QAE_NAAVNmApiMessage@2@_K@Z @ 286 NONAME ABSENT ; bool EmailClientApi::NmApiMessageManager::removeAttachment(class EmailClientApi::NmApiMessage &, unsigned long long)
	??4NmApiMessageContent@EmailClientApi@@QAEAAV01@ABV01@@Z @ 287 NONAME ABSENT ; class EmailClientApi::NmApiMessageContent & EmailClientApi::NmApiMessageContent::operator=(class EmailClientApi::NmApiMessageContent const &)
	?setContent@NmApiTextContent@EmailClientApi@@QAEXABVQString@@@Z @ 288 NONAME ; void EmailClientApi::NmApiTextContent::setContent(class QString const &)
	??0NmApiMessageContent@EmailClientApi@@QAE@XZ @ 289 NONAME ; EmailClientApi::NmApiMessageContent::NmApiMessageContent(void)
	?fileName@NmApiAttachment@EmailClientApi@@QAE?AVQString@@XZ @ 290 NONAME ; class QString EmailClientApi::NmApiAttachment::fileName(void)
	??4NmApiTextContent@EmailClientApi@@QAEAAV01@ABV01@@Z @ 291 NONAME ABSENT ; class EmailClientApi::NmApiTextContent & EmailClientApi::NmApiTextContent::operator=(class EmailClientApi::NmApiTextContent const &)
	??1NmApiMessage@EmailClientApi@@UAE@XZ @ 292 NONAME ; EmailClientApi::NmApiMessage::~NmApiMessage(void)
	?setPlainTextContent@NmApiMessage@EmailClientApi@@QAEXAAVNmApiTextContent@2@@Z @ 293 NONAME ; void EmailClientApi::NmApiMessage::setPlainTextContent(class EmailClientApi::NmApiTextContent &)
	?setBccRecipients@NmApiMessageEnvelope@EmailClientApi@@QAEXABV?$QList@VNmApiEmailAddress@EmailClientApi@@@@@Z @ 294 NONAME ; void EmailClientApi::NmApiMessageEnvelope::setBccRecipients(class QList<class EmailClientApi::NmApiEmailAddress> const &)
	?setFileName@NmApiAttachment@EmailClientApi@@QAEXABVQString@@@Z @ 295 NONAME ; void EmailClientApi::NmApiAttachment::setFileName(class QString const &)
	?attachments@NmApiMessage@EmailClientApi@@QAE?AV?$QList@VNmApiAttachment@EmailClientApi@@@@XZ @ 296 NONAME ; class QList<class EmailClientApi::NmApiAttachment> EmailClientApi::NmApiMessage::attachments(void)
	??0NmApiAttachment@EmailClientApi@@QAE@XZ @ 297 NONAME ; EmailClientApi::NmApiAttachment::NmApiAttachment(void)
	?contentType@NmApiMessageContent@EmailClientApi@@QBE?AVQString@@XZ @ 298 NONAME ; class QString EmailClientApi::NmApiMessageContent::contentType(void) const
	?setComplete@NmApiMessage@EmailClientApi@@QAEX_N@Z @ 299 NONAME ; void EmailClientApi::NmApiMessage::setComplete(bool)
	?createAttachment@NmApiMessageManager@EmailClientApi@@QAE_NAAVNmApiMessage@2@ABVQVariant@@@Z @ 300 NONAME ABSENT ; bool EmailClientApi::NmApiMessageManager::createAttachment(class EmailClientApi::NmApiMessage &, class QVariant const &)
	?addAttachment@NmApiMessage@EmailClientApi@@QAEXAAVNmApiAttachment@2@@Z @ 301 NONAME ; void EmailClientApi::NmApiMessage::addAttachment(class EmailClientApi::NmApiAttachment &)
	??0NmApiTextContent@EmailClientApi@@QAE@XZ @ 302 NONAME ; EmailClientApi::NmApiTextContent::NmApiTextContent(void)
	?trUtf8@NmApiMessageSearch@EmailClientApi@@SA?AVQString@@PBD0@Z @ 303 NONAME ; class QString EmailClientApi::NmApiMessageSearch::trUtf8(char const *, char const *)
	?searchComplete@NmApiMessageSearch@EmailClientApi@@IAEXH@Z @ 304 NONAME ; void EmailClientApi::NmApiMessageSearch::searchComplete(int)
	??_ENmApiMessageSearch@EmailClientApi@@UAE@I@Z @ 305 NONAME ; EmailClientApi::NmApiMessageSearch::~NmApiMessageSearch(unsigned int)
	?tr@NmApiMessageSearch@EmailClientApi@@SA?AVQString@@PBD0@Z @ 306 NONAME ; class QString EmailClientApi::NmApiMessageSearch::tr(char const *, char const *)
	?tr@NmApiMessageSearch@EmailClientApi@@SA?AVQString@@PBD0H@Z @ 307 NONAME ; class QString EmailClientApi::NmApiMessageSearch::tr(char const *, char const *, int)
	?getStaticMetaObject@NmApiMessageSearch@EmailClientApi@@SAABUQMetaObject@@XZ @ 308 NONAME ; struct QMetaObject const & EmailClientApi::NmApiMessageSearch::getStaticMetaObject(void)
	??0NmApiMessageSearch@EmailClientApi@@QAE@PAVQObject@@_K@Z @ 309 NONAME ; EmailClientApi::NmApiMessageSearch::NmApiMessageSearch(class QObject *, unsigned long long)
	?initialise@NmApiMessageSearch@EmailClientApi@@QAE_NABV?$QList@VQString@@@@VNmApiMailSortCriteria@2@@Z @ 310 NONAME ; bool EmailClientApi::NmApiMessageSearch::initialise(class QList<class QString> const &, class EmailClientApi::NmApiMailSortCriteria)
	?qt_metacall@NmApiMessageSearch@EmailClientApi@@UAEHW4Call@QMetaObject@@HPAPAX@Z @ 311 NONAME ; int EmailClientApi::NmApiMessageSearch::qt_metacall(enum QMetaObject::Call, int, void * *)
	?start@NmApiMessageSearch@EmailClientApi@@UAE_NXZ @ 312 NONAME ; bool EmailClientApi::NmApiMessageSearch::start(void)
	?qt_metacast@NmApiMessageSearch@EmailClientApi@@UAEPAXPBD@Z @ 313 NONAME ; void * EmailClientApi::NmApiMessageSearch::qt_metacast(char const *)
	??1NmApiMessageSearch@EmailClientApi@@UAE@XZ @ 314 NONAME ; EmailClientApi::NmApiMessageSearch::~NmApiMessageSearch(void)
	?metaObject@NmApiMessageSearch@EmailClientApi@@UBEPBUQMetaObject@@XZ @ 315 NONAME ; struct QMetaObject const * EmailClientApi::NmApiMessageSearch::metaObject(void) const
	?messageFound@NmApiMessageSearch@EmailClientApi@@IAEXAAVNmApiMessage@2@@Z @ 316 NONAME ; void EmailClientApi::NmApiMessageSearch::messageFound(class EmailClientApi::NmApiMessage &)
	?isRunning@NmApiMessageSearch@EmailClientApi@@QBE_NXZ @ 317 NONAME ; bool EmailClientApi::NmApiMessageSearch::isRunning(void) const
	??0NmApiMessage@EmailClientApi@@QAE@ABV01@@Z @ 318 NONAME ABSENT ; EmailClientApi::NmApiMessage::NmApiMessage(class EmailClientApi::NmApiMessage const &)
	?trUtf8@NmApiMessageSearch@EmailClientApi@@SA?AVQString@@PBD0H@Z @ 319 NONAME ; class QString EmailClientApi::NmApiMessageSearch::trUtf8(char const *, char const *, int)
	?staticMetaObject@NmApiMessageSearch@EmailClientApi@@2UQMetaObject@@B @ 320 NONAME ; struct QMetaObject const EmailClientApi::NmApiMessageSearch::staticMetaObject
	?cancel@NmApiMessageSearch@EmailClientApi@@UAEXXZ @ 321 NONAME ; void EmailClientApi::NmApiMessageSearch::cancel(void)
	?setPriority@NmApiMessageEnvelope@EmailClientApi@@QAEXW4NmApiMessagePriority@2@@Z @ 322 NONAME ; void EmailClientApi::NmApiMessageEnvelope::setPriority(enum EmailClientApi::NmApiMessagePriority)
	?priority@NmApiMessageEnvelope@EmailClientApi@@QBE?AW4NmApiMessagePriority@2@XZ @ 323 NONAME ; enum EmailClientApi::NmApiMessagePriority EmailClientApi::NmApiMessageEnvelope::priority(void) const
	?setFlags@NmApiMessageEnvelope@EmailClientApi@@QAEXV?$QFlags@W4NmApiMessageFlag@EmailClientApi@@@@_N@Z @ 324 NONAME ; void EmailClientApi::NmApiMessageEnvelope::setFlags(class QFlags<enum EmailClientApi::NmApiMessageFlag>, bool)
	?isFlagSet@NmApiMessageEnvelope@EmailClientApi@@QBE_NW4NmApiMessageFlag@2@@Z @ 325 NONAME ; bool EmailClientApi::NmApiMessageEnvelope::isFlagSet(enum EmailClientApi::NmApiMessageFlag) const
	?setFlag@NmApiMessageEnvelope@EmailClientApi@@QAEXW4NmApiMessageFlag@2@_N@Z @ 326 NONAME ; void EmailClientApi::NmApiMessageEnvelope::setFlag(enum EmailClientApi::NmApiMessageFlag, bool)
	?flags@NmApiMessageEnvelope@EmailClientApi@@QBE?AV?$QFlags@W4NmApiMessageFlag@EmailClientApi@@@@XZ @ 327 NONAME ; class QFlags<enum EmailClientApi::NmApiMessageFlag> EmailClientApi::NmApiMessageEnvelope::flags(void) const
	?getMessage@NmApiEmailService@EmailClientApi@@QAE_N_K00AAVNmApiMessage@2@@Z @ 328 NONAME ; bool EmailClientApi::NmApiEmailService::getMessage(unsigned long long, unsigned long long, unsigned long long, class EmailClientApi::NmApiMessage &)
	?getFolder@NmApiEmailService@EmailClientApi@@QAE_N_K0AAVNmApiFolder@2@@Z @ 329 NONAME ; bool EmailClientApi::NmApiEmailService::getFolder(unsigned long long, unsigned long long, class EmailClientApi::NmApiFolder &)
	?staticMetaObject@NmApiOperation@EmailClientApi@@2UQMetaObject@@B @ 330 NONAME ; struct QMetaObject const EmailClientApi::NmApiOperation::staticMetaObject
	?saveMessage@NmApiMessageManager@EmailClientApi@@QAE?AV?$QPointer@VNmApiOperation@EmailClientApi@@@@ABVNmApiMessage@2@@Z @ 331 NONAME ; class QPointer<class EmailClientApi::NmApiOperation> EmailClientApi::NmApiMessageManager::saveMessage(class EmailClientApi::NmApiMessage const &)
	?moveMessages@NmApiMessageManager@EmailClientApi@@QAE?AV?$QPointer@VNmApiOperation@EmailClientApi@@@@V?$QList@_K@@_K1@Z @ 332 NONAME ; class QPointer<class EmailClientApi::NmApiOperation> EmailClientApi::NmApiMessageManager::moveMessages(class QList<unsigned long long>, unsigned long long, unsigned long long)
	?removeAttachment@NmApiMessageManager@EmailClientApi@@QAE?AV?$QPointer@VNmApiOperation@EmailClientApi@@@@AAVNmApiMessage@2@_K@Z @ 333 NONAME ; class QPointer<class EmailClientApi::NmApiOperation> EmailClientApi::NmApiMessageManager::removeAttachment(class EmailClientApi::NmApiMessage &, unsigned long long)
	?trUtf8@NmApiOperation@EmailClientApi@@SA?AVQString@@PBD0H@Z @ 334 NONAME ; class QString EmailClientApi::NmApiOperation::trUtf8(char const *, char const *, int)
	?createAttachment@NmApiMessageManager@EmailClientApi@@QAE?AV?$QPointer@VNmApiOperation@EmailClientApi@@@@AAVNmApiMessage@2@ABVQVariant@@@Z @ 335 NONAME ; class QPointer<class EmailClientApi::NmApiOperation> EmailClientApi::NmApiMessageManager::createAttachment(class EmailClientApi::NmApiMessage &, class QVariant const &)
	??1NmApiOperation@EmailClientApi@@UAE@XZ @ 336 NONAME ; EmailClientApi::NmApiOperation::~NmApiOperation(void)
	?operationComplete@NmApiOperation@EmailClientApi@@IAEXHVQVariant@@@Z @ 337 NONAME ; void EmailClientApi::NmApiOperation::operationComplete(int, class QVariant)
	?createDraftMessage@NmApiMessageManager@EmailClientApi@@QAE?AV?$QPointer@VNmApiOperation@EmailClientApi@@@@PBVQVariant@@@Z @ 338 NONAME ; class QPointer<class EmailClientApi::NmApiOperation> EmailClientApi::NmApiMessageManager::createDraftMessage(class QVariant const *)
	?createForwardMessage@NmApiMessageManager@EmailClientApi@@QAE?AV?$QPointer@VNmApiOperation@EmailClientApi@@@@PAVNmApiMessage@2@PBVQVariant@@@Z @ 339 NONAME ; class QPointer<class EmailClientApi::NmApiOperation> EmailClientApi::NmApiMessageManager::createForwardMessage(class EmailClientApi::NmApiMessage *, class QVariant const *)
	?operation@NmApiOperation@EmailClientApi@@QBE?AW4NmApiOperationType@2@XZ @ 340 NONAME ; enum EmailClientApi::NmApiOperationType EmailClientApi::NmApiOperation::operation(void) const
	??_ENmApiOperation@EmailClientApi@@UAE@I@Z @ 341 NONAME ; EmailClientApi::NmApiOperation::~NmApiOperation(unsigned int)
	??0NmApiOperation@EmailClientApi@@IAE@PAVQObject@@W4NmApiOperationStatus@1@W4NmApiOperationType@1@@Z @ 342 NONAME ; EmailClientApi::NmApiOperation::NmApiOperation(class QObject *, enum EmailClientApi::NmApiOperationStatus, enum EmailClientApi::NmApiOperationType)
	?deleteMessages@NmApiMessageManager@EmailClientApi@@QAE?AV?$QPointer@VNmApiOperation@EmailClientApi@@@@V?$QList@_K@@@Z @ 343 NONAME ; class QPointer<class EmailClientApi::NmApiOperation> EmailClientApi::NmApiMessageManager::deleteMessages(class QList<unsigned long long>)
	?tr@NmApiOperation@EmailClientApi@@SA?AVQString@@PBD0@Z @ 344 NONAME ; class QString EmailClientApi::NmApiOperation::tr(char const *, char const *)
	?qt_metacast@NmApiOperation@EmailClientApi@@UAEPAXPBD@Z @ 345 NONAME ; void * EmailClientApi::NmApiOperation::qt_metacast(char const *)
	?fetchMessage@NmApiMessageManager@EmailClientApi@@QAE?AV?$QPointer@VNmApiOperation@EmailClientApi@@@@_K@Z @ 346 NONAME ; class QPointer<class EmailClientApi::NmApiOperation> EmailClientApi::NmApiMessageManager::fetchMessage(unsigned long long)
	?fetchAttachment@NmApiMessageManager@EmailClientApi@@QAE?AV?$QPointer@VNmApiOperation@EmailClientApi@@@@ABVNmApiMessage@2@_K@Z @ 347 NONAME ; class QPointer<class EmailClientApi::NmApiOperation> EmailClientApi::NmApiMessageManager::fetchAttachment(class EmailClientApi::NmApiMessage const &, unsigned long long)
	?qt_metacall@NmApiOperation@EmailClientApi@@UAEHW4Call@QMetaObject@@HPAPAX@Z @ 348 NONAME ; int EmailClientApi::NmApiOperation::qt_metacall(enum QMetaObject::Call, int, void * *)
	?metaObject@NmApiOperation@EmailClientApi@@UBEPBUQMetaObject@@XZ @ 349 NONAME ; struct QMetaObject const * EmailClientApi::NmApiOperation::metaObject(void) const
	?status@NmApiOperation@EmailClientApi@@QBE?AW4NmApiOperationStatus@2@XZ @ 350 NONAME ; enum EmailClientApi::NmApiOperationStatus EmailClientApi::NmApiOperation::status(void) const
	?tr@NmApiOperation@EmailClientApi@@SA?AVQString@@PBD0H@Z @ 351 NONAME ; class QString EmailClientApi::NmApiOperation::tr(char const *, char const *, int)
	?sendMessage@NmApiMessageManager@EmailClientApi@@QAE?AV?$QPointer@VNmApiOperation@EmailClientApi@@@@ABVNmApiMessage@2@@Z @ 352 NONAME ; class QPointer<class EmailClientApi::NmApiOperation> EmailClientApi::NmApiMessageManager::sendMessage(class EmailClientApi::NmApiMessage const &)
	?createReplyMessage@NmApiMessageManager@EmailClientApi@@QAE?AV?$QPointer@VNmApiOperation@EmailClientApi@@@@PBVNmApiMessage@2@PBVQVariant@@_N@Z @ 353 NONAME ; class QPointer<class EmailClientApi::NmApiOperation> EmailClientApi::NmApiMessageManager::createReplyMessage(class EmailClientApi::NmApiMessage const *, class QVariant const *, bool)
	?trUtf8@NmApiOperation@EmailClientApi@@SA?AVQString@@PBD0@Z @ 354 NONAME ; class QString EmailClientApi::NmApiOperation::trUtf8(char const *, char const *)
	?getStaticMetaObject@NmApiOperation@EmailClientApi@@SAABUQMetaObject@@XZ @ 355 NONAME ; struct QMetaObject const & EmailClientApi::NmApiOperation::getStaticMetaObject(void)
	??4NmApiMessage@EmailClientApi@@QAEAAV01@ABV01@@Z @ 356 NONAME ; class EmailClientApi::NmApiMessage & EmailClientApi::NmApiMessage::operator=(class EmailClientApi::NmApiMessage const &)
	??4NmApiAttachment@EmailClientApi@@QAEAAV01@ABV01@@Z @ 357 NONAME ; class EmailClientApi::NmApiAttachment & EmailClientApi::NmApiAttachment::operator=(class EmailClientApi::NmApiAttachment const &)
	?getMailboxType@NmApiMailboxSettings@EmailClientApi@@QAE?AVQString@@_K@Z @ 358 NONAME ; class QString EmailClientApi::NmApiMailboxSettings::getMailboxType(unsigned long long)

