EXPORTS
	?RemoveConversationChangeEventL@CCSRequestHandler@@QAEXPAVMCsConversationChangeObserver@@PAVCCsClientConversation@@@Z @ 1 NONAME ; void CCSRequestHandler::RemoveConversationChangeEventL(class MCsConversationChangeObserver *, class CCsClientConversation *)
	?GetConversationIdFromAddressL@CCSRequestHandler@@QAEHAAVTDesC16@@@Z @ 2 NONAME ; int CCSRequestHandler::GetConversationIdFromAddressL(class TDesC16 &)
	?RequestConversationListChangeEventL@CCSRequestHandler@@QAEXPAVMCsConversationListChangeObserver@@@Z @ 3 NONAME ; void CCSRequestHandler::RequestConversationListChangeEventL(class MCsConversationListChangeObserver *)
	?DeleteConversationL@CCSRequestHandler@@QAEXH@Z @ 4 NONAME ; void CCSRequestHandler::DeleteConversationL(int)
	?ShutdownServerL@CCSRequestHandler@@QAEXXZ @ 5 NONAME ; void CCSRequestHandler::ShutdownServerL(void)
	?GetTotalUnreadCountL@CCSRequestHandler@@QAEKXZ @ 6 NONAME ; unsigned long CCSRequestHandler::GetTotalUnreadCountL(void)
	?RemoveResultsEventL@CCSRequestHandler@@QAEXPAVMCsResultsObserver@@@Z @ 7 NONAME ; void CCSRequestHandler::RemoveResultsEventL(class MCsResultsObserver *)
	?MarkMessagingHistoryReadL@CCSRequestHandler@@QAEXH@Z @ 8 NONAME ; void CCSRequestHandler::MarkMessagingHistoryReadL(int)
	?RemoveCachingStatusEventL@CCSRequestHandler@@QAEXPAVMCsCachingStatusObserver@@@Z @ 9 NONAME ; void CCSRequestHandler::RemoveCachingStatusEventL(class MCsCachingStatusObserver *)
	?NewLC@CCSRequestHandler@@SAPAV1@XZ @ 10 NONAME ; class CCSRequestHandler * CCSRequestHandler::NewLC(void)
	?RequestResultsEventL@CCSRequestHandler@@QAEXPAVMCsResultsObserver@@@Z @ 11 NONAME ; void CCSRequestHandler::RequestResultsEventL(class MCsResultsObserver *)
	?GetConversationUnreadListL@CCSRequestHandler@@QAEXPAV?$RPointerArray@VCCsClientConversation@@@@@Z @ 12 NONAME ; void CCSRequestHandler::GetConversationUnreadListL(class RPointerArray<class CCsClientConversation> *)
	?GetConversationListL@CCSRequestHandler@@QAEXXZ @ 13 NONAME ; void CCSRequestHandler::GetConversationListL(void)
	?GetMessagingHistoryL@CCSRequestHandler@@QAEXHHH@Z @ 14 NONAME ; void CCSRequestHandler::GetMessagingHistoryL(int, int, int)
	?GetConversationFromMessageIdL@CCSRequestHandler@@QAEPAVCCsClientConversation@@H@Z @ 15 NONAME ; class CCsClientConversation * CCSRequestHandler::GetConversationFromMessageIdL(int)
	?Version@CCSRequestHandler@@QBE?AVTVersion@@XZ @ 16 NONAME ; class TVersion CCSRequestHandler::Version(void) const
	?GetCachingStatusL@CCSRequestHandler@@QAEEXZ @ 17 NONAME ; unsigned char CCSRequestHandler::GetCachingStatusL(void)
	?RequestCachingStatusEventL@CCSRequestHandler@@QAEXPAVMCsCachingStatusObserver@@@Z @ 18 NONAME ; void CCSRequestHandler::RequestCachingStatusEventL(class MCsCachingStatusObserver *)
	?RequestConversationChangeEventL@CCSRequestHandler@@QAEXPAVMCsConversationChangeObserver@@PAVCCsClientConversation@@@Z @ 19 NONAME ; void CCSRequestHandler::RequestConversationChangeEventL(class MCsConversationChangeObserver *, class CCsClientConversation *)
	?ClearMessagingHistoryL@CCSRequestHandler@@QAEXH@Z @ 20 NONAME ; void CCSRequestHandler::ClearMessagingHistoryL(int)
	?MarkConversationReadL@CCSRequestHandler@@QAEXH@Z @ 21 NONAME ; void CCSRequestHandler::MarkConversationReadL(int)
	?RemoveConversationListChangeEventL@CCSRequestHandler@@QAEXPAVMCsConversationListChangeObserver@@@Z @ 22 NONAME ; void CCSRequestHandler::RemoveConversationListChangeEventL(class MCsConversationListChangeObserver *)
	?GetConversationIdL@CCSRequestHandler@@QAEHH@Z @ 23 NONAME ; int CCSRequestHandler::GetConversationIdL(int)
	?GetConversationFromConversationIdL@CCSRequestHandler@@QAEPAVCCsClientConversation@@H@Z @ 24 NONAME ; class CCsClientConversation * CCSRequestHandler::GetConversationFromConversationIdL(int)
	?GetConversationsL@CCSRequestHandler@@QAEXPAVCCsClientConversation@@HH@Z @ 25 NONAME ; void CCSRequestHandler::GetConversationsL(class CCsClientConversation *, int, int)
	?NewL@CCSRequestHandler@@SAPAV1@XZ @ 26 NONAME ; class CCSRequestHandler * CCSRequestHandler::NewL(void)

