EXPORTS
	?tr@NmEditorTextEdit@@SA?AVQString@@PBD0H@Z @ 1 NONAME ; class QString NmEditorTextEdit::tr(char const *, char const *, int)
	??0NmAttachmentListWidget@@QAE@PAVQGraphicsItem@@@Z @ 2 NONAME ; NmAttachmentListWidget::NmAttachmentListWidget(class QGraphicsItem *)
	?setCustomTextColor@NmEditorTextEdit@@QAEX_NABVQColor@@@Z @ 3 NONAME ; void NmEditorTextEdit::setCustomTextColor(bool, class QColor const &)
	?staticMetaObject@NmAttachmentListWidget@@2UQMetaObject@@B @ 4 NONAME ; struct QMetaObject const NmAttachmentListWidget::staticMetaObject
	?setTextCursor@NmHtmlLineEdit@@QAEXABVQTextCursor@@@Z @ 5 NONAME ; void NmHtmlLineEdit::setTextCursor(class QTextCursor const &)
	?trUtf8@NmAttachmentListWidget@@SA?AVQString@@PBD0@Z @ 6 NONAME ; class QString NmAttachmentListWidget::trUtf8(char const *, char const *)
	?keyPressEventDelete@NmRecipientLineEdit@@AAEXPAVQKeyEvent@@@Z @ 7 NONAME ; void NmRecipientLineEdit::keyPressEventDelete(class QKeyEvent *)
	?createAutoFillPopup@NmRecipientLineEdit@@AAEXXZ @ 8 NONAME ; void NmRecipientLineEdit::createAutoFillPopup(void)
	??1NmBaseViewScrollArea@@UAE@XZ @ 9 NONAME ; NmBaseViewScrollArea::~NmBaseViewScrollArea(void)
	??_ENmBaseViewScrollArea@@UAE@I@Z @ 10 NONAME ; NmBaseViewScrollArea::~NmBaseViewScrollArea(unsigned int)
	?staticMetaObject@NmBaseViewScrollArea@@2UQMetaObject@@B @ 11 NONAME ; struct QMetaObject const NmBaseViewScrollArea::staticMetaObject
	?setBackgroundColor@NmAttachmentListWidget@@QAEXVQColor@@@Z @ 12 NONAME ; void NmAttachmentListWidget::setBackgroundColor(class QColor)
	?getStaticMetaObject@NmEditorTextEdit@@SAABUQMetaObject@@XZ @ 13 NONAME ; struct QMetaObject const & NmEditorTextEdit::getStaticMetaObject(void)
	?handleItemActivated@NmAttachmentListWidget@@AAEXXZ @ 14 NONAME ; void NmAttachmentListWidget::handleItemActivated(void)
	?trUtf8@NmRecipientLineEdit@@SA?AVQString@@PBD0@Z @ 15 NONAME ; class QString NmRecipientLineEdit::trUtf8(char const *, char const *)
	?setFileNameText@NmAttachmentListItem@@QAEXABVQString@@@Z @ 16 NONAME ; void NmAttachmentListItem::setFileNameText(class QString const &)
	?checkColor@NmAttachmentListWidget@@AAE?AVQColor@@XZ @ 17 NONAME ; class QColor NmAttachmentListWidget::checkColor(void)
	?handleMouseReleaseEvent@NmBaseViewScrollArea@@IAEXPAVQGraphicsSceneMouseEvent@@@Z @ 18 NONAME ; void NmBaseViewScrollArea::handleMouseReleaseEvent(class QGraphicsSceneMouseEvent *)
	?init@NmAttachmentListWidget@@AAEXXZ @ 19 NONAME ; void NmAttachmentListWidget::init(void)
	?qt_metacast@NmHtmlLineEdit@@UAEPAXPBD@Z @ 20 NONAME ; void * NmHtmlLineEdit::qt_metacast(char const *)
	?setProgressBarValue@NmAttachmentListItem@@QAEXH@Z @ 21 NONAME ; void NmAttachmentListItem::setProgressBarValue(int)
	?hasInputFocus@NmEditorTextEdit@@QBE_NXZ @ 22 NONAME ; bool NmEditorTextEdit::hasInputFocus(void) const
	?showAutofillPopup@NmRecipientLineEdit@@AAEXXZ @ 23 NONAME ; void NmRecipientLineEdit::showAutofillPopup(void)
	?updateCustomTextColor@NmEditorTextEdit@@QAEXXZ @ 24 NONAME ; void NmEditorTextEdit::updateCustomTextColor(void)
	?gestureEvent@NmAttachmentListItem@@MAEXPAVQGestureEvent@@@Z @ 25 NONAME ; void NmAttachmentListItem::gestureEvent(class QGestureEvent *)
	?getStaticMetaObject@NmAttachmentListWidget@@SAABUQMetaObject@@XZ @ 26 NONAME ; struct QMetaObject const & NmAttachmentListWidget::getStaticMetaObject(void)
	?rectForCursorPosition@NmEditorTextEdit@@QBE?AVQRectF@@XZ @ 27 NONAME ; class QRectF NmEditorTextEdit::rectForCursorPosition(void) const
	?itemLongPressed@NmAttachmentListItem@@IAEXVQPointF@@@Z @ 28 NONAME ; void NmAttachmentListItem::itemLongPressed(class QPointF)
	?generateEmailAddressList@NmRecipientLineEdit@@AAEXXZ @ 29 NONAME ; void NmRecipientLineEdit::generateEmailAddressList(void)
	??0NmBaseViewScrollArea@@QAE@PAVQGraphicsItem@@@Z @ 30 NONAME ; NmBaseViewScrollArea::NmBaseViewScrollArea(class QGraphicsItem *)
	?longPressed@NmAttachmentListWidget@@IAEXHVQPointF@@@Z @ 31 NONAME ; void NmAttachmentListWidget::longPressed(int, class QPointF)
	?tr@NmRecipientLineEdit@@SA?AVQString@@PBD0@Z @ 32 NONAME ; class QString NmRecipientLineEdit::tr(char const *, char const *)
	?metaObject@NmBaseViewScrollArea@@UBEPBUQMetaObject@@XZ @ 33 NONAME ; struct QMetaObject const * NmBaseViewScrollArea::metaObject(void) const
	?metaObject@NmEditorTextEdit@@UBEPBUQMetaObject@@XZ @ 34 NONAME ; struct QMetaObject const * NmEditorTextEdit::metaObject(void) const
	?tr@NmEditorTextEdit@@SA?AVQString@@PBD0@Z @ 35 NONAME ; class QString NmEditorTextEdit::tr(char const *, char const *)
	?staticMetaObject@NmEditorTextEdit@@2UQMetaObject@@B @ 36 NONAME ; struct QMetaObject const NmEditorTextEdit::staticMetaObject
	?qt_metacast@NmAttachmentListWidget@@UAEPAXPBD@Z @ 37 NONAME ; void * NmAttachmentListWidget::qt_metacast(char const *)
	?setCustomTextColor@NmEditorTextEdit@@QAEXABU?$QPair@_NVQColor@@@@@Z @ 38 NONAME ; void NmEditorTextEdit::setCustomTextColor(struct QPair<bool, class QColor> const &)
	??1NmAttachmentListItem@@UAE@XZ @ 39 NONAME ; NmAttachmentListItem::~NmAttachmentListItem(void)
	?trUtf8@NmAttachmentListItem@@SA?AVQString@@PBD0@Z @ 40 NONAME ; class QString NmAttachmentListItem::trUtf8(char const *, char const *)
	?progressBarValue@NmAttachmentListItem@@QBEHXZ @ 41 NONAME ; int NmAttachmentListItem::progressBarValue(void) const
	?createAutofillComponents@NmRecipientLineEdit@@AAEXXZ @ 42 NONAME ; void NmRecipientLineEdit::createAutofillComponents(void)
	?keyPressEventLeft@NmRecipientLineEdit@@AAEXPAVQKeyEvent@@@Z @ 43 NONAME ; void NmRecipientLineEdit::keyPressEventLeft(class QKeyEvent *)
	?mouseMoveEvent@NmBaseViewScrollArea@@UAEXPAVQGraphicsSceneMouseEvent@@@Z @ 44 NONAME ; void NmBaseViewScrollArea::mouseMoveEvent(class QGraphicsSceneMouseEvent *)
	?trUtf8@NmBaseViewScrollArea@@SA?AVQString@@PBD0@Z @ 45 NONAME ; class QString NmBaseViewScrollArea::trUtf8(char const *, char const *)
	?setPlainText@NmHtmlLineEdit@@QAEXABVQString@@@Z @ 46 NONAME ; void NmHtmlLineEdit::setPlainText(class QString const &)
	?tr@NmAttachmentListItem@@SA?AVQString@@PBD0H@Z @ 47 NONAME ; class QString NmAttachmentListItem::tr(char const *, char const *, int)
	??1NmEditorTextEdit@@UAE@XZ @ 48 NONAME ; NmEditorTextEdit::~NmEditorTextEdit(void)
	?handleMouseMoveEvent@NmBaseViewScrollArea@@IAEXPAVQGraphicsSceneMouseEvent@@@Z @ 49 NONAME ; void NmBaseViewScrollArea::handleMouseMoveEvent(class QGraphicsSceneMouseEvent *)
	??0NmEditorTextEdit@@QAE@PAVQGraphicsItem@@@Z @ 50 NONAME ; NmEditorTextEdit::NmEditorTextEdit(class QGraphicsItem *)
	?trUtf8@NmBaseViewScrollArea@@SA?AVQString@@PBD0H@Z @ 51 NONAME ; class QString NmBaseViewScrollArea::trUtf8(char const *, char const *, int)
	?rearrangeLayout@NmAttachmentListWidget@@AAEXXZ @ 52 NONAME ; void NmAttachmentListWidget::rearrangeLayout(void)
	?currentTextPart@NmRecipientLineEdit@@AAEXAAH0@Z @ 53 NONAME ; void NmRecipientLineEdit::currentTextPart(int &, int &)
	?mouseReleaseEvent@NmBaseViewScrollArea@@UAEXPAVQGraphicsSceneMouseEvent@@@Z @ 54 NONAME ; void NmBaseViewScrollArea::mouseReleaseEvent(class QGraphicsSceneMouseEvent *)
	??1NmAttachmentListWidget@@UAE@XZ @ 55 NONAME ; NmAttachmentListWidget::~NmAttachmentListWidget(void)
	?qt_metacast@NmAttachmentListItem@@UAEPAXPBD@Z @ 56 NONAME ; void * NmAttachmentListItem::qt_metacast(char const *)
	??_ENmAttachmentListItem@@UAE@I@Z @ 57 NONAME ; NmAttachmentListItem::~NmAttachmentListItem(unsigned int)
	?handleTextChanged@NmRecipientLineEdit@@AAEXABVQString@@@Z @ 58 NONAME ; void NmRecipientLineEdit::handleTextChanged(class QString const &)
	?qt_metacast@NmBaseViewScrollArea@@UAEPAXPBD@Z @ 59 NONAME ; void * NmBaseViewScrollArea::qt_metacast(char const *)
	?getChosenAddressFromModel@NmRecipientLineEdit@@AAEXABVQModelIndex@@AAVNmAddress@@@Z @ 60 NONAME ; void NmRecipientLineEdit::getChosenAddressFromModel(class QModelIndex const &, class NmAddress &)
	?document@NmHtmlLineEdit@@QBEPAVQTextDocument@@XZ @ 61 NONAME ; class QTextDocument * NmHtmlLineEdit::document(void) const
	?setProgressBarValue@NmAttachmentListWidget@@QAEXHH@Z @ 62 NONAME ; void NmAttachmentListWidget::setProgressBarValue(int, int)
	?qt_metacall@NmAttachmentListWidget@@UAEHW4Call@QMetaObject@@HPAPAX@Z @ 63 NONAME ; int NmAttachmentListWidget::qt_metacall(enum QMetaObject::Call, int, void * *)
	?qt_metacall@NmAttachmentListItem@@UAEHW4Call@QMetaObject@@HPAPAX@Z @ 64 NONAME ; int NmAttachmentListItem::qt_metacall(enum QMetaObject::Call, int, void * *)
	?handleTap@NmRecipientLineEdit@@AAEXXZ @ 65 NONAME ; void NmRecipientLineEdit::handleTap(void)
	?getStaticMetaObject@NmHtmlLineEdit@@SAABUQMetaObject@@XZ @ 66 NONAME ; struct QMetaObject const & NmHtmlLineEdit::getStaticMetaObject(void)
	?handleLongPressGesture@NmBaseViewScrollArea@@IAEXABVQPointF@@@Z @ 67 NONAME ; void NmBaseViewScrollArea::handleLongPressGesture(class QPointF const &)
	?constructUi@NmAttachmentListWidget@@AAEXXZ @ 68 NONAME ; void NmAttachmentListWidget::constructUi(void)
	?hasInputFocus@NmHtmlLineEdit@@QBE_NXZ @ 69 NONAME ; bool NmHtmlLineEdit::hasInputFocus(void) const
	?setDocument@NmHtmlLineEdit@@QAEXPAVQTextDocument@@@Z @ 70 NONAME ; void NmHtmlLineEdit::setDocument(class QTextDocument *)
	?staticMetaObject@NmRecipientLineEdit@@2UQMetaObject@@B @ 71 NONAME ; struct QMetaObject const NmRecipientLineEdit::staticMetaObject
	??_ENmEditorTextEdit@@UAE@I@Z @ 72 NONAME ; NmEditorTextEdit::~NmEditorTextEdit(unsigned int)
	?metaObject@NmHtmlLineEdit@@UBEPBUQMetaObject@@XZ @ 73 NONAME ; struct QMetaObject const * NmHtmlLineEdit::metaObject(void) const
	?trUtf8@NmAttachmentListWidget@@SA?AVQString@@PBD0H@Z @ 74 NONAME ; class QString NmAttachmentListWidget::trUtf8(char const *, char const *, int)
	??_ENmAttachmentListWidget@@UAE@I@Z @ 75 NONAME ; NmAttachmentListWidget::~NmAttachmentListWidget(unsigned int)
	?setIndentForLabel@NmHtmlLineEdit@@QAEXM@Z @ 76 NONAME ; void NmHtmlLineEdit::setIndentForLabel(float)
	??0NmRecipientLineEdit@@QAE@PAVQGraphicsItem@@@Z @ 77 NONAME ; NmRecipientLineEdit::NmRecipientLineEdit(class QGraphicsItem *)
	?progressValue@NmAttachmentListWidget@@QBEHH@Z @ 78 NONAME ; int NmAttachmentListWidget::progressValue(int) const
	?setFileSizeText@NmAttachmentListItem@@QAEXABVQString@@@Z @ 79 NONAME ; void NmAttachmentListItem::setFileSizeText(class QString const &)
	?emailAddressList@NmRecipientLineEdit@@QAE?AV?$QList@VNmAddress@@@@XZ @ 80 NONAME ; class QList<class NmAddress> NmRecipientLineEdit::emailAddressList(void)
	??1NmHtmlLineEdit@@UAE@XZ @ 81 NONAME ; NmHtmlLineEdit::~NmHtmlLineEdit(void)
	?keyPressEvent@NmRecipientLineEdit@@MAEXPAVQKeyEvent@@@Z @ 82 NONAME ; void NmRecipientLineEdit::keyPressEvent(class QKeyEvent *)
	?staticMetaObject@NmAttachmentListItem@@2UQMetaObject@@B @ 83 NONAME ; struct QMetaObject const NmAttachmentListItem::staticMetaObject
	?addSelectedContacts@NmRecipientLineEdit@@QAEXABVQVariant@@@Z @ 84 NONAME ; void NmRecipientLineEdit::addSelectedContacts(class QVariant const &)
	?getStaticMetaObject@NmAttachmentListItem@@SAABUQMetaObject@@XZ @ 85 NONAME ; struct QMetaObject const & NmAttachmentListItem::getStaticMetaObject(void)
	?itemActivated@NmAttachmentListWidget@@IAEXH@Z @ 86 NONAME ; void NmAttachmentListWidget::itemActivated(int)
	?textCursor@NmHtmlLineEdit@@QBE?AVQTextCursor@@XZ @ 87 NONAME ; class QTextCursor NmHtmlLineEdit::textCursor(void) const
	?tr@NmHtmlLineEdit@@SA?AVQString@@PBD0@Z @ 88 NONAME ; class QString NmHtmlLineEdit::tr(char const *, char const *)
	?setHighlight@NmRecipientLineEdit@@AAEXH@Z @ 89 NONAME ; void NmRecipientLineEdit::setHighlight(int)
	?staticMetaObject@NmHtmlLineEdit@@2UQMetaObject@@B @ 90 NONAME ; struct QMetaObject const NmHtmlLineEdit::staticMetaObject
	?removeAttachment@NmAttachmentListWidget@@QAEXH@Z @ 91 NONAME ; void NmAttachmentListWidget::removeAttachment(int)
	?metaObject@NmRecipientLineEdit@@UBEPBUQMetaObject@@XZ @ 92 NONAME ; struct QMetaObject const * NmRecipientLineEdit::metaObject(void) const
	?rectForCursorPosition@NmHtmlLineEdit@@QBE?AVQRectF@@XZ @ 93 NONAME ; class QRectF NmHtmlLineEdit::rectForCursorPosition(void) const
	?insertItemToLayout@NmAttachmentListWidget@@AAEXPAVNmAttachmentListItem@@@Z @ 94 NONAME ; void NmAttachmentListWidget::insertItemToLayout(class NmAttachmentListItem *)
	??0NmAttachmentListItem@@QAE@PAVQGraphicsItem@@@Z @ 95 NONAME ; NmAttachmentListItem::NmAttachmentListItem(class QGraphicsItem *)
	?trUtf8@NmHtmlLineEdit@@SA?AVQString@@PBD0H@Z @ 96 NONAME ; class QString NmHtmlLineEdit::trUtf8(char const *, char const *, int)
	?getStaticMetaObject@NmRecipientLineEdit@@SAABUQMetaObject@@XZ @ 97 NONAME ; struct QMetaObject const & NmRecipientLineEdit::getStaticMetaObject(void)
	?orientationChanged@NmAttachmentListWidget@@AAEXW4Orientation@Qt@@@Z @ 98 NONAME ; void NmAttachmentListWidget::orientationChanged(enum Qt::Orientation)
	??0NmHtmlLineEdit@@QAE@PAVQGraphicsItem@@@Z @ 99 NONAME ; NmHtmlLineEdit::NmHtmlLineEdit(class QGraphicsItem *)
	?addContacts@NmRecipientLineEdit@@QAEXV?$QList@PAVNmAddress@@@@@Z @ 100 NONAME ; void NmRecipientLineEdit::addContacts(class QList<class NmAddress *>)
	?trUtf8@NmRecipientLineEdit@@SA?AVQString@@PBD0H@Z @ 101 NONAME ; class QString NmRecipientLineEdit::trUtf8(char const *, char const *, int)
	?keyPressEventSemicolon@NmRecipientLineEdit@@AAEXPAVQKeyEvent@@@Z @ 102 NONAME ; void NmRecipientLineEdit::keyPressEventSemicolon(class QKeyEvent *)
	?findItem@NmAttachmentListWidget@@AAEHPBVQObject@@@Z @ 103 NONAME ; int NmAttachmentListWidget::findItem(class QObject const *)
	?tr@NmAttachmentListWidget@@SA?AVQString@@PBD0H@Z @ 104 NONAME ; class QString NmAttachmentListWidget::tr(char const *, char const *, int)
	?trUtf8@NmHtmlLineEdit@@SA?AVQString@@PBD0@Z @ 105 NONAME ; class QString NmHtmlLineEdit::trUtf8(char const *, char const *)
	?tr@NmHtmlLineEdit@@SA?AVQString@@PBD0H@Z @ 106 NONAME ; class QString NmHtmlLineEdit::tr(char const *, char const *, int)
	?tr@NmAttachmentListItem@@SA?AVQString@@PBD0@Z @ 107 NONAME ; class QString NmAttachmentListItem::tr(char const *, char const *)
	?count@NmAttachmentListWidget@@QBEHXZ @ 108 NONAME ; int NmAttachmentListWidget::count(void) const
	?tr@NmRecipientLineEdit@@SA?AVQString@@PBD0H@Z @ 109 NONAME ; class QString NmRecipientLineEdit::tr(char const *, char const *, int)
	?hideAutofillPopup@NmRecipientLineEdit@@AAEXXZ @ 110 NONAME ; void NmRecipientLineEdit::hideAutofillPopup(void)
	?metaObject@NmAttachmentListWidget@@UBEPBUQMetaObject@@XZ @ 111 NONAME ; struct QMetaObject const * NmAttachmentListWidget::metaObject(void) const
	?trUtf8@NmEditorTextEdit@@SA?AVQString@@PBD0H@Z @ 112 NONAME ; class QString NmEditorTextEdit::trUtf8(char const *, char const *, int)
	?init@NmAttachmentListItem@@AAEXXZ @ 113 NONAME ; void NmAttachmentListItem::init(void)
	?hideProgressBar@NmAttachmentListWidget@@QAEXH@Z @ 114 NONAME ; void NmAttachmentListWidget::hideProgressBar(int)
	?setPressed@NmAttachmentListItem@@QAEX_N@Z @ 115 NONAME ; void NmAttachmentListItem::setPressed(bool)
	?modelCompleted@NmRecipientLineEdit@@AAEXH@Z @ 116 NONAME ; void NmRecipientLineEdit::modelCompleted(int)
	??_ENmRecipientLineEdit@@UAE@I@Z @ 117 NONAME ; NmRecipientLineEdit::~NmRecipientLineEdit(unsigned int)
	?metaObject@NmAttachmentListItem@@UBEPBUQMetaObject@@XZ @ 118 NONAME ; struct QMetaObject const * NmAttachmentListItem::metaObject(void) const
	?keyPressEventRight@NmRecipientLineEdit@@AAEXPAVQKeyEvent@@@Z @ 119 NONAME ; void NmRecipientLineEdit::keyPressEventRight(class QKeyEvent *)
	?setAttachmentSize@NmAttachmentListWidget@@QAEXHABVQString@@@Z @ 120 NONAME ; void NmAttachmentListWidget::setAttachmentSize(int, class QString const &)
	?removeProgressBar@NmAttachmentListItem@@AAEXXZ @ 121 NONAME ; void NmAttachmentListItem::removeProgressBar(void)
	?qt_metacall@NmHtmlLineEdit@@UAEHW4Call@QMetaObject@@HPAPAX@Z @ 122 NONAME ; int NmHtmlLineEdit::qt_metacall(enum QMetaObject::Call, int, void * *)
	?inputMethodEvent@NmRecipientLineEdit@@MAEXPAVQInputMethodEvent@@@Z @ 123 NONAME ; void NmRecipientLineEdit::inputMethodEvent(class QInputMethodEvent *)
	?getStaticMetaObject@NmBaseViewScrollArea@@SAABUQMetaObject@@XZ @ 124 NONAME ; struct QMetaObject const & NmBaseViewScrollArea::getStaticMetaObject(void)
	??_ENmHtmlLineEdit@@UAE@I@Z @ 125 NONAME ; NmHtmlLineEdit::~NmHtmlLineEdit(unsigned int)
	?qt_metacall@NmBaseViewScrollArea@@UAEHW4Call@QMetaObject@@HPAPAX@Z @ 126 NONAME ; int NmBaseViewScrollArea::qt_metacall(enum QMetaObject::Call, int, void * *)
	?constructUi@NmAttachmentListItem@@AAEXXZ @ 127 NONAME ; void NmAttachmentListItem::constructUi(void)
	?qt_metacall@NmRecipientLineEdit@@UAEHW4Call@QMetaObject@@HPAPAX@Z @ 128 NONAME ; int NmRecipientLineEdit::qt_metacall(enum QMetaObject::Call, int, void * *)
	?qt_metacall@NmEditorTextEdit@@UAEHW4Call@QMetaObject@@HPAPAX@Z @ 129 NONAME ; int NmEditorTextEdit::qt_metacall(enum QMetaObject::Call, int, void * *)
	?setTextColor@NmAttachmentListItem@@QAEXVQColor@@@Z @ 130 NONAME ; void NmAttachmentListItem::setTextColor(class QColor)
	?setBackgroundColor@NmAttachmentListItem@@QAEXVQColor@@@Z @ 131 NONAME ; void NmAttachmentListItem::setBackgroundColor(class QColor)
	?tr@NmAttachmentListWidget@@SA?AVQString@@PBD0@Z @ 132 NONAME ; class QString NmAttachmentListWidget::tr(char const *, char const *)
	?handleMousePressEvent@NmBaseViewScrollArea@@IAEXPAVQGraphicsSceneMouseEvent@@@Z @ 133 NONAME ; void NmBaseViewScrollArea::handleMousePressEvent(class QGraphicsSceneMouseEvent *)
	?trUtf8@NmEditorTextEdit@@SA?AVQString@@PBD0@Z @ 134 NONAME ; class QString NmEditorTextEdit::trUtf8(char const *, char const *)
	?toPlainText@NmHtmlLineEdit@@QBE?AVQString@@XZ @ 135 NONAME ; class QString NmHtmlLineEdit::toPlainText(void) const
	?setTextColor@NmAttachmentListWidget@@QAEXVQColor@@@Z @ 136 NONAME ; void NmAttachmentListWidget::setTextColor(class QColor)
	?toHtml@NmHtmlLineEdit@@QBE?AVQString@@XZ @ 137 NONAME ; class QString NmHtmlLineEdit::toHtml(void) const
	?tr@NmBaseViewScrollArea@@SA?AVQString@@PBD0@Z @ 138 NONAME ; class QString NmBaseViewScrollArea::tr(char const *, char const *)
	?itemActivated@NmAttachmentListItem@@IAEXXZ @ 139 NONAME ; void NmAttachmentListItem::itemActivated(void)
	?hideProgressBar@NmAttachmentListItem@@QAEXXZ @ 140 NONAME ; void NmAttachmentListItem::hideProgressBar(void)
	?addSelectedContactFromHistory@NmRecipientLineEdit@@QAEXABVQModelIndex@@@Z @ 141 NONAME ; void NmRecipientLineEdit::addSelectedContactFromHistory(class QModelIndex const &)
	?qt_metacast@NmEditorTextEdit@@UAEPAXPBD@Z @ 142 NONAME ; void * NmEditorTextEdit::qt_metacast(char const *)
	?qt_metacast@NmRecipientLineEdit@@UAEPAXPBD@Z @ 143 NONAME ; void * NmRecipientLineEdit::qt_metacast(char const *)
	?mousePressEvent@NmBaseViewScrollArea@@UAEXPAVQGraphicsSceneMouseEvent@@@Z @ 144 NONAME ; void NmBaseViewScrollArea::mousePressEvent(class QGraphicsSceneMouseEvent *)
	?insertAttachment@NmAttachmentListWidget@@QAEXHABVQString@@0@Z @ 145 NONAME ; void NmAttachmentListWidget::insertAttachment(int, class QString const &, class QString const &)
	?tr@NmBaseViewScrollArea@@SA?AVQString@@PBD0H@Z @ 146 NONAME ; class QString NmBaseViewScrollArea::tr(char const *, char const *, int)
	?longPressGesture@NmBaseViewScrollArea@@MAEXABVQPointF@@@Z @ 147 NONAME ; void NmBaseViewScrollArea::longPressGesture(class QPointF const &)
	?trUtf8@NmAttachmentListItem@@SA?AVQString@@PBD0H@Z @ 148 NONAME ; class QString NmAttachmentListItem::trUtf8(char const *, char const *, int)
	?customTextColor@NmEditorTextEdit@@QBE?AU?$QPair@_NVQColor@@@@XZ @ 149 NONAME ; struct QPair<bool, class QColor> NmEditorTextEdit::customTextColor(void) const
	?paint@NmAttachmentListWidget@@UAEXPAVQPainter@@PBVQStyleOptionGraphicsItem@@PAVQWidget@@@Z @ 150 NONAME ; void NmAttachmentListWidget::paint(class QPainter *, class QStyleOptionGraphicsItem const *, class QWidget *)
	?setHtml@NmHtmlLineEdit@@QAEXABVQString@@@Z @ 151 NONAME ; void NmHtmlLineEdit::setHtml(class QString const &)
	?insertContactText@NmRecipientLineEdit@@AAEXABVQString@@@Z @ 152 NONAME ; void NmRecipientLineEdit::insertContactText(class QString const &)
	?gestureEvent@NmRecipientLineEdit@@EAEXPAVQGestureEvent@@@Z @ 153 NONAME ; void NmRecipientLineEdit::gestureEvent(class QGestureEvent *)
	?handleLongPressed@NmAttachmentListWidget@@AAEXVQPointF@@@Z @ 154 NONAME ; void NmAttachmentListWidget::handleLongPressed(class QPointF)
	?changeEvent@NmAttachmentListWidget@@MAEXPAVQEvent@@@Z @ 155 NONAME ; void NmAttachmentListWidget::changeEvent(class QEvent *)
	??1NmRecipientLineEdit@@UAE@XZ @ 156 NONAME ; NmRecipientLineEdit::~NmRecipientLineEdit(void)
	?moveCursor@NmEditorTextEdit@@QAEXW4MoveOperation@QTextCursor@@W4MoveMode@3@@Z @ 157 NONAME ; void NmEditorTextEdit::moveCursor(enum QTextCursor::MoveOperation, enum QTextCursor::MoveMode)

