EXPORTS
	_ZN14CpProfileModel11qt_metacallEN11QMetaObject4CallEiPPv @ 1 NONAME
	_ZN14CpProfileModel11qt_metacastEPKc @ 2 NONAME
	_ZN14CpProfileModel11setRingToneERK7QString @ 3 NONAME
	_ZN14CpProfileModel11setRingToneEiRK7QString @ 4 NONAME
	_ZN14CpProfileModel12setEmailToneEiRK7QString @ 5 NONAME
	_ZN14CpProfileModel14setMasterVibraEb @ 6 NONAME
	_ZN14CpProfileModel14setMessageToneEiRK7QString @ 7 NONAME
	_ZN14CpProfileModel14setProfileNameEiRK7QString @ 8 NONAME
	_ZN14CpProfileModel14setSilenceModeEb @ 9 NONAME
	_ZN14CpProfileModel15activateProfileEi @ 10 NONAME
	_ZN14CpProfileModel15profileSettingsEiR17CpProfileSettings @ 11 NONAME
	_ZN14CpProfileModel15setMasterVolumeEi @ 12 NONAME
	_ZN14CpProfileModel15setReminderToneEiRK7QString @ 13 NONAME
	_ZN14CpProfileModel16staticMetaObjectE @ 14 NONAME DATA 16
	_ZN14CpProfileModel18setProfileSettingsEiR17CpProfileSettings @ 15 NONAME
	_ZN14CpProfileModel19getStaticMetaObjectEv @ 16 NONAME
	_ZN14CpProfileModel19setNotificationToneEib @ 17 NONAME
	_ZN14CpProfileModel21setKeyTouchScreenToneEii @ 18 NONAME
	_ZN14CpProfileModel22setKeyTouchScreenVibraEii @ 19 NONAME
	_ZN14CpProfileModelC1EP7QObject @ 20 NONAME
	_ZN14CpProfileModelC2EP7QObject @ 21 NONAME
	_ZN14CpProfileModelD0Ev @ 22 NONAME
	_ZN14CpProfileModelD1Ev @ 23 NONAME
	_ZN14CpProfileModelD2Ev @ 24 NONAME
	_ZN16CpProfileMonitor11qt_metacallEN11QMetaObject4CallEiPPv @ 25 NONAME
	_ZN16CpProfileMonitor11qt_metacastEPKc @ 26 NONAME
	_ZN16CpProfileMonitor15profileModifiedEi @ 27 NONAME
	_ZN16CpProfileMonitor16profileActivatedEi @ 28 NONAME
	_ZN16CpProfileMonitor16staticMetaObjectE @ 29 NONAME DATA 16
	_ZN16CpProfileMonitor19getStaticMetaObjectEv @ 30 NONAME
	_ZN16CpProfileMonitor19profileNameModifiedEv @ 31 NONAME
	_ZN16CpProfileMonitor21avtiveProfileModifiedEv @ 32 NONAME
	_ZN16CpProfileMonitorC1EP7QObject @ 33 NONAME
	_ZN16CpProfileMonitorC2EP7QObject @ 34 NONAME
	_ZN16CpProfileMonitorD0Ev @ 35 NONAME
	_ZN16CpProfileMonitorD1Ev @ 36 NONAME
	_ZN16CpProfileMonitorD2Ev @ 37 NONAME
	_ZNK14CpProfileModel10metaObjectEv @ 38 NONAME
	_ZNK14CpProfileModel11masterVibraEv @ 39 NONAME
	_ZNK14CpProfileModel11messageToneEi @ 40 NONAME
	_ZNK14CpProfileModel11profileNameEi @ 41 NONAME
	_ZNK14CpProfileModel11silenceModeEv @ 42 NONAME
	_ZNK14CpProfileModel12masterVolumeEv @ 43 NONAME
	_ZNK14CpProfileModel12profileNamesEv @ 44 NONAME
	_ZNK14CpProfileModel12reminderToneEi @ 45 NONAME
	_ZNK14CpProfileModel15activeProfileIdEv @ 46 NONAME
	_ZNK14CpProfileModel16notificationToneEi @ 47 NONAME
	_ZNK14CpProfileModel18keyTouchScreenToneEi @ 48 NONAME
	_ZNK14CpProfileModel19keyTouchScreenVibraEi @ 49 NONAME
	_ZNK14CpProfileModel8ringToneEi @ 50 NONAME
	_ZNK14CpProfileModel8ringToneEv @ 51 NONAME
	_ZNK14CpProfileModel9emailToneEi @ 52 NONAME
	_ZNK16CpProfileMonitor10metaObjectEv @ 53 NONAME
	_ZTI14CpProfileModel @ 54 NONAME
	_ZTI16CpProfileMonitor @ 55 NONAME
	_ZTV14CpProfileModel @ 56 NONAME
	_ZTV16CpProfileMonitor @ 57 NONAME

